 node_activex

 Timestamp is 5a71a16d (Wed Jan 31 16:28:53 2018)

 Preferred load address is 0000000180000000

 Start         Length     Name                   Class
 0001:00000000 00000040H .text$di                CODE
 0001:00000040 0001def0H .text$mn                CODE
 0001:0001df30 00000020H .text$mn$00             CODE
 0001:0001df50 00000270H .text$x                 CODE
 0001:0001e1c0 00000013H .text$yd                CODE
 0002:00000000 000002f0H .idata$5                DATA
 0002:000002f0 00000010H .00cfg                  DATA
 0002:00000300 00000008H .CRT$XCA                DATA
 0002:00000308 00000018H .CRT$XCU                DATA
 0002:00000320 00000008H .CRT$XCZ                DATA
 0002:00000328 00000008H .CRT$XIA                DATA
 0002:00000330 00000018H .CRT$XIC                DATA
 0002:00000348 00000008H .CRT$XIZ                DATA
 0002:00000350 00000008H .CRT$XPA                DATA
 0002:00000358 00000010H .CRT$XPX                DATA
 0002:00000368 00000008H .CRT$XPXA               DATA
 0002:00000370 00000008H .CRT$XPZ                DATA
 0002:00000378 00000008H .CRT$XTA                DATA
 0002:00000380 00000010H .CRT$XTZ                DATA
 0002:00000390 00008958H .rdata                  DATA
 0002:00008ce8 00000384H .rdata$r                DATA
 0002:0000906c 00000404H .rdata$zzzdbg           DATA
 0002:00009470 00000008H .rtc$IAA                DATA
 0002:00009478 00000008H .rtc$IZZ                DATA
 0002:00009480 00000008H .rtc$TAA                DATA
 0002:00009488 00000008H .rtc$TZZ                DATA
 0002:00009490 00001b38H .xdata                  DATA
 0002:0000afc8 000001e4H .xdata$x                DATA
 0002:0000b1ac 00000020H .didat$2                DATA
 0002:0000b1cc 00000024H .didat$3                DATA
 0002:0000b1f0 000001e8H .didat$4                DATA
 0002:0000b3d8 00001130H .didat$6                DATA
 0002:0000c508 000001e8H .didat$7                DATA
 0002:0000c6f0 0000005cH .edata                  DATA
 0002:0000c74c 0000003cH .idata$2                DATA
 0002:0000c788 00000018H .idata$3                DATA
 0002:0000c7a0 000002f0H .idata$4                DATA
 0002:0000ca90 00000614H .idata$6                DATA
 0003:00000000 00000980H .data                   DATA
 0003:00000980 00000118H .data$r                 DATA
 0003:00000a98 000001e8H .didat$5                DATA
 0003:00000c80 00001210H .bss                    DATA
 0004:00000000 00001da0H .pdata                  DATA
 0005:00000000 00000084H .gfids$x                DATA
 0005:00000084 00000048H .gfids$y                DATA
 0006:00000000 00000060H .rsrc$01                DATA
 0006:00000060 00000180H .rsrc$02                DATA

  Address         Publics by Value              Rva+Base               Lib:Object

 0000:00000000       __guard_iat_count          0000000000000000     <absolute>
 0000:00000000       __dynamic_value_reloc_table 0000000000000000     <absolute>
 0000:00000000       __guard_iat_table          0000000000000000     <absolute>
 0000:00000000       __guard_longjmp_table      0000000000000000     <absolute>
 0000:00000000       __guard_longjmp_count      0000000000000000     <absolute>
 0000:00000000       __guard_fids_count         0000000000000000     <absolute>
 0000:00000000       ___safe_se_handler_table   0000000000000000     <absolute>
 0000:00000000       ___safe_se_handler_count   0000000000000000     <absolute>
 0000:00000000       __guard_fids_table         0000000000000000     <absolute>
 0000:00000100       __guard_flags              0000000000000100     <absolute>
 0000:00000000       __ImageBase                0000000180000000     <linker-defined>
 0001:00000040       ?Init@node_activex@@YAXV?$Local@VObject@v8@@@v8@@@Z 0000000180001040 f   main.obj
 0001:00000070       DllMain                    0000000180001070 f   main.obj
 0001:000000a0       __local_stdio_printf_options 00000001800010a0 f i utils.obj
 0001:000000b0       swprintf_s                 00000001800010b0 f i utils.obj
 0001:00000110       ?_Get_deleter@_Ref_count_base@std@@UEBAPEAXAEBVtype_info@@@Z 0000000180001110 f i utils.obj
 0001:00000120       ??_E_Ref_count_base@std@@UEAAPEAXI@Z 0000000180001120 f i * CIL library *:* CIL module *
 0001:00000120       ??_G_Ref_count_base@std@@UEAAPEAXI@Z 0000000180001120 f i utils.obj
 0001:00000150       ?GetTypeInfoCount@DispObjectImpl@@UEAAJPEAI@Z 0000000180001150 f i utils.obj
 0001:00000150       ?GetTypeInfoCount@DispEnumImpl@@UEAAJPEAI@Z 0000000180001150 f i utils.obj
 0001:00000160       ?GetTypeInfo@DispEnumImpl@@UEAAJIKPEAPEAUITypeInfo@@@Z 0000000180001160 f i utils.obj
 0001:00000160       ?GetTypeInfo@DispObjectImpl@@UEAAJIKPEAPEAUITypeInfo@@@Z 0000000180001160 f i utils.obj
 0001:00000170       ??_EDispEnumImpl@@UEAAPEAXI@Z 0000000180001170 f i * CIL library *:* CIL module *
 0001:00000170       ??_GDispEnumImpl@@UEAAPEAXI@Z 0000000180001170 f i utils.obj
 0001:000001d0       ??0DispObjectImpl@@QEAA@AEBV?$Local@VObject@v8@@@v8@@@Z 00000001800011d0 f i utils.obj
 0001:000002b0       ??1DispObjectImpl@@UEAA@XZ 00000001800012b0 f i utils.obj
 0001:00000340       ?QueryInterface@DispObjectImpl@@UEAAJAEBU_GUID@@PEAPEAX@Z 0000000180001340 f i utils.obj
 0001:000003d0       ??_EDispObjectImpl@@UEAAPEAXI@Z 00000001800013d0 f i * CIL library *:* CIL module *
 0001:000003d0       ??_GDispObjectImpl@@UEAAPEAXI@Z 00000001800013d0 f i utils.obj
 0001:00000410       ??0DispInfo@@QEAA@PEAUIDispatch@@AEBV?$basic_string@_WU?$char_traits@_W@std@@V?$allocator@_W@2@@std@@HPEAV?$shared_ptr@VDispInfo@@@3@@Z 0000000180001410 f i utils.obj
 0001:00000530       ?NodeCreate@DispObject@@SA?AV?$Local@VObject@v8@@@v8@@PEAVIsolate@3@PEAUIDispatch@@AEBV?$basic_string@_WU?$char_traits@_W@std@@V?$allocator@_W@2@@std@@H@Z 0000000180001530 f i utils.obj
 0001:000006a0       ?GetWin32ErroroMessage@@YA?AV?$Local@VString@v8@@@v8@@PEAVIsolate@2@JPEB_W11@Z 00000001800016a0 f   utils.obj
 0001:00000860       ?Variant2Array@@YA?AV?$Local@VValue@v8@@@v8@@PEAVIsolate@2@AEBUtagVARIANT@@@Z 0000000180001860 f   utils.obj
 0001:000009b0       ?Variant2Value@@YA?AV?$Local@VValue@v8@@@v8@@PEAVIsolate@2@AEBUtagVARIANT@@_N@Z 00000001800019b0 f   utils.obj
 0001:00000e10       ?Variant2String@@YA?AV?$Local@VValue@v8@@@v8@@PEAVIsolate@2@AEBUtagVARIANT@@@Z 0000000180001e10 f   utils.obj
 0001:00001150       ?Value2Variant@@YAXPEAVIsolate@v8@@AEAV?$Local@VValue@v8@@@2@AEAUtagVARIANT@@@Z 0000000180002150 f   utils.obj
 0001:00001400       ?UnknownDispGet@@YA_NPEAUIUnknown@@PEAPEAUIDispatch@@@Z 0000000180002400 f   utils.obj
 0001:000014d0       ?GetIDsOfNames@DispEnumImpl@@UEAAJAEBU_GUID@@PEAPEA_WIKPEAJ@Z 00000001800024d0 f   utils.obj
 0001:000015c0       ?Invoke@DispEnumImpl@@UEAAJJAEBU_GUID@@KGPEAUtagDISPPARAMS@@PEAUtagVARIANT@@PEAUtagEXCEPINFO@@PEAI@Z 00000001800025c0 f   utils.obj
 0001:00001830       ?GetIDsOfNames@DispObjectImpl@@UEAAJAEBU_GUID@@PEAPEA_WIKPEAJ@Z 0000000180002830 f   utils.obj
 0001:00001a70       ?Invoke@DispObjectImpl@@UEAAJJAEBU_GUID@@KGPEAUtagDISPPARAMS@@PEAUtagVARIANT@@PEAUtagEXCEPINFO@@PEAI@Z 0000000180002a70 f   utils.obj
 0001:00001e10       ?Release@?$UnknownImpl@UIDispatch@@@@UEAAKXZ 0000000180002e10 f i utils.obj
 0001:00001e40       ?AddRef@?$UnknownImpl@UIDispatch@@@@UEAAKXZ 0000000180002e40 f i utils.obj
 0001:00001e50       ?QueryInterface@?$UnknownImpl@UIDispatch@@@@UEAAJAEBU_GUID@@PEAPEAX@Z 0000000180002e50 f i utils.obj
 0001:00001ec0       ?resize@?$vector@V?$Local@VValue@v8@@@v8@@V?$allocator@V?$Local@VValue@v8@@@v8@@@std@@@std@@QEAAX_K@Z 0000000180002ec0 f i utils.obj
 0001:00001fd0       ??1?$basic_string@_WU?$char_traits@_W@std@@V?$allocator@_W@2@@std@@QEAA@XZ 0000000180002fd0 f i utils.obj
 0001:00002070       ??_G?$UnknownImpl@UIDispatch@@@@UEAAPEAXI@Z 0000000180003070 f i utils.obj
 0001:00002070       ??_E?$UnknownImpl@UIDispatch@@@@UEAAPEAXI@Z 0000000180003070 f i * CIL library *:* CIL module *
 0001:000020a0       ?Attach@?$CComPtr@UIDispatch@@@@QEAAXPEAUIDispatch@@@Z 00000001800030a0 f i utils.obj
 0001:00002140       ?_Tidy@?$vector@V?$Local@VValue@v8@@@v8@@V?$allocator@V?$Local@VValue@v8@@@v8@@@std@@@std@@IEAAXXZ 0000000180003140 f i utils.obj
 0001:000021e0       ?_Tidy@?$basic_string@_WU?$char_traits@_W@std@@V?$allocator@_W@2@@std@@QEAAX_N_K@Z 00000001800031e0 f i utils.obj
 0001:000022b0       ?assign@?$basic_string@_WU?$char_traits@_W@std@@V?$allocator@_W@2@@std@@QEAAAEAV12@PEB_W_K@Z 00000001800032b0 f i utils.obj
 0001:00002400       ?assign@?$basic_string@_WU?$char_traits@_W@std@@V?$allocator@_W@2@@std@@QEAAAEAV12@AEBV12@_K1@Z 0000000180003400 f i utils.obj
 0001:00002550       ?erase@?$_Tree@V?$_Tmap_traits@JV?$shared_ptr@Uname_t@DispObjectImpl@@@std@@U?$less@J@2@V?$allocator@U?$pair@$$CBJV?$shared_ptr@Uname_t@DispObjectImpl@@@std@@@std@@@2@$0A@@std@@@std@@QEAA?AV?$_Tree_iterator@V?$_Tree_val@U?$_Tree_simple_types@U?$pair@$$CBJV?$shared_ptr@Uname_t@DispObjectImpl@@@std@@@std@@@std@@@std@@@2@V?$_Tree_const_iterator@V?$_Tree_val@U?$_Tree_simple_types@U?$pair@$$CBJV?$shared_ptr@Uname_t@DispObjectImpl@@@std@@@std@@@std@@@std@@@2@0@Z 0000000180003550 f i utils.obj
 0001:00002550       ?erase@?$_Tree@V?$_Tmap_traits@JV?$shared_ptr@Utype_t@DispInfo@@@std@@U?$less@J@2@V?$allocator@U?$pair@$$CBJV?$shared_ptr@Utype_t@DispInfo@@@std@@@std@@@2@$0A@@std@@@std@@QEAA?AV?$_Tree_iterator@V?$_Tree_val@U?$_Tree_simple_types@U?$pair@$$CBJV?$shared_ptr@Utype_t@DispInfo@@@std@@@std@@@std@@@std@@@2@V?$_Tree_const_iterator@V?$_Tree_val@U?$_Tree_simple_types@U?$pair@$$CBJV?$shared_ptr@Utype_t@DispInfo@@@std@@@std@@@std@@@std@@@2@0@Z 0000000180003550 f i utils.obj
 0001:00002650       ?erase@?$_Tree@V?$_Tmap_traits@V?$basic_string@_WU?$char_traits@_W@std@@V?$allocator@_W@2@@std@@V?$shared_ptr@Uname_t@DispObjectImpl@@@2@U?$less@V?$basic_string@_WU?$char_traits@_W@std@@V?$allocator@_W@2@@std@@@2@V?$allocator@U?$pair@$$CBV?$basic_string@_WU?$char_traits@_W@std@@V?$allocator@_W@2@@std@@V?$shared_ptr@Uname_t@DispObjectImpl@@@2@@std@@@2@$0A@@std@@@std@@QEAA?AV?$_Tree_iterator@V?$_Tree_val@U?$_Tree_simple_types@U?$pair@$$CBV?$basic_string@_WU?$char_traits@_W@std@@V?$allocator@_W@2@@std@@V?$shared_ptr@Uname_t@DispObjectImpl@@@2@@std@@@std@@@std@@@2@V?$_Tree_const_iterator@V?$_Tree_val@U?$_Tree_simple_types@U?$pair@$$CBV?$basic_string@_WU?$char_traits@_W@std@@V?$allocator@_W@2@@std@@V?$shared_ptr@Uname_t@DispObjectImpl@@@2@@std@@@std@@@std@@@2@0@Z 0000000180003650 f i utils.obj
 0001:00002750       ?_Reallocate@?$vector@V?$Local@VValue@v8@@@v8@@V?$allocator@V?$Local@VValue@v8@@@v8@@@std@@@std@@IEAAX_K@Z 0000000180003750 f i utils.obj
 0001:000028c0       ?erase@?$basic_string@_WU?$char_traits@_W@std@@V?$allocator@_W@2@@std@@QEAAAEAV12@_K0@Z 00000001800038c0 f i utils.obj
 0001:00002950       ?erase@?$_Tree@V?$_Tmap_traits@JV?$shared_ptr@Uname_t@DispObjectImpl@@@std@@U?$less@J@2@V?$allocator@U?$pair@$$CBJV?$shared_ptr@Uname_t@DispObjectImpl@@@std@@@std@@@2@$0A@@std@@@std@@QEAA?AV?$_Tree_iterator@V?$_Tree_val@U?$_Tree_simple_types@U?$pair@$$CBJV?$shared_ptr@Uname_t@DispObjectImpl@@@std@@@std@@@std@@@std@@@2@V?$_Tree_const_iterator@V?$_Tree_val@U?$_Tree_simple_types@U?$pair@$$CBJV?$shared_ptr@Uname_t@DispObjectImpl@@@std@@@std@@@std@@@std@@@2@@Z 0000000180003950 f i utils.obj
 0001:00002950       ?erase@?$_Tree@V?$_Tmap_traits@JV?$shared_ptr@Utype_t@DispInfo@@@std@@U?$less@J@2@V?$allocator@U?$pair@$$CBJV?$shared_ptr@Utype_t@DispInfo@@@std@@@std@@@2@$0A@@std@@@std@@QEAA?AV?$_Tree_iterator@V?$_Tree_val@U?$_Tree_simple_types@U?$pair@$$CBJV?$shared_ptr@Utype_t@DispInfo@@@std@@@std@@@std@@@std@@@2@V?$_Tree_const_iterator@V?$_Tree_val@U?$_Tree_simple_types@U?$pair@$$CBJV?$shared_ptr@Utype_t@DispInfo@@@std@@@std@@@std@@@std@@@2@@Z 0000000180003950 f i utils.obj
 0001:00002df0       ?erase@?$_Tree@V?$_Tmap_traits@V?$basic_string@_WU?$char_traits@_W@std@@V?$allocator@_W@2@@std@@V?$shared_ptr@Uname_t@DispObjectImpl@@@2@U?$less@V?$basic_string@_WU?$char_traits@_W@std@@V?$allocator@_W@2@@std@@@2@V?$allocator@U?$pair@$$CBV?$basic_string@_WU?$char_traits@_W@std@@V?$allocator@_W@2@@std@@V?$shared_ptr@Uname_t@DispObjectImpl@@@2@@std@@@2@$0A@@std@@@std@@QEAA?AV?$_Tree_iterator@V?$_Tree_val@U?$_Tree_simple_types@U?$pair@$$CBV?$basic_string@_WU?$char_traits@_W@std@@V?$allocator@_W@2@@std@@V?$shared_ptr@Uname_t@DispObjectImpl@@@2@@std@@@std@@@std@@@2@V?$_Tree_const_iterator@V?$_Tree_val@U?$_Tree_simple_types@U?$pair@$$CBV?$basic_string@_WU?$char_traits@_W@std@@V?$allocator@_W@2@@std@@V?$shared_ptr@Uname_t@DispObjectImpl@@@2@@std@@@std@@@std@@@2@@Z 0000000180003df0 f i utils.obj
 0001:00003320       ?_Copy@?$basic_string@_WU?$char_traits@_W@std@@V?$allocator@_W@2@@std@@QEAAX_K0@Z 0000000180004320 f i utils.obj
 0001:000034e0       ?_Rrotate@?$_Tree@V?$_Tmap_traits@JV?$shared_ptr@Uname_t@DispObjectImpl@@@std@@U?$less@J@2@V?$allocator@U?$pair@$$CBJV?$shared_ptr@Uname_t@DispObjectImpl@@@std@@@std@@@2@$0A@@std@@@std@@IEAAXPEAU?$_Tree_node@U?$pair@$$CBJV?$shared_ptr@Uname_t@DispObjectImpl@@@std@@@std@@PEAX@2@@Z 00000001800044e0 f i utils.obj
 0001:000034e0       ?_Rrotate@?$_Tree@V?$_Tmap_traits@JV?$shared_ptr@Utype_t@DispInfo@@@std@@U?$less@J@2@V?$allocator@U?$pair@$$CBJV?$shared_ptr@Utype_t@DispInfo@@@std@@@std@@@2@$0A@@std@@@std@@IEAAXPEAU?$_Tree_node@U?$pair@$$CBJV?$shared_ptr@Utype_t@DispInfo@@@std@@@std@@PEAX@2@@Z 00000001800044e0 f i utils.obj
 0001:000034e0       ?_Rrotate@?$_Tree@V?$_Tmap_traits@V?$basic_string@_WU?$char_traits@_W@std@@V?$allocator@_W@2@@std@@V?$shared_ptr@Uname_t@DispObjectImpl@@@2@U?$less@V?$basic_string@_WU?$char_traits@_W@std@@V?$allocator@_W@2@@std@@@2@V?$allocator@U?$pair@$$CBV?$basic_string@_WU?$char_traits@_W@std@@V?$allocator@_W@2@@std@@V?$shared_ptr@Uname_t@DispObjectImpl@@@2@@std@@@2@$0A@@std@@@std@@IEAAXPEAU?$_Tree_node@U?$pair@$$CBV?$basic_string@_WU?$char_traits@_W@std@@V?$allocator@_W@2@@std@@V?$shared_ptr@Uname_t@DispObjectImpl@@@2@@std@@PEAX@2@@Z 00000001800044e0 f i utils.obj
 0001:00003540       ?_Lrotate@?$_Tree@V?$_Tmap_traits@JV?$shared_ptr@Utype_t@DispInfo@@@std@@U?$less@J@2@V?$allocator@U?$pair@$$CBJV?$shared_ptr@Utype_t@DispInfo@@@std@@@std@@@2@$0A@@std@@@std@@IEAAXPEAU?$_Tree_node@U?$pair@$$CBJV?$shared_ptr@Utype_t@DispInfo@@@std@@@std@@PEAX@2@@Z 0000000180004540 f i utils.obj
 0001:00003540       ?_Lrotate@?$_Tree@V?$_Tmap_traits@JV?$shared_ptr@Uname_t@DispObjectImpl@@@std@@U?$less@J@2@V?$allocator@U?$pair@$$CBJV?$shared_ptr@Uname_t@DispObjectImpl@@@std@@@std@@@2@$0A@@std@@@std@@IEAAXPEAU?$_Tree_node@U?$pair@$$CBJV?$shared_ptr@Uname_t@DispObjectImpl@@@std@@@std@@PEAX@2@@Z 0000000180004540 f i utils.obj
 0001:00003540       ?_Lrotate@?$_Tree@V?$_Tmap_traits@V?$basic_string@_WU?$char_traits@_W@std@@V?$allocator@_W@2@@std@@V?$shared_ptr@Uname_t@DispObjectImpl@@@2@U?$less@V?$basic_string@_WU?$char_traits@_W@std@@V?$allocator@_W@2@@std@@@2@V?$allocator@U?$pair@$$CBV?$basic_string@_WU?$char_traits@_W@std@@V?$allocator@_W@2@@std@@V?$shared_ptr@Uname_t@DispObjectImpl@@@2@@std@@@2@$0A@@std@@@std@@IEAAXPEAU?$_Tree_node@U?$pair@$$CBV?$basic_string@_WU?$char_traits@_W@std@@V?$allocator@_W@2@@std@@V?$shared_ptr@Uname_t@DispObjectImpl@@@2@@std@@PEAX@2@@Z 0000000180004540 f i utils.obj
 0001:000035a0       ?_Erase@?$_Tree@V?$_Tmap_traits@JV?$shared_ptr@Utype_t@DispInfo@@@std@@U?$less@J@2@V?$allocator@U?$pair@$$CBJV?$shared_ptr@Utype_t@DispInfo@@@std@@@std@@@2@$0A@@std@@@std@@IEAAXPEAU?$_Tree_node@U?$pair@$$CBJV?$shared_ptr@Utype_t@DispInfo@@@std@@@std@@PEAX@2@@Z 00000001800045a0 f i utils.obj
 0001:000035a0       ?_Erase@?$_Tree@V?$_Tmap_traits@JV?$shared_ptr@Uname_t@DispObjectImpl@@@std@@U?$less@J@2@V?$allocator@U?$pair@$$CBJV?$shared_ptr@Uname_t@DispObjectImpl@@@std@@@std@@@2@$0A@@std@@@std@@IEAAXPEAU?$_Tree_node@U?$pair@$$CBJV?$shared_ptr@Uname_t@DispObjectImpl@@@std@@@std@@PEAX@2@@Z 00000001800045a0 f i utils.obj
 0001:00003630       ?_Erase@?$_Tree@V?$_Tmap_traits@V?$basic_string@_WU?$char_traits@_W@std@@V?$allocator@_W@2@@std@@V?$shared_ptr@Uname_t@DispObjectImpl@@@2@U?$less@V?$basic_string@_WU?$char_traits@_W@std@@V?$allocator@_W@2@@std@@@2@V?$allocator@U?$pair@$$CBV?$basic_string@_WU?$char_traits@_W@std@@V?$allocator@_W@2@@std@@V?$shared_ptr@Uname_t@DispObjectImpl@@@2@@std@@@2@$0A@@std@@@std@@IEAAXPEAU?$_Tree_node@U?$pair@$$CBV?$basic_string@_WU?$char_traits@_W@std@@V?$allocator@_W@2@@std@@V?$shared_ptr@Uname_t@DispObjectImpl@@@2@@std@@PEAX@2@@Z 0000000180004630 f i utils.obj
 0001:00003770       ??$Enumerate@V<lambda_8d358ac099d63a162fde4e1faf93afcd>@@@DispInfo@@QEAA_NV<lambda_8d358ac099d63a162fde4e1faf93afcd>@@@Z 0000000180004770 f i utils.obj
 0001:00003820       ??$Unwrap@VDispObject@@@ObjectWrap@node@@SAPEAVDispObject@@V?$Local@VObject@v8@@@v8@@@Z 0000000180004820 f i utils.obj
 0001:000038a0       ??$sprintf_s@$0BAA@@@YAHAEAY0BAA@DPEBDZZ 00000001800048a0 f i utils.obj
 0001:00003900       ??$Variant2Int@K@@YAKAEBUtagVARIANT@@K@Z 0000000180004900 f i utils.obj
 0001:00003a60       ??$reset@Uname_t@DispObjectImpl@@@?$shared_ptr@Uname_t@DispObjectImpl@@@std@@QEAAXPEAUname_t@DispObjectImpl@@@Z 0000000180004a60 f i utils.obj
 0001:00003af0       ??$Variant2Int@J@@YAJAEBUtagVARIANT@@J@Z 0000000180004af0 f i utils.obj
 0001:00003c40       ??$PrepareType@V<lambda_8d358ac099d63a162fde4e1faf93afcd>@@@DispInfo@@QEAA_NPEAUITypeInfo@@V<lambda_8d358ac099d63a162fde4e1faf93afcd>@@@Z 0000000180004c40 f i utils.obj
 0001:00003e50       ??$_Insert_nohint@U?$pair@$$CBJV?$shared_ptr@Uname_t@DispObjectImpl@@@std@@@std@@U_Nil@2@@?$_Tree@V?$_Tmap_traits@JV?$shared_ptr@Uname_t@DispObjectImpl@@@std@@U?$less@J@2@V?$allocator@U?$pair@$$CBJV?$shared_ptr@Uname_t@DispObjectImpl@@@std@@@std@@@2@$0A@@std@@@std@@IEAA?AU?$pair@V?$_Tree_iterator@V?$_Tree_val@U?$_Tree_simple_types@U?$pair@$$CBJV?$shared_ptr@Uname_t@DispObjectImpl@@@std@@@std@@@std@@@std@@@std@@_N@1@_N$$QEAU?$pair@$$CBJV?$shared_ptr@Uname_t@DispObjectImpl@@@std@@@1@U_Nil@1@@Z 0000000180004e50 f i utils.obj
 0001:00003fa0       ??$_Try_emplace@AEBV?$basic_string@_WU?$char_traits@_W@std@@V?$allocator@_W@2@@std@@$$V@?$map@V?$basic_string@_WU?$char_traits@_W@std@@V?$allocator@_W@2@@std@@V?$shared_ptr@Uname_t@DispObjectImpl@@@2@U?$less@V?$basic_string@_WU?$char_traits@_W@std@@V?$allocator@_W@2@@std@@@2@V?$allocator@U?$pair@$$CBV?$basic_string@_WU?$char_traits@_W@std@@V?$allocator@_W@2@@std@@V?$shared_ptr@Uname_t@DispObjectImpl@@@2@@std@@@2@@std@@QEAA?AU?$pair@V?$_Tree_iterator@V?$_Tree_val@U?$_Tree_simple_types@U?$pair@$$CBV?$basic_string@_WU?$char_traits@_W@std@@V?$allocator@_W@2@@std@@V?$shared_ptr@Uname_t@DispObjectImpl@@@2@@std@@@std@@@std@@@std@@_N@1@AEBV?$basic_string@_WU?$char_traits@_W@std@@V?$allocator@_W@2@@1@@Z 0000000180004fa0 f i utils.obj
 0001:000040d0       ??1DispInfo@@QEAA@XZ       00000001800050d0 f i utils.obj
 0001:00004170       ?_Delete_this@?$_Ref_count@VDispInfo@@@std@@EEAAXXZ 0000000180005170 f i utils.obj
 0001:00004170       ?_Delete_this@?$_Ref_count@Utype_t@DispInfo@@@std@@EEAAXXZ 0000000180005170 f i utils.obj
 0001:00004170       ?_Delete_this@?$_Ref_count@Uname_t@DispObjectImpl@@@std@@EEAAXXZ 0000000180005170 f i utils.obj
 0001:00004190       ?_Destroy@?$_Ref_count@VDispInfo@@@std@@EEAAXXZ 0000000180005190 f i utils.obj
 0001:000041c0       ??R?$less@V?$basic_string@_WU?$char_traits@_W@std@@V?$allocator@_W@2@@std@@@std@@QEBA_NAEBV?$basic_string@_WU?$char_traits@_W@std@@V?$allocator@_W@2@@1@0@Z 00000001800051c0 f i utils.obj
 0001:00004200       ??_E?$_Ref_count@Utype_t@DispInfo@@@std@@UEAAPEAXI@Z 0000000180005200 f i * CIL library *:* CIL module *
 0001:00004200       ??_G?$_Ref_count@VDispInfo@@@std@@UEAAPEAXI@Z 0000000180005200 f i utils.obj
 0001:00004200       ??_E?$_Ref_count@Uname_t@DispObjectImpl@@@std@@UEAAPEAXI@Z 0000000180005200 f i * CIL library *:* CIL module *
 0001:00004200       ??_G?$_Ref_count@Utype_t@DispInfo@@@std@@UEAAPEAXI@Z 0000000180005200 f i utils.obj
 0001:00004200       ??_G?$_Ref_count@Uname_t@DispObjectImpl@@@std@@UEAAPEAXI@Z 0000000180005200 f i utils.obj
 0001:00004200       ??_E?$_Ref_count@VDispInfo@@@std@@UEAAPEAXI@Z 0000000180005200 f i * CIL library *:* CIL module *
 0001:00004230       ?_Reset0@?$_Ptr_base@VDispInfo@@@std@@QEAAXPEAVDispInfo@@PEAV_Ref_count_base@2@@Z 0000000180005230 f i utils.obj
 0001:00004230       ?_Reset0@?$_Ptr_base@Uname_t@DispObjectImpl@@@std@@QEAAXPEAUname_t@DispObjectImpl@@PEAV_Ref_count_base@2@@Z 0000000180005230 f i utils.obj
 0001:000042c0       ??$_Insert_at@U?$pair@$$CBJV?$shared_ptr@Uname_t@DispObjectImpl@@@std@@@std@@U_Nil@2@@?$_Tree@V?$_Tmap_traits@JV?$shared_ptr@Uname_t@DispObjectImpl@@@std@@U?$less@J@2@V?$allocator@U?$pair@$$CBJV?$shared_ptr@Uname_t@DispObjectImpl@@@std@@@std@@@2@$0A@@std@@@std@@IEAA?AV?$_Tree_iterator@V?$_Tree_val@U?$_Tree_simple_types@U?$pair@$$CBJV?$shared_ptr@Uname_t@DispObjectImpl@@@std@@@std@@@std@@@std@@@1@_NPEAU?$_Tree_node@U?$pair@$$CBJV?$shared_ptr@Uname_t@DispObjectImpl@@@std@@@std@@PEAX@1@$$QEAU?$pair@$$CBJV?$shared_ptr@Uname_t@DispObjectImpl@@@std@@@1@U_Nil@1@@Z 00000001800052c0 f i utils.obj
 0001:000045f0       ??$_Lbound@V?$basic_string@_WU?$char_traits@_W@std@@V?$allocator@_W@2@@std@@@?$_Tree@V?$_Tmap_traits@V?$basic_string@_WU?$char_traits@_W@std@@V?$allocator@_W@2@@std@@V?$shared_ptr@Uname_t@DispObjectImpl@@@2@U?$less@V?$basic_string@_WU?$char_traits@_W@std@@V?$allocator@_W@2@@std@@@2@V?$allocator@U?$pair@$$CBV?$basic_string@_WU?$char_traits@_W@std@@V?$allocator@_W@2@@std@@V?$shared_ptr@Uname_t@DispObjectImpl@@@2@@std@@@2@$0A@@std@@@std@@IEBAPEAU?$_Tree_node@U?$pair@$$CBV?$basic_string@_WU?$char_traits@_W@std@@V?$allocator@_W@2@@std@@V?$shared_ptr@Uname_t@DispObjectImpl@@@2@@std@@PEAX@1@AEBV?$basic_string@_WU?$char_traits@_W@std@@V?$allocator@_W@2@@1@@Z 00000001800055f0 f i utils.obj
 0001:000046b0       ?_Destroy@?$_Ref_count@Uname_t@DispObjectImpl@@@std@@EEAAXXZ 00000001800056b0 f i utils.obj
 0001:000046e0       ?_Destroy@?$_Ref_count@Utype_t@DispInfo@@@std@@EEAAXXZ 00000001800056e0 f i utils.obj
 0001:000046f0       ?_Traits_compare@?$basic_string@_WU?$char_traits@_W@std@@V?$allocator@_W@2@@std@@SAHQEB_W_K01@Z 00000001800056f0 f i utils.obj
 0001:00004780       ??$_Insert_hint@AEAU?$pair@$$CBJV?$shared_ptr@Utype_t@DispInfo@@@std@@@std@@PEAU?$_Tree_node@U?$pair@$$CBJV?$shared_ptr@Utype_t@DispInfo@@@std@@@std@@PEAX@2@@?$_Tree@V?$_Tmap_traits@JV?$shared_ptr@Utype_t@DispInfo@@@std@@U?$less@J@2@V?$allocator@U?$pair@$$CBJV?$shared_ptr@Utype_t@DispInfo@@@std@@@std@@@2@$0A@@std@@@std@@IEAA?AV?$_Tree_iterator@V?$_Tree_val@U?$_Tree_simple_types@U?$pair@$$CBJV?$shared_ptr@Utype_t@DispInfo@@@std@@@std@@@std@@@std@@@1@V?$_Tree_const_iterator@V?$_Tree_val@U?$_Tree_simple_types@U?$pair@$$CBJV?$shared_ptr@Utype_t@DispInfo@@@std@@@std@@@std@@@std@@@1@AEAU?$pair@$$CBJV?$shared_ptr@Utype_t@DispInfo@@@std@@@1@PEAU?$_Tree_node@U?$pair@$$CBJV?$shared_ptr@Utype_t@DispInfo@@@std@@@std@@PEAX@1@@Z 0000000180005780 f i utils.obj
 0001:00004990       ??$_Insert_hint@AEAU?$pair@$$CBV?$basic_string@_WU?$char_traits@_W@std@@V?$allocator@_W@2@@std@@V?$shared_ptr@Uname_t@DispObjectImpl@@@2@@std@@PEAU?$_Tree_node@U?$pair@$$CBV?$basic_string@_WU?$char_traits@_W@std@@V?$allocator@_W@2@@std@@V?$shared_ptr@Uname_t@DispObjectImpl@@@2@@std@@PEAX@2@@?$_Tree@V?$_Tmap_traits@V?$basic_string@_WU?$char_traits@_W@std@@V?$allocator@_W@2@@std@@V?$shared_ptr@Uname_t@DispObjectImpl@@@2@U?$less@V?$basic_string@_WU?$char_traits@_W@std@@V?$allocator@_W@2@@std@@@2@V?$allocator@U?$pair@$$CBV?$basic_string@_WU?$char_traits@_W@std@@V?$allocator@_W@2@@std@@V?$shared_ptr@Uname_t@DispObjectImpl@@@2@@std@@@2@$0A@@std@@@std@@IEAA?AV?$_Tree_iterator@V?$_Tree_val@U?$_Tree_simple_types@U?$pair@$$CBV?$basic_string@_WU?$char_traits@_W@std@@V?$allocator@_W@2@@std@@V?$shared_ptr@Uname_t@DispObjectImpl@@@2@@std@@@std@@@std@@@1@V?$_Tree_const_iterator@V?$_Tree_val@U?$_Tree_simple_types@U?$pair@$$CBV?$basic_string@_WU?$char_traits@_W@std@@V?$allocator@_W@2@@std@@V?$shared_ptr@Uname_t@DispObjectImpl@@@2@@std@@@std@@@std@@@1@AEAU?$pair@$$CBV?$basic_string@_WU?$char_traits@_W@std@@V?$allocator@_W@2@@std@@V?$shared_ptr@Uname_t@DispObjectImpl@@@2@@1@PEAU?$_Tree_node@U?$pair@$$CBV?$basic_string@_WU?$char_traits@_W@std@@V?$allocator@_W@2@@std@@V?$shared_ptr@Uname_t@DispObjectImpl@@@2@@std@@PEAX@1@@Z 0000000180005990 f i utils.obj
 0001:00004be0       ??F?$_Tree_const_iterator@V?$_Tree_val@U?$_Tree_simple_types@U?$pair@$$CBV?$basic_string@_WU?$char_traits@_W@std@@V?$allocator@_W@2@@std@@V?$shared_ptr@Uname_t@DispObjectImpl@@@2@@std@@@std@@@std@@@std@@QEAAAEAV01@XZ 0000000180005be0 f i utils.obj
 0001:00004be0       ??F?$_Tree_const_iterator@V?$_Tree_val@U?$_Tree_simple_types@U?$pair@$$CBJV?$shared_ptr@Utype_t@DispInfo@@@std@@@std@@@std@@@std@@@std@@QEAAAEAV01@XZ 0000000180005be0 f i utils.obj
 0001:00004c60       ?_Destroy_if_not_nil@?$_Tree@V?$_Tmap_traits@JV?$shared_ptr@Utype_t@DispInfo@@@std@@U?$less@J@2@V?$allocator@U?$pair@$$CBJV?$shared_ptr@Utype_t@DispInfo@@@std@@@std@@@2@$0A@@std@@@std@@IEAAXPEAU?$_Tree_node@U?$pair@$$CBJV?$shared_ptr@Utype_t@DispInfo@@@std@@@std@@PEAX@2@@Z 0000000180005c60 f i utils.obj
 0001:00004cc0       ?_Destroy_if_not_nil@?$_Tree@V?$_Tmap_traits@V?$basic_string@_WU?$char_traits@_W@std@@V?$allocator@_W@2@@std@@V?$shared_ptr@Uname_t@DispObjectImpl@@@2@U?$less@V?$basic_string@_WU?$char_traits@_W@std@@V?$allocator@_W@2@@std@@@2@V?$allocator@U?$pair@$$CBV?$basic_string@_WU?$char_traits@_W@std@@V?$allocator@_W@2@@std@@V?$shared_ptr@Uname_t@DispObjectImpl@@@2@@std@@@2@$0A@@std@@@std@@IEAAXPEAU?$_Tree_node@U?$pair@$$CBV?$basic_string@_WU?$char_traits@_W@std@@V?$allocator@_W@2@@std@@V?$shared_ptr@Uname_t@DispObjectImpl@@@2@@std@@PEAX@2@@Z 0000000180005cc0 f i utils.obj
 0001:00004d30       ??$_Insert_at@AEAU?$pair@$$CBJV?$shared_ptr@Utype_t@DispInfo@@@std@@@std@@PEAU?$_Tree_node@U?$pair@$$CBJV?$shared_ptr@Utype_t@DispInfo@@@std@@@std@@PEAX@2@@?$_Tree@V?$_Tmap_traits@JV?$shared_ptr@Utype_t@DispInfo@@@std@@U?$less@J@2@V?$allocator@U?$pair@$$CBJV?$shared_ptr@Utype_t@DispInfo@@@std@@@std@@@2@$0A@@std@@@std@@IEAA?AV?$_Tree_iterator@V?$_Tree_val@U?$_Tree_simple_types@U?$pair@$$CBJV?$shared_ptr@Utype_t@DispInfo@@@std@@@std@@@std@@@std@@@1@_NPEAU?$_Tree_node@U?$pair@$$CBJV?$shared_ptr@Utype_t@DispInfo@@@std@@@std@@PEAX@1@AEAU?$pair@$$CBJV?$shared_ptr@Utype_t@DispInfo@@@std@@@1@1@Z 0000000180005d30 f i utils.obj
 0001:00005030       ??$_Insert_nohint@AEAU?$pair@$$CBJV?$shared_ptr@Utype_t@DispInfo@@@std@@@std@@PEAU?$_Tree_node@U?$pair@$$CBJV?$shared_ptr@Utype_t@DispInfo@@@std@@@std@@PEAX@2@@?$_Tree@V?$_Tmap_traits@JV?$shared_ptr@Utype_t@DispInfo@@@std@@U?$less@J@2@V?$allocator@U?$pair@$$CBJV?$shared_ptr@Utype_t@DispInfo@@@std@@@std@@@2@$0A@@std@@@std@@IEAA?AU?$pair@V?$_Tree_iterator@V?$_Tree_val@U?$_Tree_simple_types@U?$pair@$$CBJV?$shared_ptr@Utype_t@DispInfo@@@std@@@std@@@std@@@std@@@std@@_N@1@_NAEAU?$pair@$$CBJV?$shared_ptr@Utype_t@DispInfo@@@std@@@1@PEAU?$_Tree_node@U?$pair@$$CBJV?$shared_ptr@Utype_t@DispInfo@@@std@@@std@@PEAX@1@@Z 0000000180006030 f i utils.obj
 0001:00005150       ??$_Insert_at@AEAU?$pair@$$CBV?$basic_string@_WU?$char_traits@_W@std@@V?$allocator@_W@2@@std@@V?$shared_ptr@Uname_t@DispObjectImpl@@@2@@std@@PEAU?$_Tree_node@U?$pair@$$CBV?$basic_string@_WU?$char_traits@_W@std@@V?$allocator@_W@2@@std@@V?$shared_ptr@Uname_t@DispObjectImpl@@@2@@std@@PEAX@2@@?$_Tree@V?$_Tmap_traits@V?$basic_string@_WU?$char_traits@_W@std@@V?$allocator@_W@2@@std@@V?$shared_ptr@Uname_t@DispObjectImpl@@@2@U?$less@V?$basic_string@_WU?$char_traits@_W@std@@V?$allocator@_W@2@@std@@@2@V?$allocator@U?$pair@$$CBV?$basic_string@_WU?$char_traits@_W@std@@V?$allocator@_W@2@@std@@V?$shared_ptr@Uname_t@DispObjectImpl@@@2@@std@@@2@$0A@@std@@@std@@IEAA?AV?$_Tree_iterator@V?$_Tree_val@U?$_Tree_simple_types@U?$pair@$$CBV?$basic_string@_WU?$char_traits@_W@std@@V?$allocator@_W@2@@std@@V?$shared_ptr@Uname_t@DispObjectImpl@@@2@@std@@@std@@@std@@@1@_NPEAU?$_Tree_node@U?$pair@$$CBV?$basic_string@_WU?$char_traits@_W@std@@V?$allocator@_W@2@@std@@V?$shared_ptr@Uname_t@DispObjectImpl@@@2@@std@@PEAX@1@AEAU?$pair@$$CBV?$basic_string@_WU?$char_traits@_W@std@@V?$allocator@_W@2@@std@@V?$shared_ptr@Uname_t@DispObjectImpl@@@2@@1@1@Z 0000000180006150 f i utils.obj
 0001:00005460       ??$_Insert_nohint@AEAU?$pair@$$CBV?$basic_string@_WU?$char_traits@_W@std@@V?$allocator@_W@2@@std@@V?$shared_ptr@Uname_t@DispObjectImpl@@@2@@std@@PEAU?$_Tree_node@U?$pair@$$CBV?$basic_string@_WU?$char_traits@_W@std@@V?$allocator@_W@2@@std@@V?$shared_ptr@Uname_t@DispObjectImpl@@@2@@std@@PEAX@2@@?$_Tree@V?$_Tmap_traits@V?$basic_string@_WU?$char_traits@_W@std@@V?$allocator@_W@2@@std@@V?$shared_ptr@Uname_t@DispObjectImpl@@@2@U?$less@V?$basic_string@_WU?$char_traits@_W@std@@V?$allocator@_W@2@@std@@@2@V?$allocator@U?$pair@$$CBV?$basic_string@_WU?$char_traits@_W@std@@V?$allocator@_W@2@@std@@V?$shared_ptr@Uname_t@DispObjectImpl@@@2@@std@@@2@$0A@@std@@@std@@IEAA?AU?$pair@V?$_Tree_iterator@V?$_Tree_val@U?$_Tree_simple_types@U?$pair@$$CBV?$basic_string@_WU?$char_traits@_W@std@@V?$allocator@_W@2@@std@@V?$shared_ptr@Uname_t@DispObjectImpl@@@2@@std@@@std@@@std@@@std@@_N@1@_NAEAU?$pair@$$CBV?$basic_string@_WU?$char_traits@_W@std@@V?$allocator@_W@2@@std@@V?$shared_ptr@Uname_t@DispObjectImpl@@@2@@1@PEAU?$_Tree_node@U?$pair@$$CBV?$basic_string@_WU?$char_traits@_W@std@@V?$allocator@_W@2@@std@@V?$shared_ptr@Uname_t@DispObjectImpl@@@2@@std@@PEAX@1@@Z 0000000180006460 f i utils.obj
 0001:00005660       ?Wrap@ObjectWrap@node@@IEAAXV?$Local@VObject@v8@@@v8@@@Z 0000000180006660 f i disp.obj
 0001:00005740       ?Ref@ObjectWrap@node@@MEAAXXZ 0000000180006740 f i disp.obj
 0001:00005780       ?Unref@ObjectWrap@node@@MEAAXXZ 0000000180006780 f i disp.obj
 0001:00005830       ?WeakCallback@ObjectWrap@node@@CAXAEBV?$WeakCallbackInfo@VObjectWrap@node@@@v8@@@Z 0000000180006830 f i disp.obj
 0001:00005890       ??_GObjectWrap@node@@UEAAPEAXI@Z 0000000180006890 f i disp.obj
 0001:00005890       ??_EObjectWrap@node@@UEAAPEAXI@Z 0000000180006890 f i * CIL library *:* CIL module *
 0001:00005920       ?DispError@@YA?AV?$Local@VValue@v8@@@v8@@PEAVIsolate@2@JPEB_W1@Z 0000000180006920 f i disp.obj
 0001:000059f0       ?DispInvoke@@YAJPEAUIDispatch@@JIPEAUtagVARIANT@@1G@Z 00000001800069f0 f i disp.obj
 0001:00005a70       ?v8val2bool@@YA_NAEBV?$Local@VValue@v8@@@v8@@_N@Z 0000000180006a70 f i disp.obj
 0001:00005b00       ?GetProperty@DispInfo@@QEAAJJJPEAUtagVARIANT@@@Z 0000000180006b00 f i disp.obj
 0001:00005bb0       ??_GDispObject@@UEAAPEAXI@Z 0000000180006bb0 f i disp.obj
 0001:00005bb0       ??_EDispObject@@UEAAPEAXI@Z 0000000180006bb0 f i * CIL library *:* CIL module *
 0001:00005bf0       ??1DispObject@@UEAA@XZ     0000000180006bf0 f   disp.obj
 0001:00005cc0       ?prepare@DispObject@@AEAAJXZ 0000000180006cc0 f   disp.obj
 0001:00005e70       ?get@DispObject@@IEAA_NPEA_WJAEBV?$PropertyCallbackInfo@VValue@v8@@@v8@@@Z 0000000180006e70 f   disp.obj
 0001:00006810       ?set@DispObject@@IEAA_NPEA_WJAEBV?$Local@VValue@v8@@@v8@@AEBV?$PropertyCallbackInfo@VValue@v8@@@3@@Z 0000000180007810 f   disp.obj
 0001:00006e90       ?call@DispObject@@IEAAXPEAVIsolate@v8@@AEBV?$FunctionCallbackInfo@VValue@v8@@@3@@Z 0000000180007e90 f   disp.obj
 0001:000073f0       ?valueOf@DispObject@@IEAAJPEAVIsolate@v8@@AEAUtagVARIANT@@@Z 00000001800083f0 f   disp.obj
 0001:000074a0       ?valueOf@DispObject@@IEAAJPEAVIsolate@v8@@AEBV?$Local@VObject@v8@@@3@AEAV?$Local@VValue@v8@@@3@@Z 00000001800084a0 f   disp.obj
 0001:00007620       ?toString@DispObject@@IEAAXAEBV?$FunctionCallbackInfo@VValue@v8@@@v8@@@Z 0000000180008620 f   disp.obj
 0001:000077e0       ?getIdentity@DispObject@@IEAA?AV?$Local@VValue@v8@@@v8@@PEAVIsolate@3@@Z 00000001800087e0 f   disp.obj
 0001:00007ca0       ?NodeInit@DispObject@@SAXAEBV?$Local@VObject@v8@@@v8@@@Z 0000000180008ca0 f   disp.obj
 0001:00008110       ?NodeCreate@DispObject@@CAXAEBV?$FunctionCallbackInfo@VValue@v8@@@v8@@@Z 0000000180009110 f   disp.obj
 0001:00008990       ?NodeGet@DispObject@@CAXV?$Local@VString@v8@@@v8@@AEBV?$PropertyCallbackInfo@VValue@v8@@@3@@Z 0000000180009990 f   disp.obj
 0001:00008d30       ?NodeGetByIndex@DispObject@@CAXIAEBV?$PropertyCallbackInfo@VValue@v8@@@v8@@@Z 0000000180009d30 f   disp.obj
 0001:00008dc0       ?NodeSet@DispObject@@CAXV?$Local@VString@v8@@@v8@@V?$Local@VValue@v8@@@3@AEBV?$PropertyCallbackInfo@VValue@v8@@@3@@Z 0000000180009dc0 f   disp.obj
 0001:00008e90       ?NodeSetByIndex@DispObject@@CAXIV?$Local@VValue@v8@@@v8@@AEBV?$PropertyCallbackInfo@VValue@v8@@@3@@Z 0000000180009e90 f   disp.obj
 0001:00008f20       ?NodeCall@DispObject@@CAXAEBV?$FunctionCallbackInfo@VValue@v8@@@v8@@@Z 0000000180009f20 f   disp.obj
 0001:00008fb0       ?NodeValueOf@DispObject@@CAXAEBV?$FunctionCallbackInfo@VValue@v8@@@v8@@@Z 0000000180009fb0 f   disp.obj
 0001:000090c0       ?NodeToString@DispObject@@CAXAEBV?$FunctionCallbackInfo@VValue@v8@@@v8@@@Z 000000018000a0c0 f   disp.obj
 0001:00009150       ?NodeRelease@DispObject@@CAXAEBV?$FunctionCallbackInfo@VValue@v8@@@v8@@@Z 000000018000a150 f   disp.obj
 0001:000092e0       ?resize@?$vector@VCComVariant@@V?$allocator@VCComVariant@@@std@@@std@@QEAAX_K@Z 000000018000a2e0 f i disp.obj
 0001:000093f0       ?reserve@?$basic_string@_WU?$char_traits@_W@std@@V?$allocator@_W@2@@std@@QEAAX_K@Z 000000018000a3f0 f i disp.obj
 0001:000094b0       ?_Tidy@?$vector@VCComVariant@@V?$allocator@VCComVariant@@@std@@@std@@IEAAXXZ 000000018000a4b0 f i disp.obj
 0001:000095a0       ?_Reserve@?$vector@VCComVariant@@V?$allocator@VCComVariant@@@std@@@std@@IEAAX_K@Z 000000018000a5a0 f i disp.obj
 0001:00009670       ?insert@?$basic_string@_WU?$char_traits@_W@std@@V?$allocator@_W@2@@std@@QEAAAEAV12@_KPEB_W0@Z 000000018000a670 f i disp.obj
 0001:00009810       ?insert@?$basic_string@_WU?$char_traits@_W@std@@V?$allocator@_W@2@@std@@QEAAAEAV12@_KAEBV12@00@Z 000000018000a810 f i disp.obj
 0001:000099c0       ?_Reallocate@?$vector@VCComVariant@@V?$allocator@VCComVariant@@@std@@@std@@IEAAX_K@Z 000000018000a9c0 f i disp.obj
 0001:00009b90       ?append@?$basic_string@_WU?$char_traits@_W@std@@V?$allocator@_W@2@@std@@QEAAAEAV12@PEB_W_K@Z 000000018000ab90 f i disp.obj
 0001:00009d00       ?append@?$basic_string@_WU?$char_traits@_W@std@@V?$allocator@_W@2@@std@@QEAAAEAV12@AEBV12@_K1@Z 000000018000ad00 f i disp.obj
 0001:00009e30       ??$reset@VDispInfo@@@?$shared_ptr@VDispInfo@@@std@@QEAAXPEAVDispInfo@@@Z 000000018000ae30 f i disp.obj
 0001:00009ec0       ??$Enumerate@V<lambda_898e84f45c2b961b8b7afcc5a4be41f0>@@@DispInfo@@QEAA_NV<lambda_898e84f45c2b961b8b7afcc5a4be41f0>@@@Z 000000018000aec0 f i disp.obj
 0001:0000a05c       __imp_load_node_module_register 000000018000b05c f   node:node.exe
 0001:0000a068       __tailMerge_node_exe       000000018000b068 f i node:node.exe
 0001:0000a0e1       __imp_load_?New@Integer@v8@@SA?AV?$Local@VInteger@v8@@@2@PEAVIsolate@2@H@Z 000000018000b0e1 f   node:node.exe
 0001:0000a0ed       __imp_load_?GetCurrent@Isolate@v8@@SAPEAV12@XZ 000000018000b0ed f   node:node.exe
 0001:0000a0f9       __imp_load_?CreateHandle@HandleScope@v8@@KAPEAPEAVObject@internal@2@PEAVIsolate@42@PEAV342@@Z 000000018000b0f9 f   node:node.exe
 0001:0000a105       __imp_load_?New@Array@v8@@SA?AV?$Local@VArray@v8@@@2@PEAVIsolate@2@H@Z 000000018000b105 f   node:node.exe
 0001:0000a111       __imp_load_?New@Date@v8@@SA?AV?$Local@VValue@v8@@@2@PEAVIsolate@2@N@Z 000000018000b111 f   node:node.exe
 0001:0000a11d       __imp_load_?HasInstance@FunctionTemplate@v8@@QEAA_NV?$Local@VValue@v8@@@2@@Z 000000018000b11d f   node:node.exe
 0001:0000a129       __imp_load_?DisposeGlobal@V8@v8@@CAXPEAPEAVObject@internal@2@@Z 000000018000b129 f   node:node.exe
 0001:0000a135       __imp_load_?GlobalizeReference@V8@v8@@CAPEAPEAVObject@internal@2@PEAVIsolate@42@PEAPEAV342@@Z 000000018000b135 f   node:node.exe
 0001:0000a141       __imp_load_?Int32Value@Value@v8@@QEBAHXZ 000000018000b141 f   node:node.exe
 0001:0000a14d       __imp_load_?Uint32Value@Value@v8@@QEBAIXZ 000000018000b14d f   node:node.exe
 0001:0000a159       __imp_load_?NumberValue@Value@v8@@QEBANXZ 000000018000b159 f   node:node.exe
 0001:0000a165       __imp_load_?BooleanValue@Value@v8@@QEBA_NXZ 000000018000b165 f   node:node.exe
 0001:0000a171       __imp_load_?IsDate@Value@v8@@QEBA_NXZ 000000018000b171 f   node:node.exe
 0001:0000a17d       __imp_load_?IsUint32@Value@v8@@QEBA_NXZ 000000018000b17d f   node:node.exe
 0001:0000a189       __imp_load_?IsInt32@Value@v8@@QEBA_NXZ 000000018000b189 f   node:node.exe
 0001:0000a195       __imp_load_?IsNumber@Value@v8@@QEBA_NXZ 000000018000b195 f   node:node.exe
 0001:0000a1a1       __imp_load_?IsBoolean@Value@v8@@QEBA_NXZ 000000018000b1a1 f   node:node.exe
 0001:0000a1ad       __imp_load_?IsObject@Value@v8@@QEBA_NXZ 000000018000b1ad f   node:node.exe
 0001:0000a1b9       __imp_load_?IsFunction@Value@v8@@QEBA_NXZ 000000018000b1b9 f   node:node.exe
 0001:0000a1c5       __imp_load_??1Value@String@v8@@QEAA@XZ 000000018000b1c5 f   node:node.exe
 0001:0000a1d1       __imp_load_??0Value@String@v8@@QEAA@V?$Local@VValue@v8@@@2@@Z 000000018000b1d1 f   node:node.exe
 0001:0000a1dd       __imp_load_?NewFromTwoByte@String@v8@@SA?AV?$Local@VString@v8@@@2@PEAVIsolate@2@PEBGW4NewStringType@12@H@Z 000000018000b1dd f   node:node.exe
 0001:0000a1e9       __imp_load_?NewFromUtf8@String@v8@@SA?AV?$Local@VString@v8@@@2@PEAVIsolate@2@PEBDW4NewStringType@12@H@Z 000000018000b1e9 f   node:node.exe
 0001:0000a1f5       __imp_load_?New@Number@v8@@SA?AV?$Local@VNumber@v8@@@2@PEAVIsolate@2@N@Z 000000018000b1f5 f   node:node.exe
 0001:0000a201       __imp_load_?SlowGetAlignedPointerFromInternalField@Object@v8@@AEAAPEAXH@Z 000000018000b201 f   node:node.exe
 0001:0000a20d       __imp_load_?InternalFieldCount@Object@v8@@QEAAHXZ 000000018000b20d f   node:node.exe
 0001:0000a219       __imp_load_?Get@Object@v8@@QEAA?AV?$Local@VValue@v8@@@2@V32@@Z 000000018000b219 f   node:node.exe
 0001:0000a225       __imp_load_?Get@Object@v8@@QEAA?AV?$Local@VValue@v8@@@2@I@Z 000000018000b225 f   node:node.exe
 0001:0000a231       __imp_load_?Set@Object@v8@@QEAA_NV?$Local@VValue@v8@@@2@0@Z 000000018000b231 f   node:node.exe
 0001:0000a23d       __imp_load_?Set@Object@v8@@QEAA_NIV?$Local@VValue@v8@@@2@@Z 000000018000b23d f   node:node.exe
 0001:0000a249       __imp_load_?Call@Function@v8@@QEAA?AV?$Local@VValue@v8@@@2@V32@HQEAV32@@Z 000000018000b249 f   node:node.exe
 0001:0000a255       __imp_load_?ToObject@Value@v8@@QEBA?AV?$Local@VObject@v8@@@2@XZ 000000018000b255 f   node:node.exe
 0001:0000a261       __imp_load_?New@Signature@v8@@SA?AV?$Local@VSignature@v8@@@2@PEAVIsolate@2@V?$Local@VFunctionTemplate@v8@@@2@@Z 000000018000b261 f   node:node.exe
 0001:0000a26d       __imp_load_?ThrowException@Isolate@v8@@QEAA?AV?$Local@VValue@v8@@@2@V32@@Z 000000018000b26d f   node:node.exe
 0001:0000a279       __imp_load_?GetCurrentContext@Isolate@v8@@QEAA?AV?$Local@VContext@v8@@@2@XZ 000000018000b279 f   node:node.exe
 0001:0000a285       __imp_load_??1HandleScope@v8@@QEAA@XZ 000000018000b285 f   node:node.exe
 0001:0000a291       __imp_load_??0HandleScope@v8@@QEAA@PEAVIsolate@1@@Z 000000018000b291 f   node:node.exe
 0001:0000a29d       __imp_load_?SetNativeDataProperty@Template@v8@@QEAAXV?$Local@VString@v8@@@2@P6AX0AEBV?$PropertyCallbackInfo@VValue@v8@@@2@@ZP6AX0V?$Local@VValue@v8@@@2@AEBV?$PropertyCallbackInfo@X@2@@Z3W4PropertyAttribute@2@V?$Local@VAccessorSignature@v8@@@2@W4AccessControl@2@@Z 000000018000b29d f   node:node.exe
 0001:0000a2a9       __imp_load_?Set@Template@v8@@QEAAXV?$Local@VName@v8@@@2@V?$Local@VData@v8@@@2@W4PropertyAttribute@2@@Z 000000018000b2a9 f   node:node.exe
 0001:0000a2b5       __imp_load_?Error@Exception@v8@@SA?AV?$Local@VValue@v8@@@2@V?$Local@VString@v8@@@2@@Z 000000018000b2b5 f   node:node.exe
 0001:0000a2c1       __imp_load_?TypeError@Exception@v8@@SA?AV?$Local@VValue@v8@@@2@V?$Local@VString@v8@@@2@@Z 000000018000b2c1 f   node:node.exe
 0001:0000a2cd       __imp_load_?SetClassName@FunctionTemplate@v8@@QEAAXV?$Local@VString@v8@@@2@@Z 000000018000b2cd f   node:node.exe
 0001:0000a2d9       __imp_load_?PrototypeTemplate@FunctionTemplate@v8@@QEAA?AV?$Local@VObjectTemplate@v8@@@2@XZ 000000018000b2d9 f   node:node.exe
 0001:0000a2e5       __imp_load_?InstanceTemplate@FunctionTemplate@v8@@QEAA?AV?$Local@VObjectTemplate@v8@@@2@XZ 000000018000b2e5 f   node:node.exe
 0001:0000a2f1       __imp_load_?GetFunction@FunctionTemplate@v8@@QEAA?AV?$Local@VFunction@v8@@@2@XZ 000000018000b2f1 f   node:node.exe
 0001:0000a2fd       __imp_load_?New@FunctionTemplate@v8@@SA?AV?$Local@VFunctionTemplate@v8@@@2@PEAVIsolate@2@P6AXAEBV?$FunctionCallbackInfo@VValue@v8@@@2@@ZV?$Local@VValue@v8@@@2@V?$Local@VSignature@v8@@@2@HW4ConstructorBehavior@2@@Z 000000018000b2fd f   node:node.exe
 0001:0000a309       __imp_load_?ToLocalEmpty@V8@v8@@CAXXZ 000000018000b309 f   node:node.exe
 0001:0000a315       __imp_load_?ClearWeak@V8@v8@@CAPEAXPEAPEAVObject@internal@2@@Z 000000018000b315 f   node:node.exe
 0001:0000a321       __imp_load_?MakeWeak@V8@v8@@CAXPEAPEAVObject@internal@2@PEAXP6AXAEBV?$WeakCallbackInfo@X@2@@ZW4WeakCallbackType@2@@Z 000000018000b321 f   node:node.exe
 0001:0000a32d       __imp_load_?New@Object@v8@@SA?AV?$Local@VObject@v8@@@2@PEAVIsolate@2@@Z 000000018000b32d f   node:node.exe
 0001:0000a339       __imp_load_?GetIsolate@Object@v8@@QEAAPEAVIsolate@2@XZ 000000018000b339 f   node:node.exe
 0001:0000a345       __imp_load_?SetAlignedPointerInInternalField@Object@v8@@QEAAXHPEAX@Z 000000018000b345 f   node:node.exe
 0001:0000a351       __imp_load_?NewInstance@Function@v8@@QEBA?AV?$MaybeLocal@VObject@v8@@@2@V?$Local@VContext@v8@@@2@HQEAV?$Local@VValue@v8@@@2@@Z 000000018000b351 f   node:node.exe
 0001:0000a35d       __imp_load_?SetInternalFieldCount@ObjectTemplate@v8@@QEAAXH@Z 000000018000b35d f   node:node.exe
 0001:0000a369       __imp_load_?SetCallAsFunctionHandler@ObjectTemplate@v8@@QEAAXP6AXAEBV?$FunctionCallbackInfo@VValue@v8@@@2@@ZV?$Local@VValue@v8@@@2@@Z 000000018000b369 f   node:node.exe
 0001:0000a375       __imp_load_?SetNamedPropertyHandler@ObjectTemplate@v8@@QEAAXP6AXV?$Local@VString@v8@@@2@AEBV?$PropertyCallbackInfo@VValue@v8@@@2@@ZP6AX0V?$Local@VValue@v8@@@2@1@ZP6AX0AEBV?$PropertyCallbackInfo@VInteger@v8@@@2@@ZP6AX0AEBV?$PropertyCallbackInfo@VBoolean@v8@@@2@@ZP6AXAEBV?$PropertyCallbackInfo@VArray@v8@@@2@@Z3@Z 000000018000b375 f   node:node.exe
 0001:0000a381       __imp_load_?NewInstance@ObjectTemplate@v8@@QEAA?AV?$Local@VObject@v8@@@2@XZ 000000018000b381 f   node:node.exe
 0001:0000a38d       __imp_load_?ToString@Value@v8@@QEBA?AV?$Local@VString@v8@@@2@XZ 000000018000b38d f   node:node.exe
 0001:0000a399       __imp_load_?SetIndexedPropertyHandler@ObjectTemplate@v8@@QEAAXP6AXIAEBV?$PropertyCallbackInfo@VValue@v8@@@2@@ZP6AXIV?$Local@VValue@v8@@@2@0@ZP6AXIAEBV?$PropertyCallbackInfo@VInteger@v8@@@2@@ZP6AXIAEBV?$PropertyCallbackInfo@VBoolean@v8@@@2@@ZP6AXAEBV?$PropertyCallbackInfo@VArray@v8@@@2@@Z2@Z 000000018000b399 f   node:node.exe
 0001:0000a3a8       ??0bad_alloc@std@@QEAA@AEBV01@@Z 000000018000b3a8 f i libcpmt:xthrow.obj
 0001:0000a3e8       ??0bad_alloc@std@@QEAA@XZ  000000018000b3e8 f i libcpmt:xthrow.obj
 0001:0000a408       ??0exception@std@@QEAA@AEBV01@@Z 000000018000b408 f i libcpmt:xthrow.obj
 0001:0000a440       ??0length_error@std@@QEAA@AEBV01@@Z 000000018000b440 f i libcpmt:xthrow.obj
 0001:0000a480       ??0length_error@std@@QEAA@PEBD@Z 000000018000b480 f i libcpmt:xthrow.obj
 0001:0000a4cc       ??0logic_error@std@@QEAA@AEBV01@@Z 000000018000b4cc f i libcpmt:xthrow.obj
 0001:0000a50c       ??0out_of_range@std@@QEAA@AEBV01@@Z 000000018000b50c f i libcpmt:xthrow.obj
 0001:0000a54c       ??0out_of_range@std@@QEAA@PEBD@Z 000000018000b54c f i libcpmt:xthrow.obj
 0001:0000a598       ??1bad_array_new_length@std@@UEAA@XZ 000000018000b598 f i LIBCMT:throw_bad_alloc.obj
 0001:0000a598       ??1length_error@std@@UEAA@XZ 000000018000b598 f i libcpmt:xthrow.obj
 0001:0000a598       ??1out_of_range@std@@UEAA@XZ 000000018000b598 f i libcpmt:xthrow.obj
 0001:0000a598       ??1bad_alloc@std@@UEAA@XZ  000000018000b598 f i libcpmt:xthrow.obj
 0001:0000a5ac       ??_Elength_error@std@@UEAAPEAXI@Z 000000018000b5ac f i libcpmt:xthrow.obj
 0001:0000a5ac       ??_Glength_error@std@@UEAAPEAXI@Z 000000018000b5ac f i libcpmt:xthrow.obj
 0001:0000a5ac       ??_Gbad_array_new_length@std@@UEAAPEAXI@Z 000000018000b5ac f i LIBCMT:throw_bad_alloc.obj
 0001:0000a5ac       ??_Eout_of_range@std@@UEAAPEAXI@Z 000000018000b5ac f i libcpmt:xthrow.obj
 0001:0000a5ac       ??_Elogic_error@std@@UEAAPEAXI@Z 000000018000b5ac f i libcpmt:xthrow.obj
 0001:0000a5ac       ??_Glogic_error@std@@UEAAPEAXI@Z 000000018000b5ac f i libcpmt:xthrow.obj
 0001:0000a5ac       ??_Ebad_alloc@std@@UEAAPEAXI@Z 000000018000b5ac f i libcpmt:xthrow.obj
 0001:0000a5ac       ??_Eexception@std@@UEAAPEAXI@Z 000000018000b5ac f i libcpmt:xthrow.obj
 0001:0000a5ac       ??_Ebad_array_new_length@std@@UEAAPEAXI@Z 000000018000b5ac f i LIBCMT:throw_bad_alloc.obj
 0001:0000a5ac       ??_Gbad_alloc@std@@UEAAPEAXI@Z 000000018000b5ac f i libcpmt:xthrow.obj
 0001:0000a5ac       ??_Gout_of_range@std@@UEAAPEAXI@Z 000000018000b5ac f i libcpmt:xthrow.obj
 0001:0000a5ac       ??_Gexception@std@@UEAAPEAXI@Z 000000018000b5ac f i libcpmt:xthrow.obj
 0001:0000a5f0       ?_Xbad_alloc@std@@YAXXZ    000000018000b5f0 f   libcpmt:xthrow.obj
 0001:0000a5f0       ?__scrt_throw_std_bad_alloc@@YAXXZ 000000018000b5f0 f   LIBCMT:throw_bad_alloc.obj
 0001:0000a610       ?_Xlength_error@std@@YAXPEBD@Z 000000018000b610 f   libcpmt:xthrow.obj
 0001:0000a634       ?_Xout_of_range@std@@YAXPEBD@Z 000000018000b634 f   libcpmt:xthrow.obj
 0001:0000a658       ?what@exception@std@@UEBAPEBDXZ 000000018000b658 f i libcpmt:xthrow.obj
 0001:0000a680       __security_check_cookie    000000018000b680 f   LIBCMT:_amdsecgs_.obj
 0001:0000a6a4       ??2@YAPEAX_K@Z             000000018000b6a4 f   LIBCMT:new_scalar.obj
 0001:0000a6e0       ??3@YAXPEAX@Z              000000018000b6e0 f   LIBCMT:delete_scalar.obj
 0001:0000a6e8       ??3@YAXPEAX_K@Z            000000018000b6e8 f   LIBCMT:delete_scalar_size.obj
 0001:0000a6f0       __scrt_acquire_startup_lock 000000018000b6f0 f   LIBCMT:utility.obj
 0001:0000a72c       __scrt_dllmain_after_initialize_c 000000018000b72c f   LIBCMT:utility.obj
 0001:0000a760       __scrt_dllmain_before_initialize_c 000000018000b760 f   LIBCMT:utility.obj
 0001:0000a778       __scrt_dllmain_crt_thread_attach 000000018000b778 f   LIBCMT:utility.obj
 0001:0000a7a0       __scrt_dllmain_crt_thread_detach 000000018000b7a0 f   LIBCMT:utility.obj
 0001:0000a7b8       __scrt_dllmain_exception_filter 000000018000b7b8 f   LIBCMT:utility.obj
 0001:0000a81c       __scrt_dllmain_uninitialize_c 000000018000b81c f   LIBCMT:utility.obj
 0001:0000a84c       __scrt_dllmain_uninitialize_critical 000000018000b84c f   LIBCMT:utility.obj
 0001:0000a860       __scrt_initialize_crt      000000018000b860 f   LIBCMT:utility.obj
 0001:0000a8ac       __scrt_initialize_onexit_tables 000000018000b8ac f   LIBCMT:utility.obj
 0001:0000a978       __scrt_is_nonwritable_in_current_image 000000018000b978 f   LIBCMT:utility.obj
 0001:0000aa14       __scrt_release_startup_lock 000000018000ba14 f   LIBCMT:utility.obj
 0001:0000aa38       __scrt_uninitialize_crt    000000018000ba38 f   LIBCMT:utility.obj
 0001:0000aa64       _onexit                    000000018000ba64 f   LIBCMT:utility.obj
 0001:0000aab4       atexit                     000000018000bab4 f   LIBCMT:utility.obj
 0001:0000ae18       _DllMainCRTStartup         000000018000be18 f   LIBCMT:dll_dllmain.obj
 0001:0000ae58       ??_Gtype_info@@UEAAPEAXI@Z 000000018000be58 f i LIBCMT:std_type_info_static.obj
 0001:0000ae58       ??_Etype_info@@UEAAPEAXI@Z 000000018000be58 f i LIBCMT:std_type_info_static.obj
 0001:0000ae84       __raise_securityfailure    000000018000be84 f   LIBCMT:gs_report.obj
 0001:0000aeb8       __report_gsfailure         000000018000beb8 f   LIBCMT:gs_report.obj
 0001:0000af8c       __report_rangecheckfailure 000000018000bf8c f   LIBCMT:gs_report.obj
 0001:0000afa0       __report_securityfailure   000000018000bfa0 f   LIBCMT:gs_report.obj
 0001:0000b120       ??0bad_array_new_length@std@@QEAA@AEBV01@@Z 000000018000c120 f i LIBCMT:throw_bad_alloc.obj
 0001:0000b160       ??0bad_array_new_length@std@@QEAA@XZ 000000018000c160 f i LIBCMT:throw_bad_alloc.obj
 0001:0000b180       ?__scrt_throw_std_bad_array_new_length@@YAXXZ 000000018000c180 f   LIBCMT:throw_bad_alloc.obj
 0001:0000b1a0       __isa_available_init       000000018000c1a0 f   LIBCMT:_cpu_disp_.obj
 0001:0000b368       _get_startup_argv_mode     000000018000c368 f   LIBCMT:argv_mode.obj
 0001:0000b370       __scrt_is_ucrt_dll_in_use  000000018000c370 f   LIBCMT:ucrt_detection.obj
 0001:0000b37c       __crt_debugger_hook        000000018000c37c f   LIBCMT:utility_desktop.obj
 0001:0000b384       __scrt_fastfail            000000018000c384 f   LIBCMT:utility_desktop.obj
 0001:0000b4cc       _guard_check_icall         000000018000c4cc f i LIBCMT:checkcfg.obj
 0001:0000b4d4       __security_init_cookie     000000018000c4d4 f   LIBCMT:gs_support.obj
 0001:0000b580       ?__scrt_initialize_type_info@@YAXXZ 000000018000c580 f   LIBCMT:tncleanup.obj
 0001:0000b590       ?__scrt_uninitialize_type_info@@YAXXZ 000000018000c590 f   LIBCMT:tncleanup.obj
 0001:0000b59c       __local_stdio_scanf_options 000000018000c59c f i LIBCMT:default_local_stdio_options.obj
 0001:0000b5a4       __scrt_initialize_default_local_stdio_options 000000018000c5a4 f   LIBCMT:default_local_stdio_options.obj
 0001:0000b5c0       __scrt_get_dyn_tls_init_callback 000000018000c5c0 f   LIBCMT:dyn_tls_init.obj
 0001:0000b5c8       _RTC_Initialize            000000018000c5c8 f   LIBCMT:_initsect_.obj
 0001:0000b614       _RTC_Terminate             000000018000c614 f   LIBCMT:_initsect_.obj
 0001:0000b670       memmove                    000000018000c670 f   libvcruntime:memcpy.obj
 0001:0000b670       memcpy                     000000018000c670 f   libvcruntime:memcpy.obj
 0001:0000baa8       _purecall                  000000018000caa8 f   libvcruntime:purevirt.obj
 0001:0000bae4       __std_exception_copy       000000018000cae4 f   libvcruntime:std_exception.obj
 0001:0000bb74       __std_exception_destroy    000000018000cb74 f   libvcruntime:std_exception.obj
 0001:0000bb9c       _CxxThrowException         000000018000cb9c f   libvcruntime:throw.obj
 0001:0000bc74       __vcrt_initialize          000000018000cc74 f   libvcruntime:initialization.obj
 0001:0000bca8       __vcrt_thread_attach       000000018000cca8 f   libvcruntime:initialization.obj
 0001:0000bcbc       __vcrt_thread_detach       000000018000ccbc f   libvcruntime:initialization.obj
 0001:0000bcd0       __vcrt_uninitialize        000000018000ccd0 f   libvcruntime:initialization.obj
 0001:0000bcf0       __vcrt_uninitialize_critical 000000018000ccf0 f   libvcruntime:initialization.obj
 0001:0000bd00       __C_specific_handler       000000018000cd00 f   libvcruntime:_chandler_.obj
 0001:0000bf10       memset                     000000018000cf10 f   libvcruntime:memset.obj
 0001:0000c0b0       __std_type_info_destroy_list 000000018000d0b0 f   libvcruntime:std_type_info.obj
 0001:0000c0dc       __vcrt_initialize_pure_virtual_call_handler 000000018000d0dc f   libvcruntime:purevirt_data.obj
 0001:0000c100       __vcrt_freefls             000000018000d100 f   libvcruntime:per_thread_data.obj
 0001:0000c120       __vcrt_freeptd             000000018000d120 f   libvcruntime:per_thread_data.obj
 0001:0000c170       __vcrt_getptd_noexit       000000018000d170 f   libvcruntime:per_thread_data.obj
 0001:0000c228       __vcrt_initialize_ptd      000000018000d228 f   libvcruntime:per_thread_data.obj
 0001:0000c268       __vcrt_uninitialize_ptd    000000018000d268 f   libvcruntime:per_thread_data.obj
 0001:0000c28c       __vcrt_initialize_locks    000000018000d28c f   libvcruntime:locks.obj
 0001:0000c2d4       __vcrt_uninitialize_locks  000000018000d2d4 f   libvcruntime:locks.obj
 0001:0000c4d4       __vcrt_FlsAlloc            000000018000d4d4 f   libvcruntime:winapi_downlevel.obj
 0001:0000c528       __vcrt_FlsFree             000000018000d528 f   libvcruntime:winapi_downlevel.obj
 0001:0000c57c       __vcrt_FlsGetValue         000000018000d57c f   libvcruntime:winapi_downlevel.obj
 0001:0000c5d0       __vcrt_FlsSetValue         000000018000d5d0 f   libvcruntime:winapi_downlevel.obj
 0001:0000c638       __vcrt_InitializeCriticalSectionEx 000000018000d638 f   libvcruntime:winapi_downlevel.obj
 0001:0000c6b0       __vcrt_initialize_winapi_thunks 000000018000d6b0 f   libvcruntime:winapi_downlevel.obj
 0001:0000c6fc       __vcrt_uninitialize_winapi_thunks 000000018000d6fc f   libvcruntime:winapi_downlevel.obj
 0001:0000c750       _local_unwind              000000018000d750 f   libvcruntime:_jmpuwind_.obj
 0001:0000c780       _NLG_Notify                000000018000d780 f   libvcruntime:_jmpuwind_.obj
 0001:0000c7a0       __NLG_Dispatch2            000000018000d7a0 f   libvcruntime:_jmpuwind_.obj
 0001:0000c7b0       __NLG_Return2              000000018000d7b0 f   libvcruntime:_jmpuwind_.obj
 0001:0000c7b4       __except_validate_context_record 000000018000d7b4 f   libvcruntime:jbcxrval.obj
 0001:0000c7b4       _guard_check_icall_nop     000000018000d7b4 f   LIBCMT:guard_support.obj
 0001:0000c7b8       ??$?RV<lambda_7b91131dde12e1c3dfc74ff76b3f2eac>@@AEAV<lambda_dd75445284c072d0bd3768540cc698fa>@@V<lambda_16bc4ecb55b4718497c16bceaea2ceaf>@@@?$__crt_seh_guarded_call@H@@QEAAH$$QEAV<lambda_7b91131dde12e1c3dfc74ff76b3f2eac>@@AEAV<lambda_dd75445284c072d0bd3768540cc698fa>@@$$QEAV<lambda_16bc4ecb55b4718497c16bceaea2ceaf>@@@Z 000000018000d7b8 f i libucrt:output.obj
 0001:0000cb54       ??$ensure_buffer_is_big_enough@D@formatting_buffer@__crt_stdio_output@@QEAA_N_K@Z 000000018000db54 f i libucrt:output.obj
 0001:0000cc00       ??$is_wide_character_specifier@D@__crt_stdio_output@@YA_N_KDW4length_modifier@0@@Z 000000018000dc00 f i libucrt:output.obj
 0001:0000cc30       ??$is_wide_character_specifier@_W@__crt_stdio_output@@YA_N_K_WW4length_modifier@0@@Z 000000018000dc30 f i libucrt:output.obj
 0001:0000cc74       ??$type_case_integer_parse_into_buffer@I@?$output_processor@_WV?$string_output_adapter@_W@__crt_stdio_output@@V?$format_validation_base@_WV?$string_output_adapter@_W@__crt_stdio_output@@@2@@__crt_stdio_output@@AEAAXII_N@Z 000000018000dc74 f i libucrt:output.obj
 0001:0000cc74       ??$type_case_integer_parse_into_buffer@I@?$output_processor@_WV?$stream_output_adapter@_W@__crt_stdio_output@@V?$standard_base@_WV?$stream_output_adapter@_W@__crt_stdio_output@@@2@@__crt_stdio_output@@AEAAXII_N@Z 000000018000dc74 f i libucrt:output.obj
 0001:0000cc74       ??$type_case_integer_parse_into_buffer@I@?$output_processor@DV?$string_output_adapter@D@__crt_stdio_output@@V?$format_validation_base@DV?$string_output_adapter@D@__crt_stdio_output@@@2@@__crt_stdio_output@@AEAAXII_N@Z 000000018000dc74 f i libucrt:output.obj
 0001:0000cc74       ??$type_case_integer_parse_into_buffer@I@?$output_processor@_WV?$string_output_adapter@_W@__crt_stdio_output@@V?$standard_base@_WV?$string_output_adapter@_W@__crt_stdio_output@@@2@@__crt_stdio_output@@AEAAXII_N@Z 000000018000dc74 f i libucrt:output.obj
 0001:0000cd10       ??$type_case_integer_parse_into_buffer@_K@?$output_processor@_WV?$stream_output_adapter@_W@__crt_stdio_output@@V?$standard_base@_WV?$stream_output_adapter@_W@__crt_stdio_output@@@2@@__crt_stdio_output@@AEAAX_KI_N@Z 000000018000dd10 f i libucrt:output.obj
 0001:0000cd10       ??$type_case_integer_parse_into_buffer@_K@?$output_processor@DV?$string_output_adapter@D@__crt_stdio_output@@V?$format_validation_base@DV?$string_output_adapter@D@__crt_stdio_output@@@2@@__crt_stdio_output@@AEAAX_KI_N@Z 000000018000dd10 f i libucrt:output.obj
 0001:0000cd10       ??$type_case_integer_parse_into_buffer@_K@?$output_processor@_WV?$string_output_adapter@_W@__crt_stdio_output@@V?$standard_base@_WV?$string_output_adapter@_W@__crt_stdio_output@@@2@@__crt_stdio_output@@AEAAX_KI_N@Z 000000018000dd10 f i libucrt:output.obj
 0001:0000cd10       ??$type_case_integer_parse_into_buffer@_K@?$output_processor@_WV?$string_output_adapter@_W@__crt_stdio_output@@V?$format_validation_base@_WV?$string_output_adapter@_W@__crt_stdio_output@@@2@@__crt_stdio_output@@AEAAX_KI_N@Z 000000018000dd10 f i libucrt:output.obj
 0001:0000cdac       ??$write_multiple_characters@V?$stream_output_adapter@_W@__crt_stdio_output@@D@__crt_stdio_output@@YAXAEBV?$stream_output_adapter@_W@0@DHQEAH@Z 000000018000ddac f i libucrt:output.obj
 0001:0000ce3c       ??$write_multiple_characters@V?$string_output_adapter@D@__crt_stdio_output@@D@__crt_stdio_output@@YAXAEBV?$string_output_adapter@D@0@DHQEAH@Z 000000018000de3c f i libucrt:output.obj
 0001:0000ce98       ??$write_multiple_characters@V?$string_output_adapter@_W@__crt_stdio_output@@D@__crt_stdio_output@@YAXAEBV?$string_output_adapter@_W@0@DHQEAH@Z 000000018000de98 f i libucrt:output.obj
 0001:0000cf08       ??0?$output_processor@DV?$string_output_adapter@D@__crt_stdio_output@@V?$format_validation_base@DV?$string_output_adapter@D@__crt_stdio_output@@@2@@__crt_stdio_output@@QEAA@AEBV?$string_output_adapter@D@1@_KQEBDQEAU__crt_locale_pointers@@QEAD@Z 000000018000df08 f i libucrt:output.obj
 0001:0000cf84       ??0?$output_processor@_WV?$string_output_adapter@_W@__crt_stdio_output@@V?$standard_base@_WV?$string_output_adapter@_W@__crt_stdio_output@@@2@@__crt_stdio_output@@QEAA@AEBV?$string_output_adapter@_W@1@_KQEB_WQEAU__crt_locale_pointers@@QEAD@Z 000000018000df84 f i libucrt:output.obj
 0001:0000cf84       ??0?$output_processor@_WV?$string_output_adapter@_W@__crt_stdio_output@@V?$format_validation_base@_WV?$string_output_adapter@_W@__crt_stdio_output@@@2@@__crt_stdio_output@@QEAA@AEBV?$string_output_adapter@_W@1@_KQEB_WQEAU__crt_locale_pointers@@QEAD@Z 000000018000df84 f i libucrt:output.obj
 0001:0000cf84       ??0?$output_processor@_WV?$stream_output_adapter@_W@__crt_stdio_output@@V?$standard_base@_WV?$stream_output_adapter@_W@__crt_stdio_output@@@2@@__crt_stdio_output@@QEAA@AEBV?$stream_output_adapter@_W@1@_KQEB_WQEAU__crt_locale_pointers@@QEAD@Z 000000018000df84 f i libucrt:output.obj
 0001:0000d004       ??0_LocaleUpdate@@QEAA@QEAU__crt_locale_pointers@@@Z 000000018000e004 f i libucrt:output.obj
 0001:0000d184       ?force_decimal_point@__crt_stdio_output@@YAXPEADQEAU__crt_locale_pointers@@@Z 000000018000e184 f i libucrt:output.obj
 0001:0000d1f4       ?parse_int_from_format_string@?$output_processor@DV?$string_output_adapter@D@__crt_stdio_output@@V?$format_validation_base@DV?$string_output_adapter@D@__crt_stdio_output@@@2@@__crt_stdio_output@@AEAA_NQEAH@Z 000000018000e1f4 f i libucrt:output.obj
 0001:0000d278       ?parse_int_from_format_string@?$output_processor@_WV?$stream_output_adapter@_W@__crt_stdio_output@@V?$standard_base@_WV?$stream_output_adapter@_W@__crt_stdio_output@@@2@@__crt_stdio_output@@AEAA_NQEAH@Z 000000018000e278 f i libucrt:output.obj
 0001:0000d278       ?parse_int_from_format_string@?$output_processor@_WV?$string_output_adapter@_W@__crt_stdio_output@@V?$format_validation_base@_WV?$string_output_adapter@_W@__crt_stdio_output@@@2@@__crt_stdio_output@@AEAA_NQEAH@Z 000000018000e278 f i libucrt:output.obj
 0001:0000d278       ?parse_int_from_format_string@?$output_processor@_WV?$string_output_adapter@_W@__crt_stdio_output@@V?$standard_base@_WV?$string_output_adapter@_W@__crt_stdio_output@@@2@@__crt_stdio_output@@AEAA_NQEAH@Z 000000018000e278 f i libucrt:output.obj
 0001:0000d2f8       ?process@?$output_processor@DV?$string_output_adapter@D@__crt_stdio_output@@V?$format_validation_base@DV?$string_output_adapter@D@__crt_stdio_output@@@2@@__crt_stdio_output@@QEAAHXZ 000000018000e2f8 f i libucrt:output.obj
 0001:0000d50c       ?process@?$output_processor@_WV?$stream_output_adapter@_W@__crt_stdio_output@@V?$standard_base@_WV?$stream_output_adapter@_W@__crt_stdio_output@@@2@@__crt_stdio_output@@QEAAHXZ 000000018000e50c f i libucrt:output.obj
 0001:0000d784       ?process@?$output_processor@_WV?$string_output_adapter@_W@__crt_stdio_output@@V?$format_validation_base@_WV?$string_output_adapter@_W@__crt_stdio_output@@@2@@__crt_stdio_output@@QEAAHXZ 000000018000e784 f i libucrt:output.obj
 0001:0000da0c       ?process@?$output_processor@_WV?$string_output_adapter@_W@__crt_stdio_output@@V?$standard_base@_WV?$string_output_adapter@_W@__crt_stdio_output@@@2@@__crt_stdio_output@@QEAAHXZ 000000018000ea0c f i libucrt:output.obj
 0001:0000dc88       ?state_case_normal@?$output_processor@DV?$string_output_adapter@D@__crt_stdio_output@@V?$format_validation_base@DV?$string_output_adapter@D@__crt_stdio_output@@@2@@__crt_stdio_output@@AEAA_NXZ 000000018000ec88 f i libucrt:output.obj
 0001:0000dcfc       ?state_case_normal_tchar@?$output_processor@DV?$string_output_adapter@D@__crt_stdio_output@@V?$format_validation_base@DV?$string_output_adapter@D@__crt_stdio_output@@@2@@__crt_stdio_output@@AEAA_ND@Z 000000018000ecfc f i libucrt:output.obj
 0001:0000dd94       ?state_case_size@?$output_processor@DV?$string_output_adapter@D@__crt_stdio_output@@V?$format_validation_base@DV?$string_output_adapter@D@__crt_stdio_output@@@2@@__crt_stdio_output@@AEAA_NXZ 000000018000ed94 f i libucrt:output.obj
 0001:0000df10       ?state_case_size@?$output_processor@_WV?$stream_output_adapter@_W@__crt_stdio_output@@V?$standard_base@_WV?$stream_output_adapter@_W@__crt_stdio_output@@@2@@__crt_stdio_output@@AEAA_NXZ 000000018000ef10 f i libucrt:output.obj
 0001:0000e0b4       ?state_case_size@?$output_processor@_WV?$string_output_adapter@_W@__crt_stdio_output@@V?$format_validation_base@_WV?$string_output_adapter@_W@__crt_stdio_output@@@2@@__crt_stdio_output@@AEAA_NXZ 000000018000f0b4 f i libucrt:output.obj
 0001:0000e0b4       ?state_case_size@?$output_processor@_WV?$string_output_adapter@_W@__crt_stdio_output@@V?$standard_base@_WV?$string_output_adapter@_W@__crt_stdio_output@@@2@@__crt_stdio_output@@AEAA_NXZ 000000018000f0b4 f i libucrt:output.obj
 0001:0000e258       ?state_case_type@?$output_processor@DV?$string_output_adapter@D@__crt_stdio_output@@V?$format_validation_base@DV?$string_output_adapter@D@__crt_stdio_output@@@2@@__crt_stdio_output@@AEAA_NXZ 000000018000f258 f i libucrt:output.obj
 0001:0000e4d4       ?state_case_type@?$output_processor@_WV?$stream_output_adapter@_W@__crt_stdio_output@@V?$standard_base@_WV?$stream_output_adapter@_W@__crt_stdio_output@@@2@@__crt_stdio_output@@AEAA_NXZ 000000018000f4d4 f i libucrt:output.obj
 0001:0000e7a0       ?state_case_type@?$output_processor@_WV?$string_output_adapter@_W@__crt_stdio_output@@V?$format_validation_base@_WV?$string_output_adapter@_W@__crt_stdio_output@@@2@@__crt_stdio_output@@AEAA_NXZ 000000018000f7a0 f i libucrt:output.obj
 0001:0000e7a0       ?state_case_type@?$output_processor@_WV?$string_output_adapter@_W@__crt_stdio_output@@V?$standard_base@_WV?$string_output_adapter@_W@__crt_stdio_output@@@2@@__crt_stdio_output@@AEAA_NXZ 000000018000f7a0 f i libucrt:output.obj
 0001:0000ea6c       ?type_case_Z@?$output_processor@DV?$string_output_adapter@D@__crt_stdio_output@@V?$format_validation_base@DV?$string_output_adapter@D@__crt_stdio_output@@@2@@__crt_stdio_output@@AEAA_NXZ 000000018000fa6c f i libucrt:output.obj
 0001:0000eaec       ?type_case_Z@?$output_processor@_WV?$string_output_adapter@_W@__crt_stdio_output@@V?$standard_base@_WV?$string_output_adapter@_W@__crt_stdio_output@@@2@@__crt_stdio_output@@AEAA_NXZ 000000018000faec f i libucrt:output.obj
 0001:0000eaec       ?type_case_Z@?$output_processor@_WV?$stream_output_adapter@_W@__crt_stdio_output@@V?$standard_base@_WV?$stream_output_adapter@_W@__crt_stdio_output@@@2@@__crt_stdio_output@@AEAA_NXZ 000000018000faec f i libucrt:output.obj
 0001:0000eaec       ?type_case_Z@?$output_processor@_WV?$string_output_adapter@_W@__crt_stdio_output@@V?$format_validation_base@_WV?$string_output_adapter@_W@__crt_stdio_output@@@2@@__crt_stdio_output@@AEAA_NXZ 000000018000faec f i libucrt:output.obj
 0001:0000eb6c       ?type_case_a@?$output_processor@DV?$string_output_adapter@D@__crt_stdio_output@@V?$format_validation_base@DV?$string_output_adapter@D@__crt_stdio_output@@@2@@__crt_stdio_output@@AEAA_NXZ 000000018000fb6c f i libucrt:output.obj
 0001:0000ed88       ?type_case_a@?$output_processor@_WV?$string_output_adapter@_W@__crt_stdio_output@@V?$format_validation_base@_WV?$string_output_adapter@_W@__crt_stdio_output@@@2@@__crt_stdio_output@@AEAA_NXZ 000000018000fd88 f i libucrt:output.obj
 0001:0000ed88       ?type_case_a@?$output_processor@_WV?$stream_output_adapter@_W@__crt_stdio_output@@V?$standard_base@_WV?$stream_output_adapter@_W@__crt_stdio_output@@@2@@__crt_stdio_output@@AEAA_NXZ 000000018000fd88 f i libucrt:output.obj
 0001:0000ed88       ?type_case_a@?$output_processor@_WV?$string_output_adapter@_W@__crt_stdio_output@@V?$standard_base@_WV?$string_output_adapter@_W@__crt_stdio_output@@@2@@__crt_stdio_output@@AEAA_NXZ 000000018000fd88 f i libucrt:output.obj
 0001:0000efcc       ?type_case_c_tchar@?$output_processor@DV?$string_output_adapter@D@__crt_stdio_output@@V?$format_validation_base@DV?$string_output_adapter@D@__crt_stdio_output@@@2@@__crt_stdio_output@@AEAA_ND@Z 000000018000ffcc f i libucrt:output.obj
 0001:0000f080       ?type_case_c_tchar@?$output_processor@_WV?$string_output_adapter@_W@__crt_stdio_output@@V?$standard_base@_WV?$string_output_adapter@_W@__crt_stdio_output@@@2@@__crt_stdio_output@@AEAA_N_W@Z 0000000180010080 f i libucrt:output.obj
 0001:0000f080       ?type_case_c_tchar@?$output_processor@_WV?$stream_output_adapter@_W@__crt_stdio_output@@V?$standard_base@_WV?$stream_output_adapter@_W@__crt_stdio_output@@@2@@__crt_stdio_output@@AEAA_N_W@Z 0000000180010080 f i libucrt:output.obj
 0001:0000f080       ?type_case_c_tchar@?$output_processor@_WV?$string_output_adapter@_W@__crt_stdio_output@@V?$format_validation_base@_WV?$string_output_adapter@_W@__crt_stdio_output@@@2@@__crt_stdio_output@@AEAA_N_W@Z 0000000180010080 f i libucrt:output.obj
 0001:0000f128       ?type_case_integer@?$output_processor@_WV?$string_output_adapter@_W@__crt_stdio_output@@V?$standard_base@_WV?$string_output_adapter@_W@__crt_stdio_output@@@2@@__crt_stdio_output@@AEAA_NI_N@Z 0000000180010128 f i libucrt:output.obj
 0001:0000f128       ?type_case_integer@?$output_processor@_WV?$string_output_adapter@_W@__crt_stdio_output@@V?$format_validation_base@_WV?$string_output_adapter@_W@__crt_stdio_output@@@2@@__crt_stdio_output@@AEAA_NI_N@Z 0000000180010128 f i libucrt:output.obj
 0001:0000f128       ?type_case_integer@?$output_processor@_WV?$stream_output_adapter@_W@__crt_stdio_output@@V?$standard_base@_WV?$stream_output_adapter@_W@__crt_stdio_output@@@2@@__crt_stdio_output@@AEAA_NI_N@Z 0000000180010128 f i libucrt:output.obj
 0001:0000f128       ?type_case_integer@?$output_processor@DV?$string_output_adapter@D@__crt_stdio_output@@V?$format_validation_base@DV?$string_output_adapter@D@__crt_stdio_output@@@2@@__crt_stdio_output@@AEAA_NI_N@Z 0000000180010128 f i libucrt:output.obj
 0001:0000f2c8       ?type_case_n@?$output_processor@_WV?$string_output_adapter@_W@__crt_stdio_output@@V?$format_validation_base@_WV?$string_output_adapter@_W@__crt_stdio_output@@@2@@__crt_stdio_output@@AEAA_NXZ 00000001800102c8 f i libucrt:output.obj
 0001:0000f2c8       ?type_case_n@?$output_processor@DV?$string_output_adapter@D@__crt_stdio_output@@V?$format_validation_base@DV?$string_output_adapter@D@__crt_stdio_output@@@2@@__crt_stdio_output@@AEAA_NXZ 00000001800102c8 f i libucrt:output.obj
 0001:0000f2c8       ?type_case_n@?$output_processor@_WV?$string_output_adapter@_W@__crt_stdio_output@@V?$standard_base@_WV?$string_output_adapter@_W@__crt_stdio_output@@@2@@__crt_stdio_output@@AEAA_NXZ 00000001800102c8 f i libucrt:output.obj
 0001:0000f2c8       ?type_case_n@?$output_processor@_WV?$stream_output_adapter@_W@__crt_stdio_output@@V?$standard_base@_WV?$stream_output_adapter@_W@__crt_stdio_output@@@2@@__crt_stdio_output@@AEAA_NXZ 00000001800102c8 f i libucrt:output.obj
 0001:0000f3a4       ?type_case_s@?$output_processor@DV?$string_output_adapter@D@__crt_stdio_output@@V?$format_validation_base@DV?$string_output_adapter@D@__crt_stdio_output@@@2@@__crt_stdio_output@@AEAA_NXZ 00000001800103a4 f i libucrt:output.obj
 0001:0000f434       ?type_case_s@?$output_processor@_WV?$string_output_adapter@_W@__crt_stdio_output@@V?$format_validation_base@_WV?$string_output_adapter@_W@__crt_stdio_output@@@2@@__crt_stdio_output@@AEAA_NXZ 0000000180010434 f i libucrt:output.obj
 0001:0000f434       ?type_case_s@?$output_processor@_WV?$stream_output_adapter@_W@__crt_stdio_output@@V?$standard_base@_WV?$stream_output_adapter@_W@__crt_stdio_output@@@2@@__crt_stdio_output@@AEAA_NXZ 0000000180010434 f i libucrt:output.obj
 0001:0000f434       ?type_case_s@?$output_processor@_WV?$string_output_adapter@_W@__crt_stdio_output@@V?$standard_base@_WV?$string_output_adapter@_W@__crt_stdio_output@@@2@@__crt_stdio_output@@AEAA_NXZ 0000000180010434 f i libucrt:output.obj
 0001:0000f4fc       ?write_stored_string_tchar@?$output_processor@DV?$string_output_adapter@D@__crt_stdio_output@@V?$format_validation_base@DV?$string_output_adapter@D@__crt_stdio_output@@@2@@__crt_stdio_output@@AEAA_ND@Z 00000001800104fc f i libucrt:output.obj
 0001:0000f5d4       ?write_stored_string_tchar@?$output_processor@_WV?$stream_output_adapter@_W@__crt_stdio_output@@V?$standard_base@_WV?$stream_output_adapter@_W@__crt_stdio_output@@@2@@__crt_stdio_output@@AEAA_N_W@Z 00000001800105d4 f i libucrt:output.obj
 0001:0000f6c0       ?write_stored_string_tchar@?$output_processor@_WV?$string_output_adapter@_W@__crt_stdio_output@@V?$standard_base@_WV?$string_output_adapter@_W@__crt_stdio_output@@@2@@__crt_stdio_output@@AEAA_N_W@Z 00000001800106c0 f i libucrt:output.obj
 0001:0000f6c0       ?write_stored_string_tchar@?$output_processor@_WV?$string_output_adapter@_W@__crt_stdio_output@@V?$format_validation_base@_WV?$string_output_adapter@_W@__crt_stdio_output@@@2@@__crt_stdio_output@@AEAA_N_W@Z 00000001800106c0 f i libucrt:output.obj
 0001:0000f7b0       ?write_string@?$stream_output_adapter@_W@__crt_stdio_output@@QEBAXQEB_WHQEAH1@Z 00000001800107b0 f i libucrt:output.obj
 0001:0000f8bc       ?write_string@?$string_output_adapter@D@__crt_stdio_output@@QEBAXQEBDHQEAH1@Z 00000001800108bc f i libucrt:output.obj
 0001:0000f978       ?write_string@?$string_output_adapter@_W@__crt_stdio_output@@QEBAXQEB_WHQEAH1@Z 0000000180010978 f i libucrt:output.obj
 0001:0000fa38       __stdio_common_vfwprintf   0000000180010a38 f   libucrt:output.obj
 0001:0000fac4       __stdio_common_vsprintf_s  0000000180010ac4 f   libucrt:output.obj
 0001:0000fb28       __stdio_common_vswprintf   0000000180010b28 f   libucrt:output.obj
 0001:0000fd60       __stdio_common_vswprintf_s 0000000180010d60 f   libucrt:output.obj
 0001:000107b8       ??$ftprintf@PEAU_iobuf@@PEB_WAEBQEB_WAEBQEB_WAEBI@?$__crt_char_traits@_W@@SAH$$QEAPEAU_iobuf@@$$QEAPEB_WAEBQEB_W2AEBI@Z 00000001800117b8 f i libucrt:assert.obj
 0001:000107e0       _wassert                   00000001800117e0 f   libucrt:assert.obj
 0001:00010864       fwprintf                   0000000180011864 f i libucrt:assert.obj
 0001:000108a8       swprintf                   00000001800118a8 f i libucrt:assert.obj
 0001:000108fc       __acrt_call_reportfault    00000001800118fc f   libucrt:invalid_parameter.obj
 0001:00010a58       __acrt_initialize_invalid_parameter_handler 0000000180011a58 f   libucrt:invalid_parameter.obj
 0001:00010a60       _invalid_parameter         0000000180011a60 f   libucrt:invalid_parameter.obj
 0001:00010b08       _invalid_parameter_noinfo  0000000180011b08 f   libucrt:invalid_parameter.obj
 0001:00010b28       _invalid_parameter_noinfo_noreturn 0000000180011b28 f   libucrt:invalid_parameter.obj
 0001:00010b58       _invoke_watson             0000000180011b58 f   libucrt:invalid_parameter.obj
 0001:00010ba0       _wcsicmp                   0000000180011ba0 f   libucrt:wcsicmp.obj
 0001:00010c28       _wcsicmp_l                 0000000180011c28 f   libucrt:wcsicmp.obj
 0001:00010d18       __ascii_stricmp            0000000180011d18 f   libucrt:stricmp.obj
 0001:00010d54       _stricmp                   0000000180011d54 f   libucrt:stricmp.obj
 0001:00010d9c       _stricmp_l                 0000000180011d9c f   libucrt:stricmp.obj
 0001:00010e50       __acrt_initialize_new_handler 0000000180011e50 f   libucrt:new_handler.obj
 0001:00010e58       _callnewh                  0000000180011e58 f   libucrt:new_handler.obj
 0001:00010e98       _query_new_handler         0000000180011e98 f   libucrt:new_handler.obj
 0001:00010ecc       malloc                     0000000180011ecc f   libucrt:malloc.obj
 0001:00010ed4       free                       0000000180011ed4 f   libucrt:free.obj
 0001:00010edc       _seh_filter_dll            0000000180011edc f   libucrt:exception_filter.obj
 0001:00010ef0       _seh_filter_exe            0000000180011ef0 f   libucrt:exception_filter.obj
 0001:000112b0       __acrt_initialize_thread_local_exit_callback 00000001800122b0 f   libucrt:exit.obj
 0001:000112b8       _cexit                     00000001800122b8 f   libucrt:exit.obj
 0001:000112c8       _exit                      00000001800122c8 f   libucrt:exit.obj
 0001:000112d4       _is_c_termination_complete 00000001800122d4 f   libucrt:exit.obj
 0001:00011498       __acrt_allocate_buffer_for_argv 0000000180012498 f   libucrt:argv_parsing.obj
 0001:000114fc       _configure_narrow_argv     00000001800124fc f   libucrt:argv_parsing.obj
 0001:00011858       __dcrt_uninitialize_environments_nolock 0000000180012858 f   libucrt:environment_initialization.obj
 0001:00011890       _initialize_narrow_environment 0000000180012890 f   libucrt:environment_initialization.obj
 0001:00011898       ??$?RV<lambda_b8c45f8f788dd370798f47cfe8ac3a86>@@AEAV<lambda_4e60a939b0d047cfe11ddc22648dfba9>@@V<lambda_332c3edc96d0294ec56c57d38c1cdfd5>@@@?$__crt_seh_guarded_call@H@@QEAAH$$QEAV<lambda_b8c45f8f788dd370798f47cfe8ac3a86>@@AEAV<lambda_4e60a939b0d047cfe11ddc22648dfba9>@@$$QEAV<lambda_332c3edc96d0294ec56c57d38c1cdfd5>@@@Z 0000000180012898 f i libucrt:onexit.obj
 0001:000118d4       ??$?RV<lambda_e24bbb7b643b32fcea6fa61b31d4c984>@@AEAV<lambda_275893d493268fdec8709772e3fcec0e>@@V<lambda_9d71df4d7cf3f480f8d633942495c3b0>@@@?$__crt_seh_guarded_call@H@@QEAAH$$QEAV<lambda_e24bbb7b643b32fcea6fa61b31d4c984>@@AEAV<lambda_275893d493268fdec8709772e3fcec0e>@@$$QEAV<lambda_9d71df4d7cf3f480f8d633942495c3b0>@@@Z 00000001800128d4 f i libucrt:onexit.obj
 0001:00011c50       _crt_atexit                0000000180012c50 f   libucrt:onexit.obj
 0001:00011c60       _execute_onexit_table      0000000180012c60 f   libucrt:onexit.obj
 0001:00011c9c       _initialize_onexit_table   0000000180012c9c f   libucrt:onexit.obj
 0001:00011cdc       _register_onexit_function  0000000180012cdc f   libucrt:onexit.obj
 0001:00011d5c       __acrt_uninitialize_command_line 0000000180012d5c f   libucrt:argv_data.obj
 0001:00011e5c       __acrt_initialize          0000000180012e5c f   libucrt:initialization.obj
 0001:00011e70       __acrt_thread_attach       0000000180012e70 f   libucrt:initialization.obj
 0001:00011e84       __acrt_thread_detach       0000000180012e84 f   libucrt:initialization.obj
 0001:00011e94       __acrt_uninitialize        0000000180012e94 f   libucrt:initialization.obj
 0001:00011ea8       __acrt_uninitialize_critical 0000000180012ea8 f   libucrt:initialization.obj
 0001:00011eb8       _initterm                  0000000180012eb8 f   libucrt:initterm.obj
 0001:00011f30       _initterm_e                0000000180012f30 f   libucrt:initterm.obj
 0001:00011f7c       terminate                  0000000180012f7c f   libucrt:terminate.obj
 0001:00011fa4       abort                      0000000180012fa4 f   libucrt:abort.obj
 0001:00011ffc       strcpy_s                   0000000180012ffc f   libucrt:strcpy_s.obj
 0001:0001205c       _free_base                 000000018001305c f   libucrt:free_base.obj
 0001:0001209c       _malloc_base               000000018001309c f   libucrt:malloc_base.obj
 0001:000120fc       _calloc_base               00000001800130fc f   libucrt:calloc_base.obj
 0001:00012174       ??$is_overflow_condition@K@__crt_strtox@@YA_NIK@Z 0000000180013174 f i libucrt:atox.obj
 0001:000121a0       ??$parse_integer@KV?$c_string_character_source@D@__crt_strtox@@@__crt_strtox@@YAKQEAU__crt_locale_pointers@@V?$c_string_character_source@D@0@H_N@Z 00000001800131a0 f i libucrt:atox.obj
 0001:000124b4       ??$parse_integer@KV?$c_string_character_source@_W@__crt_strtox@@@__crt_strtox@@YAKQEAU__crt_locale_pointers@@V?$c_string_character_source@_W@0@H_N@Z 00000001800134b4 f i libucrt:atox.obj
 0001:00012b88       isdigit                    0000000180013b88 f i libucrt:_ctype.obj
 0001:00012c4c       _tolower_l                 0000000180013c4c f   libucrt:tolower_toupper.obj
 0001:00012d8c       tolower                    0000000180013d8c f   libucrt:tolower_toupper.obj
 0001:00012db8       __acrt_errno_from_os_error 0000000180013db8 f   libucrt:errno.obj
 0001:00012e00       __acrt_errno_map_os_error  0000000180013e00 f   libucrt:errno.obj
 0001:00012e50       __doserrno                 0000000180013e50 f   libucrt:errno.obj
 0001:00012e70       _errno                     0000000180013e70 f   libucrt:errno.obj
 0001:00012e90       ??$make_c_string_character_source@_WPEAPEA_W@__crt_strtox@@YA?AV?$c_string_character_source@_W@0@QEB_WQEAPEA_W@Z 0000000180013e90 f i libucrt:strtox.obj
 0001:00012e90       ??$make_c_string_character_source@DPEAPEAD@__crt_strtox@@YA?AV?$c_string_character_source@D@0@QEBDQEAPEAD@Z 0000000180013e90 f i libucrt:strtox.obj
 0001:00012ea4       strtol                     0000000180013ea4 f   libucrt:strtox.obj
 0001:00012ed4       wcstol                     0000000180013ed4 f   libucrt:strtox.obj
 0001:00012f04       _mbtowc_l                  0000000180013f04 f   libucrt:mbtowc.obj
 0001:0001304c       mbtowc                     000000018001404c f   libucrt:mbtowc.obj
 0001:00013054       _wctomb_s_l                0000000180014054 f   libucrt:wctomb.obj
 0001:000131d8       wctomb_s                   00000001800141d8 f   libucrt:wctomb.obj
 0001:000131ec       strnlen                    00000001800141ec f   libucrt:strnlen.obj
 0001:00013348       wcsnlen                    0000000180014348 f   libucrt:strnlen.obj
 0001:00013538       ??$?RV<lambda_46352004c1216016012b18bd6f87e700>@@AEAV<lambda_3bd07e1a1191394380780325891bf33f>@@V<lambda_334532d3f185bcaa59b5be82d7d22bff>@@@?$__crt_seh_guarded_call@X@@QEAAX$$QEAV<lambda_46352004c1216016012b18bd6f87e700>@@AEAV<lambda_3bd07e1a1191394380780325891bf33f>@@$$QEAV<lambda_334532d3f185bcaa59b5be82d7d22bff>@@@Z 0000000180014538 f i libucrt:per_thread_data.obj
 0001:00013598       ??$?RV<lambda_5e887d1dcbef67a5eb4283622ba103bf>@@AEAV<lambda_4466841279450cc726390878d4a41900>@@V<lambda_341c25c0346d94847f1f3c463c57e077>@@@?$__crt_seh_guarded_call@X@@QEAAX$$QEAV<lambda_5e887d1dcbef67a5eb4283622ba103bf>@@AEAV<lambda_4466841279450cc726390878d4a41900>@@$$QEAV<lambda_341c25c0346d94847f1f3c463c57e077>@@@Z 0000000180014598 f i libucrt:per_thread_data.obj
 0001:000135e0       ??$?RV<lambda_72d1df2b273a38828b1ce30cbf4cdab5>@@AEAV<lambda_876a65b173b8412d3a47c70a915b0cf4>@@V<lambda_41932305e351933ebe8f8be3ed8bb5dc>@@@?$__crt_seh_guarded_call@X@@QEAAX$$QEAV<lambda_72d1df2b273a38828b1ce30cbf4cdab5>@@AEAV<lambda_876a65b173b8412d3a47c70a915b0cf4>@@$$QEAV<lambda_41932305e351933ebe8f8be3ed8bb5dc>@@@Z 00000001800145e0 f i libucrt:per_thread_data.obj
 0001:00013620       ??$?RV<lambda_fb3a7dec4e47f37f22dae91bb15c9095>@@AEAV<lambda_698284760c8add0bfb0756c19673e34b>@@V<lambda_dfb8eca1e75fef3034a8fb18dd509707>@@@?$__crt_seh_guarded_call@X@@QEAAX$$QEAV<lambda_fb3a7dec4e47f37f22dae91bb15c9095>@@AEAV<lambda_698284760c8add0bfb0756c19673e34b>@@$$QEAV<lambda_dfb8eca1e75fef3034a8fb18dd509707>@@@Z 0000000180014620 f i libucrt:per_thread_data.obj
 0001:000138b0       __acrt_freeptd             00000001800148b0 f   libucrt:per_thread_data.obj
 0001:000138f4       __acrt_getptd              00000001800148f4 f   libucrt:per_thread_data.obj
 0001:00013988       __acrt_getptd_noexit       0000000180014988 f   libucrt:per_thread_data.obj
 0001:00013a28       __acrt_initialize_ptd      0000000180014a28 f   libucrt:per_thread_data.obj
 0001:00013a64       __acrt_uninitialize_ptd    0000000180014a64 f   libucrt:per_thread_data.obj
 0001:00013a88       __acrt_update_locale_info  0000000180014a88 f   libucrt:locale_update.obj
 0001:00013abc       __acrt_update_multibyte_info 0000000180014abc f   libucrt:locale_update.obj
 0001:00013af0       ?__acrt_fp_classify@@YA?AW4__acrt_fp_class@@AEBN@Z 0000000180014af0 f i libucrt:cvt.obj
 0001:00014528       __acrt_fp_format           0000000180015528 f   libucrt:cvt.obj
 0001:0001476c       _fputwc_nolock             000000018001576c f   libucrt:fputwc.obj
 0001:000148e8       _fileno                    00000001800158e8 f   libucrt:fileno.obj
 0001:00014910       __acrt_initialize_stdio    0000000180015910 f   libucrt:_file.obj
 0001:00014a30       __acrt_iob_func            0000000180015a30 f   libucrt:_file.obj
 0001:00014a44       __acrt_uninitialize_stdio  0000000180015a44 f   libucrt:_file.obj
 0001:00014aa0       _lock_file                 0000000180015aa0 f   libucrt:_file.obj
 0001:00014aac       _unlock_file               0000000180015aac f   libucrt:_file.obj
 0001:00014ab8       _fputc_nolock              0000000180015ab8 f   libucrt:fputc.obj
 0001:00014ad0       _get_printf_count_output   0000000180015ad0 f   libucrt:printf_count_output.obj
 0001:00014ae8       __acrt_stdio_begin_temporary_buffering_nolock 0000000180015ae8 f   libucrt:_sftbuf.obj
 0001:00014bb8       __acrt_stdio_end_temporary_buffering_nolock 0000000180015bb8 f   libucrt:_sftbuf.obj
 0001:00014bf4       __acrt_set_locale_changed  0000000180015bf4 f   libucrt:wsetlocale.obj
 0001:00014c00       __acrt_uninitialize_locale 0000000180015c00 f   libucrt:wsetlocale.obj
 0001:00014e30       __acrt_initialize_lowio    0000000180015e30 f   libucrt:ioinit.obj
 0001:00014e6c       __acrt_uninitialize_lowio  0000000180015e6c f   libucrt:ioinit.obj
 0001:00014eac       _query_app_type            0000000180015eac f   libucrt:report_runtime_error.obj
 0001:00014fdc       _itow_s                    0000000180015fdc f   libucrt:xtoa.obj
 0001:00014ffc       _set_error_mode            0000000180015ffc f   libucrt:set_error_mode.obj
 0001:0001503c       wcscat_s                   000000018001603c f   libucrt:wcscat_s.obj
 0001:000150bc       wcscpy_s                   00000001800160bc f   libucrt:wcscpy_s.obj
 0001:00015124       wcsncat_s                  0000000180016124 f   libucrt:wcsncat_s.obj
 0001:0001524c       __acrt_show_wide_message_box 000000018001624c f   libucrt:crtmbox.obj
 0001:00015368       __acrt_stdio_flush_nolock  0000000180016368 f   libucrt:fflush.obj
 0001:000153e0       _fflush_nolock             00000001800163e0 f   libucrt:fflush.obj
 0001:0001542c       _flushall                  000000018001642c f   libucrt:fflush.obj
 0001:0001551c       fflush                     000000018001651c f   libucrt:fflush.obj
 0001:00015560       ??$?RV<lambda_7a5ef57ff966f610505f1d28a3d40618>@@AEAV<lambda_b721fa326cdb32351d23dfa67958c160>@@V<lambda_5e0fb27672408a07956fe59e48ccb2aa>@@@?$__crt_seh_guarded_call@H@@QEAAH$$QEAV<lambda_7a5ef57ff966f610505f1d28a3d40618>@@AEAV<lambda_b721fa326cdb32351d23dfa67958c160>@@$$QEAV<lambda_5e0fb27672408a07956fe59e48ccb2aa>@@@Z 0000000180016560 f i libucrt:setvbuf.obj
 0001:00015690       setvbuf                    0000000180016690 f   libucrt:setvbuf.obj
 0001:00015730       ??$?RV<lambda_c36588078e9f5dfd39652860aa6b3aaf>@@AEAV<lambda_ec61778202f4f5fc7e7711acc23c3bca>@@V<lambda_dc9d2797ccde5d239b4a0efae8ebd7db>@@@?$__crt_seh_guarded_call@P6AXH@Z@@QEAAP6AXH@Z$$QEAV<lambda_c36588078e9f5dfd39652860aa6b3aaf>@@AEAV<lambda_ec61778202f4f5fc7e7711acc23c3bca>@@$$QEAV<lambda_dc9d2797ccde5d239b4a0efae8ebd7db>@@@Z 0000000180016730 f i libucrt:signal.obj
 0001:00015778       __acrt_get_sigabrt_handler 0000000180016778 f   libucrt:signal.obj
 0001:000157a8       __acrt_initialize_signal_handlers 00000001800167a8 f   libucrt:signal.obj
 0001:000157c8       raise                      00000001800167c8 f   libucrt:signal.obj
 0001:00015a64       _towlower_l                0000000180016a64 f   libucrt:towlower.obj
 0001:00015b28       __acrt_initialize_locks    0000000180016b28 f   libucrt:locks.obj
 0001:00015b70       __acrt_lock                0000000180016b70 f   libucrt:locks.obj
 0001:00015b8c       __acrt_uninitialize_locks  0000000180016b8c f   libucrt:locks.obj
 0001:00015bc4       __acrt_unlock              0000000180016bc4 f   libucrt:locks.obj
 0001:00015d80       __acrt_FlsAlloc            0000000180016d80 f   libucrt:winapi_thunks.obj
 0001:00015dd8       __acrt_FlsFree             0000000180016dd8 f   libucrt:winapi_thunks.obj
 0001:00015e30       __acrt_FlsGetValue         0000000180016e30 f   libucrt:winapi_thunks.obj
 0001:00015e88       __acrt_FlsSetValue         0000000180016e88 f   libucrt:winapi_thunks.obj
 0001:00015ef0       __acrt_InitializeCriticalSectionEx 0000000180016ef0 f   libucrt:winapi_thunks.obj
 0001:00015f68       __acrt_LCMapStringEx       0000000180016f68 f   libucrt:winapi_thunks.obj
 0001:00016058       __acrt_LocaleNameToLCID    0000000180017058 f   libucrt:winapi_thunks.obj
 0001:000160c0       __acrt_MessageBoxW         00000001800170c0 f   libucrt:winapi_thunks.obj
 0001:00016148       __acrt_can_show_message_box 0000000180017148 f   libucrt:winapi_thunks.obj
 0001:000161a4       __acrt_get_parent_window   00000001800171a4 f   libucrt:winapi_thunks.obj
 0001:00016234       __acrt_initialize_winapi_thunks 0000000180017234 f   libucrt:winapi_thunks.obj
 0001:0001626c       __acrt_is_interactive      000000018001726c f   libucrt:winapi_thunks.obj
 0001:00016340       __acrt_is_packaged_app     0000000180017340 f   libucrt:winapi_thunks.obj
 0001:000163c8       __acrt_uninitialize_winapi_thunks 00000001800173c8 f   libucrt:winapi_thunks.obj
 0001:000168e8       ?expand_if_necessary@?$argument_list@D@?A0xca0879c4@@AEAAHXZ 00000001800178e8 f i libucrt:argv_wildcards.obj
 0001:000169b0       __acrt_expand_narrow_argv_wildcards 00000001800179b0 f   libucrt:argv_wildcards.obj
 0001:000169b8       ??$?RV<lambda_99476a1ad63dd22509b5d3e65b0ffc95>@@AEAV<lambda_ad1ced32f4ac17aa236e5ef05d6b3b7c>@@V<lambda_f7424dd8d45958661754dc4f2697e9c3>@@@?$__crt_seh_guarded_call@X@@QEAAX$$QEAV<lambda_99476a1ad63dd22509b5d3e65b0ffc95>@@AEAV<lambda_ad1ced32f4ac17aa236e5ef05d6b3b7c>@@$$QEAV<lambda_f7424dd8d45958661754dc4f2697e9c3>@@@Z 00000001800179b8 f i libucrt:mbctype.obj
 0001:000170b4       __acrt_initialize_multibyte 00000001800180b4 f   libucrt:mbctype.obj
 0001:000170dc       __acrt_update_thread_multibyte_data 00000001800180dc f   libucrt:mbctype.obj
 0001:0001719c       _setmbcp_nolock            000000018001819c f   libucrt:mbctype.obj
 0001:000174bc       _ismbblead                 00000001800184bc f   libucrt:ismbbyte.obj
 0001:000174d0       __acrt_initialize_command_line 00000001800184d0 f   libucrt:argv_data.obj
 0001:000174f8       __dcrt_get_narrow_environment_from_os 00000001800184f8 f   libucrt:get_environment_from_os.obj
 0001:000175fc       _recalloc                  00000001800185fc f   libucrt:recalloc.obj
 0001:00017604       _recalloc_base             0000000180018604 f   libucrt:recalloc.obj
 0001:0001769c       __acrt_initialize_heap     000000018001869c f   libucrt:heap_handle.obj
 0001:000176b8       __acrt_uninitialize_heap   00000001800186b8 f   libucrt:heap_handle.obj
 0001:000176c4       __acrt_execute_initializers 00000001800186c4 f   libucrt:shared_initialization.obj
 0001:00017758       __acrt_execute_uninitializers 0000000180018758 f   libucrt:shared_initialization.obj
 0001:000177a8       __acrt_has_user_matherr    00000001800187a8 f   libucrt:matherr.obj
 0001:000177c8       __acrt_initialize_user_matherr 00000001800187c8 f   libucrt:matherr.obj
 0001:000177d0       __acrt_invoke_user_matherr 00000001800187d0 f   libucrt:matherr.obj
 0001:00017818       _query_new_mode            0000000180018818 f   libucrt:new_mode.obj
 0001:00017820       __pctype_func              0000000180018820 f   libucrt:ctype.obj
 0001:00017850       iswctype                   0000000180018850 f   libucrt:iswctype.obj
 0001:000178c0       _isctype_l                 00000001800188c0 f   libucrt:isctype.obj
 0001:000179d0       _isleadbyte_l              00000001800189d0 f i libucrt:_wctype.obj
 0001:00017d6c       __acrt_LCMapStringA        0000000180018d6c f   libucrt:lcmapstringa.obj
 0001:00017e04       __acrt_add_locale_ref      0000000180018e04 f   libucrt:locale_refcounting.obj
 0001:00017e90       __acrt_free_locale         0000000180018e90 f   libucrt:locale_refcounting.obj
 0001:00018008       __acrt_locale_add_lc_time_reference 0000000180019008 f   libucrt:locale_refcounting.obj
 0001:00018030       __acrt_locale_free_lc_time_if_unreferenced 0000000180019030 f   libucrt:locale_refcounting.obj
 0001:00018068       __acrt_locale_release_lc_time_reference 0000000180019068 f   libucrt:locale_refcounting.obj
 0001:00018090       __acrt_release_locale_ref  0000000180019090 f   libucrt:locale_refcounting.obj
 0001:00018138       __acrt_update_thread_locale_data 0000000180019138 f   libucrt:locale_refcounting.obj
 0001:000181a8       _updatetlocinfoEx_nolock   00000001800191a8 f   libucrt:locale_refcounting.obj
 0001:00018210       __acrt_fp_strflt_to_string 0000000180019210 f   libucrt:_fptostr.obj
 0001:000182d0       ?divide@__crt_strtox@@YA_KAEAUbig_integer@1@AEBU21@@Z 00000001800192d0 f i libucrt:cfout.obj
 0001:000187a0       __acrt_fltout              00000001800197a0 f   libucrt:cfout.obj
 0001:00019da4       __acrt_stdio_flush_and_write_narrow_nolock 000000018001ada4 f   libucrt:_flsbuf.obj
 0001:00019e8c       __acrt_stdio_flush_and_write_wide_nolock 000000018001ae8c f   libucrt:_flsbuf.obj
 0001:00019f78       _fcloseall                 000000018001af78 f   libucrt:closeall.obj
 0001:0001a02c       __acrt_stdio_free_buffer_nolock 000000018001b02c f   libucrt:_freebuf.obj
 0001:0001a06c       _isatty                    000000018001b06c f   libucrt:isatty.obj
 0001:0001a0cc       __acrt_locale_free_monetary 000000018001b0cc f   libucrt:initmon.obj
 0001:0001a1d8       __acrt_locale_free_numeric 000000018001b1d8 f   libucrt:initnum.obj
 0001:0001a29c       __acrt_locale_free_time    000000018001b29c f   libucrt:inittime.obj
 0001:0001a3a4       __acrt_GetStringTypeA      000000018001b3a4 f   libucrt:getstringtypea.obj
 0001:0001a558       __acrt_lowio_create_handle_array 000000018001b558 f   libucrt:osfinfo.obj
 0001:0001a5f0       __acrt_lowio_destroy_handle_array 000000018001b5f0 f   libucrt:osfinfo.obj
 0001:0001a640       __acrt_lowio_ensure_fh_exists 000000018001b640 f   libucrt:osfinfo.obj
 0001:0001a6f8       __acrt_lowio_lock_fh       000000018001b6f8 f   libucrt:osfinfo.obj
 0001:0001a71c       __acrt_lowio_unlock_fh     000000018001b71c f   libucrt:osfinfo.obj
 0001:0001a740       _free_osfhnd               000000018001b740 f   libucrt:osfinfo.obj
 0001:0001a7fc       _get_osfhandle             000000018001b7fc f   libucrt:osfinfo.obj
 0001:0001a874       ??$?RV<lambda_b521505b218e5242e90febf6bfebc422>@@AEAV<lambda_6978c1fb23f02e42e1d9e99668cc68aa>@@V<lambda_314360699dd331753a4119843814e9a7>@@@?$__crt_seh_guarded_call@H@@QEAAH$$QEAV<lambda_b521505b218e5242e90febf6bfebc422>@@AEAV<lambda_6978c1fb23f02e42e1d9e99668cc68aa>@@$$QEAV<lambda_314360699dd331753a4119843814e9a7>@@@Z 000000018001b874 f i libucrt:commit.obj
 0001:0001a900       _commit                    000000018001b900 f   libucrt:commit.obj
 0001:0001af34       _write                     000000018001bf34 f   libucrt:write.obj
 0001:0001b020       _write_nolock              000000018001c020 f   libucrt:write.obj
 0001:0001b304       __acrt_LCMapStringW        000000018001c304 f   libucrt:lcmapstringw.obj
 0001:0001b454       __acrt_DownlevelLocaleNameToLCID 000000018001c454 f   libucrt:lcidtoname_downlevel.obj
 0001:0001b560       qsort                      000000018001c560 f   libucrt:qsort.obj
 0001:0001b894       strncpy_s                  000000018001c894 f   libucrt:strncpy_s.obj
 0001:0001b968       strpbrk                    000000018001c968 f   libucrt:strpbrk.obj
 0001:0001ba08       _mbsdec                    000000018001ca08 f   libucrt:mbsdec.obj
 0001:0001ba10       _mbsdec_l                  000000018001ca10 f   libucrt:mbsdec.obj
 0001:0001bac0       _msize                     000000018001cac0 f   libucrt:msize.obj
 0001:0001bafc       _realloc_base              000000018001cafc f   libucrt:realloc_base.obj
 0001:0001bb80       __strncnt                  000000018001cb80 f   libucrt:strncnt.obj
 0001:0001bb98       fegetenv                   000000018001cb98 f   libucrt:fegetenv.obj
 0001:0001bbb8       fesetenv                   000000018001cbb8 f   libucrt:fesetenv.obj
 0001:0001bc04       feholdexcept               000000018001cc04 f   libucrt:feholdexcept.obj
 0001:0001bc54       ceil                       000000018001cc54 f   libucrt:ceil.obj
 0001:0001bd20       log10                      000000018001cd20 f   libucrt:log10.obj
 0001:0001c458       _lseeki64                  000000018001d458 f   libucrt:lseek.obj
 0001:0001c460       _lseeki64_nolock           000000018001d460 f   libucrt:lseek.obj
 0001:0001c468       __acrt_stdio_allocate_buffer_nolock 000000018001d468 f   libucrt:_getbuf.obj
 0001:0001c4cc       _fclose_nolock             000000018001d4cc f   libucrt:fclose.obj
 0001:0001c550       fclose                     000000018001d550 f   libucrt:fclose.obj
 0001:0001c5bc       _putwch_nolock             000000018001d5bc f   libucrt:putwch.obj
 0001:0001c618       _getfpcontrolword          000000018001d618 f   libucrt:_fenvutils.obj
 0001:0001c630       _getfpstatusword           000000018001d630 f   libucrt:_fenvutils.obj
 0001:0001c644       _setfpcontrolword          000000018001d644 f   libucrt:_fenvutils.obj
 0001:0001c650       _setfpstatusword           000000018001d650 f   libucrt:_fenvutils.obj
 0001:0001c6a0       _clearfp                   000000018001d6a0 f   libucrt:ieee.obj
 0001:0001c6f4       _controlfp                 000000018001d6f4 f   libucrt:ieee.obj
 0001:0001c700       _statusfp                  000000018001d700 f   libucrt:ieee.obj
 0001:0001cb04       _handle_error              000000018001db04 f   libucrt:libm_error.obj
 0001:0001cc2c       _handle_nan                000000018001dc2c f   libucrt:libm_error.obj
 0001:0001cc50       __acrt_initialize_fma3     000000018001dc50 f   libucrt:fma3_available.obj
 0001:0001ccc0       _log10_special             000000018001dcc0 f   libucrt:log_special.obj
 0001:0001cd78       ??$?RV<lambda_bfedae4ebbf01fab1bb6dcc6a9e276e0>@@AEAV<lambda_2fe9b910cf3cbf4a0ab98a02ba45b3ec>@@V<lambda_237c231691f317818eb88cc1d5d642d6>@@@?$__crt_seh_guarded_call@H@@QEAAH$$QEAV<lambda_bfedae4ebbf01fab1bb6dcc6a9e276e0>@@AEAV<lambda_2fe9b910cf3cbf4a0ab98a02ba45b3ec>@@$$QEAV<lambda_237c231691f317818eb88cc1d5d642d6>@@@Z 000000018001dd78 f i libucrt:close.obj
 0001:0001cdec       _close                     000000018001ddec f   libucrt:close.obj
 0001:0001ce90       _close_nolock              000000018001de90 f   libucrt:close.obj
 0001:0001cf4c       ?__acrt_stdio_free_stream@@YAXV__crt_stdio_stream@@@Z 000000018001df4c f   libucrt:stream.obj
 0001:0001cf90       __dcrt_lowio_initialize_console_output 000000018001df90 f   libucrt:initcon.obj
 0001:0001cfcc       __dcrt_terminate_console_output 000000018001dfcc f   libucrt:initcon.obj
 0001:0001d000       _get_fpsr                  000000018001e000 f   libucrt:fpsr.obj
 0001:0001d010       _set_fpsr                  000000018001e010 f   libucrt:fpsr.obj
 0001:0001d01a       _fclrf                     000000018001e01a f   libucrt:fpsr.obj
 0001:0001d02e       _frnd                      000000018001e02e f   libucrt:fpsr.obj
 0001:0001d050       _raise_exc                 000000018001e050 f   libucrt:fpexcept.obj
 0001:0001d078       _raise_exc_ex              000000018001e078 f   libucrt:fpexcept.obj
 0001:0001d380       _set_errno_from_matherr    000000018001e380 f   libucrt:fpexcept.obj
 0001:0001d3b0       _clrfp                     000000018001e3b0 f   libucrt:fpctrl.obj
 0001:0001d3d0       _ctrlfp                    000000018001e3d0 f   libucrt:fpctrl.obj
 0001:0001d44c       _set_statfp                000000018001e44c f   libucrt:fpctrl.obj
 0001:0001d46c       _statfp                    000000018001e46c f   libucrt:fpctrl.obj
 0001:0001d47e       IsProcessorFeaturePresent  000000018001e47e f   kernel32:KERNEL32.dll
 0001:0001d484       RtlUnwindEx                000000018001e484 f   kernel32:KERNEL32.dll
 0001:0001d48c       ?DloadAcquireSectionWriteAccess@@YAXXZ 000000018001e48c f i DelayImp:delayhlp.obj
 0001:0001d548       ?DloadGetSRWLockFunctionPointers@@YAEXZ 000000018001e548 f i DelayImp:delayhlp.obj
 0001:0001d5e4       ?DloadMakePermanentImageCommit@@YAXPEAX_K@Z 000000018001e5e4 f i DelayImp:delayhlp.obj
 0001:0001d67c       ?DloadObtainSection@@YAPEAXPEAK0@Z 000000018001e67c f i DelayImp:delayhlp.obj
 0001:0001d714       ?DloadProtectSection@@YAXKPEAK@Z 000000018001e714 f i DelayImp:delayhlp.obj
 0001:0001d7a4       ?DloadReleaseSectionWriteAccess@@YAXXZ 000000018001e7a4 f i DelayImp:delayhlp.obj
 0001:0001d848       __delayLoadHelper2         000000018001e848 f   DelayImp:delayhlp.obj
 0001:0001db50       _FindPESection             000000018001eb50 f   LIBCMT:pesect.obj
 0001:0001dba0       _IsNonwritableInCurrentImage 000000018001eba0 f   LIBCMT:pesect.obj
 0001:0001dbf0       _ValidateImageBase         000000018001ebf0 f   LIBCMT:pesect.obj
 0001:0001dc20       __GSHandlerCheck           000000018001ec20 f   LIBCMT:_gshandler_.obj
 0001:0001dc40       __GSHandlerCheckCommon     000000018001ec40 f   LIBCMT:_gshandler_.obj
 0001:0001dcb0       _alloca_probe              000000018001ecb0 f   LIBCMT:_chkstk_.obj
 0001:0001dcb0       __chkstk                   000000018001ecb0 f   LIBCMT:_chkstk_.obj
 0001:0001dd04       strrchr                    000000018001ed04 f   libvcruntime:strrchr.obj
 0001:0001de60       memcmp                     000000018001ee60 f   libvcruntime:memcmp.obj
 0001:0001df40       _guard_dispatch_icall_nop  000000018001ef40 f   LIBCMT:_guard_dispatch_.obj
 0002:00000000       __imp_FormatMessageW       0000000180020000     kernel32:KERNEL32.dll
 0002:00000008       __imp_GetModuleHandleA     0000000180020008     kernel32:KERNEL32.dll
 0002:00000010       __imp_VirtualQuery         0000000180020010     kernel32:KERNEL32.dll
 0002:00000018       __imp_VirtualProtect       0000000180020018     kernel32:KERNEL32.dll
 0002:00000020       __imp_GetSystemInfo        0000000180020020     kernel32:KERNEL32.dll
 0002:00000028       __imp_CreateFileW          0000000180020028     kernel32:KERNEL32.dll
 0002:00000030       __imp_SetFilePointerEx     0000000180020030     kernel32:KERNEL32.dll
 0002:00000038       __imp_HeapReAlloc          0000000180020038     kernel32:KERNEL32.dll
 0002:00000040       __imp_HeapSize             0000000180020040     kernel32:KERNEL32.dll
 0002:00000048       __imp_GetConsoleMode       0000000180020048     kernel32:KERNEL32.dll
 0002:00000050       __imp_GetConsoleCP         0000000180020050     kernel32:KERNEL32.dll
 0002:00000058       __imp_FlushFileBuffers     0000000180020058     kernel32:KERNEL32.dll
 0002:00000060       __imp_SetStdHandle         0000000180020060     kernel32:KERNEL32.dll
 0002:00000068       __imp_GetStringTypeW       0000000180020068     kernel32:KERNEL32.dll
 0002:00000070       __imp_GetProcessHeap       0000000180020070     kernel32:KERNEL32.dll
 0002:00000078       __imp_FreeEnvironmentStringsW 0000000180020078     kernel32:KERNEL32.dll
 0002:00000080       __imp_RtlCaptureContext    0000000180020080     kernel32:KERNEL32.dll
 0002:00000088       __imp_RtlLookupFunctionEntry 0000000180020088     kernel32:KERNEL32.dll
 0002:00000090       __imp_RtlVirtualUnwind     0000000180020090     kernel32:KERNEL32.dll
 0002:00000098       __imp_UnhandledExceptionFilter 0000000180020098     kernel32:KERNEL32.dll
 0002:000000a0       __imp_SetUnhandledExceptionFilter 00000001800200a0     kernel32:KERNEL32.dll
 0002:000000a8       __imp_GetCurrentProcess    00000001800200a8     kernel32:KERNEL32.dll
 0002:000000b0       __imp_TerminateProcess     00000001800200b0     kernel32:KERNEL32.dll
 0002:000000b8       __imp_IsProcessorFeaturePresent 00000001800200b8     kernel32:KERNEL32.dll
 0002:000000c0       __imp_IsDebuggerPresent    00000001800200c0     kernel32:KERNEL32.dll
 0002:000000c8       __imp_GetStartupInfoW      00000001800200c8     kernel32:KERNEL32.dll
 0002:000000d0       __imp_GetModuleHandleW     00000001800200d0     kernel32:KERNEL32.dll
 0002:000000d8       __imp_QueryPerformanceCounter 00000001800200d8     kernel32:KERNEL32.dll
 0002:000000e0       __imp_GetCurrentProcessId  00000001800200e0     kernel32:KERNEL32.dll
 0002:000000e8       __imp_GetCurrentThreadId   00000001800200e8     kernel32:KERNEL32.dll
 0002:000000f0       __imp_GetSystemTimeAsFileTime 00000001800200f0     kernel32:KERNEL32.dll
 0002:000000f8       __imp_InitializeSListHead  00000001800200f8     kernel32:KERNEL32.dll
 0002:00000100       __imp_RtlPcToFileHeader    0000000180020100     kernel32:KERNEL32.dll
 0002:00000108       __imp_RaiseException       0000000180020108     kernel32:KERNEL32.dll
 0002:00000110       __imp_RtlUnwindEx          0000000180020110     kernel32:KERNEL32.dll
 0002:00000118       __imp_InterlockedFlushSList 0000000180020118     kernel32:KERNEL32.dll
 0002:00000120       __imp_GetLastError         0000000180020120     kernel32:KERNEL32.dll
 0002:00000128       __imp_SetLastError         0000000180020128     kernel32:KERNEL32.dll
 0002:00000130       __imp_EnterCriticalSection 0000000180020130     kernel32:KERNEL32.dll
 0002:00000138       __imp_LeaveCriticalSection 0000000180020138     kernel32:KERNEL32.dll
 0002:00000140       __imp_DeleteCriticalSection 0000000180020140     kernel32:KERNEL32.dll
 0002:00000148       __imp_InitializeCriticalSectionAndSpinCount 0000000180020148     kernel32:KERNEL32.dll
 0002:00000150       __imp_TlsAlloc             0000000180020150     kernel32:KERNEL32.dll
 0002:00000158       __imp_TlsGetValue          0000000180020158     kernel32:KERNEL32.dll
 0002:00000160       __imp_TlsSetValue          0000000180020160     kernel32:KERNEL32.dll
 0002:00000168       __imp_TlsFree              0000000180020168     kernel32:KERNEL32.dll
 0002:00000170       __imp_FreeLibrary          0000000180020170     kernel32:KERNEL32.dll
 0002:00000178       __imp_GetProcAddress       0000000180020178     kernel32:KERNEL32.dll
 0002:00000180       __imp_LoadLibraryExW       0000000180020180     kernel32:KERNEL32.dll
 0002:00000188       __imp_GetStdHandle         0000000180020188     kernel32:KERNEL32.dll
 0002:00000190       __imp_GetFileType          0000000180020190     kernel32:KERNEL32.dll
 0002:00000198       __imp_GetModuleFileNameA   0000000180020198     kernel32:KERNEL32.dll
 0002:000001a0       __imp_GetModuleFileNameW   00000001800201a0     kernel32:KERNEL32.dll
 0002:000001a8       __imp_GetModuleHandleExW   00000001800201a8     kernel32:KERNEL32.dll
 0002:000001b0       __imp_WriteConsoleW        00000001800201b0     kernel32:KERNEL32.dll
 0002:000001b8       __imp_ExitProcess          00000001800201b8     kernel32:KERNEL32.dll
 0002:000001c0       __imp_MultiByteToWideChar  00000001800201c0     kernel32:KERNEL32.dll
 0002:000001c8       __imp_WideCharToMultiByte  00000001800201c8     kernel32:KERNEL32.dll
 0002:000001d0       __imp_HeapFree             00000001800201d0     kernel32:KERNEL32.dll
 0002:000001d8       __imp_HeapAlloc            00000001800201d8     kernel32:KERNEL32.dll
 0002:000001e0       __imp_GetACP               00000001800201e0     kernel32:KERNEL32.dll
 0002:000001e8       __imp_WriteFile            00000001800201e8     kernel32:KERNEL32.dll
 0002:000001f0       __imp_OutputDebugStringW   00000001800201f0     kernel32:KERNEL32.dll
 0002:000001f8       __imp_CloseHandle          00000001800201f8     kernel32:KERNEL32.dll
 0002:00000200       __imp_WaitForSingleObjectEx 0000000180020200     kernel32:KERNEL32.dll
 0002:00000208       __imp_CreateThread         0000000180020208     kernel32:KERNEL32.dll
 0002:00000210       __imp_LCMapStringW         0000000180020210     kernel32:KERNEL32.dll
 0002:00000218       __imp_FindClose            0000000180020218     kernel32:KERNEL32.dll
 0002:00000220       __imp_FindFirstFileExA     0000000180020220     kernel32:KERNEL32.dll
 0002:00000228       __imp_FindNextFileA        0000000180020228     kernel32:KERNEL32.dll
 0002:00000230       __imp_IsValidCodePage      0000000180020230     kernel32:KERNEL32.dll
 0002:00000238       __imp_GetOEMCP             0000000180020238     kernel32:KERNEL32.dll
 0002:00000240       __imp_GetCPInfo            0000000180020240     kernel32:KERNEL32.dll
 0002:00000248       __imp_GetCommandLineA      0000000180020248     kernel32:KERNEL32.dll
 0002:00000250       __imp_GetCommandLineW      0000000180020250     kernel32:KERNEL32.dll
 0002:00000258       __imp_GetEnvironmentStringsW 0000000180020258     kernel32:KERNEL32.dll
 0002:00000260       __imp_LoadLibraryExA       0000000180020260     kernel32:KERNEL32.dll
 0002:00000268       \177KERNEL32_NULL_THUNK_DATA 0000000180020268     kernel32:KERNEL32.dll
 0002:00000270       __imp_VariantCopyInd       0000000180020270     oleaut32:OLEAUT32.dll
 0002:00000278       __imp_SysFreeString        0000000180020278     oleaut32:OLEAUT32.dll
 0002:00000280       __imp_GetErrorInfo         0000000180020280     oleaut32:OLEAUT32.dll
 0002:00000288       __imp_GetActiveObject      0000000180020288     oleaut32:OLEAUT32.dll
 0002:00000290       __imp_SafeArrayRedim       0000000180020290     oleaut32:OLEAUT32.dll
 0002:00000298       __imp_SafeArrayGetElement  0000000180020298     oleaut32:OLEAUT32.dll
 0002:000002a0       __imp_SysAllocString       00000001800202a0     oleaut32:OLEAUT32.dll
 0002:000002a8       __imp_SafeArrayCreateVector 00000001800202a8     oleaut32:OLEAUT32.dll
 0002:000002b0       __imp_VariantChangeType    00000001800202b0     oleaut32:OLEAUT32.dll
 0002:000002b8       __imp_VariantClear         00000001800202b8     oleaut32:OLEAUT32.dll
 0002:000002c0       \177OLEAUT32_NULL_THUNK_DATA 00000001800202c0     oleaut32:OLEAUT32.dll
 0002:000002c8       __imp_CoCreateInstance     00000001800202c8     ole32:ole32.dll
 0002:000002d0       __imp_CoUninitialize       00000001800202d0     ole32:ole32.dll
 0002:000002d8       __imp_CoInitialize         00000001800202d8     ole32:ole32.dll
 0002:000002e0       __imp_CLSIDFromProgID      00000001800202e0     ole32:ole32.dll
 0002:000002e8       \177ole32_NULL_THUNK_DATA  00000001800202e8     ole32:ole32.dll
 0002:000002f0       __guard_check_icall_fptr   00000001800202f0     LIBCMT:guard_support.obj
 0002:000002f8       __guard_dispatch_icall_fptr 00000001800202f8     LIBCMT:guard_support.obj
 0002:00000300       __xc_a                     0000000180020300     LIBCMT:initializers.obj
 0002:00000318       _register_node_activex_    0000000180020318     main.obj
 0002:00000320       __xc_z                     0000000180020320     LIBCMT:initializers.obj
 0002:00000328       __xi_a                     0000000180020328     LIBCMT:initializers.obj
 0002:00000330       __acrt_stdio_initializer   0000000180020330     libucrt:stdio_initializer.obj
 0002:00000338       __acrt_multibyte_initializer 0000000180020338     libucrt:multibyte_initializer.obj
 0002:00000340       __acrt_tran_fma3_initializer 0000000180020340     libucrt:fma3_initializer.obj
 0002:00000348       __xi_z                     0000000180020348     LIBCMT:initializers.obj
 0002:00000350       __xp_a                     0000000180020350     LIBCMT:initializers.obj
 0002:00000358       __acrt_locale_terminator   0000000180020358     libucrt:locale_initializer.obj
 0002:00000360       __dcrt_console_output_terminator 0000000180020360     libucrt:console_output_initializer.obj
 0002:00000368       __acrt_stdio_terminator    0000000180020368     libucrt:stdio_initializer.obj
 0002:00000370       __xp_z                     0000000180020370     LIBCMT:initializers.obj
 0002:00000378       __xt_a                     0000000180020378     LIBCMT:initializers.obj
 0002:00000380       __xt_z                     0000000180020380     LIBCMT:initializers.obj
 0002:00000390       IID_IUnknown               0000000180020390     uuid:unknwn_i.obj
 0002:000003a0       GUID_NULL                  00000001800203a0     uuid:cguid_i.obj
 0002:000003b0       __sz_node_exe              00000001800203b0     node:node.exe
 0002:000003c8       ??_7exception@std@@6B@     00000001800203c8     libcpmt:xthrow.obj
 0002:000003d8       ??_C@_0BC@EOODALEL@Unknown?5exception?$AA@ 00000001800203d8     libcpmt:xthrow.obj
 0002:000003f8       ??_7bad_alloc@std@@6B@     00000001800203f8     libcpmt:xthrow.obj
 0002:00000408       ??_C@_0P@GHFPNOJB@bad?5allocation?$AA@ 0000000180020408     libcpmt:xthrow.obj
 0002:00000420       ??_7logic_error@std@@6B@   0000000180020420     libcpmt:xthrow.obj
 0002:00000438       ??_7length_error@std@@6B@  0000000180020438     libcpmt:xthrow.obj
 0002:00000450       ??_7out_of_range@std@@6B@  0000000180020450     libcpmt:xthrow.obj
 0002:00000460       _pDefaultRawDllMain        0000000180020460     LIBCMT:dll_dllmain.obj
 0002:00000460       _pRawDllMain               0000000180020460     LIBCMT:dll_dllmain.obj
 0002:00000470       ??_7type_info@@6B@         0000000180020470     LIBCMT:std_type_info_static.obj
 0002:00000490       ??_7bad_array_new_length@std@@6B@ 0000000180020490     LIBCMT:throw_bad_alloc.obj
 0002:000004a0       ??_C@_0BF@KINCDENJ@bad?5array?5new?5length?$AA@ 00000001800204a0     LIBCMT:throw_bad_alloc.obj
 0002:00000520       ??_C@_1BC@DNHGCMLG@?$AAa?$AAd?$AAv?$AAa?$AAp?$AAi?$AA3?$AA2?$AA?$AA@ 0000000180020520     libvcruntime:winapi_downlevel.obj
 0002:00000538       ??_C@_1DM@KHCHBNEB@?$AAa?$AAp?$AAi?$AA?9?$AAm?$AAs?$AA?9?$AAw?$AAi?$AAn?$AA?9?$AAc?$AAo?$AAr?$AAe?$AA?9?$AAf?$AAi?$AAb?$AAe?$AAr?$AAs?$AA?9?$AAl?$AA1?$AA?9?$AA1?$AA?9?$AA1?$AA?$AA@ 0000000180020538     libvcruntime:winapi_downlevel.obj
 0002:00000578       ??_C@_1DK@LPPGFMPP@?$AAa?$AAp?$AAi?$AA?9?$AAm?$AAs?$AA?9?$AAw?$AAi?$AAn?$AA?9?$AAc?$AAo?$AAr?$AAe?$AA?9?$AAs?$AAy?$AAn?$AAc?$AAh?$AA?9?$AAl?$AA1?$AA?9?$AA2?$AA?9?$AA0?$AA?$AA@ 0000000180020578     libvcruntime:winapi_downlevel.obj
 0002:000005b8       ??_C@_1BC@GDMECMAK@?$AAk?$AAe?$AAr?$AAn?$AAe?$AAl?$AA3?$AA2?$AA?$AA@ 00000001800205b8     libvcruntime:winapi_downlevel.obj
 0002:000005d8       ??_C@_08KNHFBNJ@FlsAlloc?$AA@ 00000001800205d8     libvcruntime:winapi_downlevel.obj
 0002:000005f0       ??_C@_07PEJMOBNF@FlsFree?$AA@ 00000001800205f0     libvcruntime:winapi_downlevel.obj
 0002:00000600       ??_C@_0M@GDNOONDI@FlsGetValue?$AA@ 0000000180020600     libvcruntime:winapi_downlevel.obj
 0002:00000618       ??_C@_0M@JCPCPOEF@FlsSetValue?$AA@ 0000000180020618     libvcruntime:winapi_downlevel.obj
 0002:00000630       ??_C@_0BM@HCFOFFN@InitializeCriticalSectionEx?$AA@ 0000000180020630     libvcruntime:winapi_downlevel.obj
 0002:00000970       ??_C@_08EHJDFFNH@__based?$CI?$AA@ 0000000180020970     libvcruntime:undname.obj
 0002:00000980       ??_C@_07KOLFKCDI@__cdecl?$AA@ 0000000180020980     libvcruntime:undname.obj
 0002:00000988       ??_C@_08GHMPAG@__pascal?$AA@ 0000000180020988     libvcruntime:undname.obj
 0002:00000998       ??_C@_09IFJBGAPI@__stdcall?$AA@ 0000000180020998     libvcruntime:undname.obj
 0002:000009a8       ??_C@_0L@NPHFGOKO@__thiscall?$AA@ 00000001800209a8     libvcruntime:undname.obj
 0002:000009b8       ??_C@_0L@JMKHOMEK@__fastcall?$AA@ 00000001800209b8     libvcruntime:undname.obj
 0002:000009c8       ??_C@_0N@BCKKPABJ@__vectorcall?$AA@ 00000001800209c8     libvcruntime:undname.obj
 0002:000009d8       ??_C@_09HIJEGCPM@__clrcall?$AA@ 00000001800209d8     libvcruntime:undname.obj
 0002:000009e4       ??_C@_06GHPCKEAG@__eabi?$AA@ 00000001800209e4     libvcruntime:undname.obj
 0002:000009f0       ??_C@_07JOMMBBKO@__ptr64?$AA@ 00000001800209f0     libvcruntime:undname.obj
 0002:000009f8       ??_C@_0L@PILCLIHE@__restrict?$AA@ 00000001800209f8     libvcruntime:undname.obj
 0002:00000a08       ??_C@_0M@GFIIJFMG@__unaligned?$AA@ 0000000180020a08     libvcruntime:undname.obj
 0002:00000a18       ??_C@_09DHDLOLLB@restrict?$CI?$AA@ 0000000180020a18     libvcruntime:undname.obj
 0002:00000a22       ??_C@_00CNPNBAHC@?$AA@     0000000180020a22     libvcruntime:undname.obj
 0002:00000a24       ??_C@_04NIHEBCM@?5new?$AA@ 0000000180020a24     libvcruntime:undname.obj
 0002:00000a30       ??_C@_07FPCDHGMM@?5delete?$AA@ 0000000180020a30     libvcruntime:undname.obj
 0002:00000a38       ??_C@_01NEMOKFLO@?$DN?$AA@ 0000000180020a38     libvcruntime:undname.obj
 0002:00000a3c       ??_C@_02GPIOPFAK@?$DO?$DO?$AA@ 0000000180020a3c     libvcruntime:undname.obj
 0002:00000a40       ??_C@_02FODMEDOG@?$DM?$DM?$AA@ 0000000180020a40     libvcruntime:undname.obj
 0002:00000a44       ??_C@_01DCLJPIOD@?$CB?$AA@ 0000000180020a44     libvcruntime:undname.obj
 0002:00000a48       ??_C@_02EGOFBIJA@?$DN?$DN?$AA@ 0000000180020a48     libvcruntime:undname.obj
 0002:00000a4c       ??_C@_02FDNJECIE@?$CB?$DN?$AA@ 0000000180020a4c     libvcruntime:undname.obj
 0002:00000a50       ??_C@_02GPECMEKF@?$FL?$FN?$AA@ 0000000180020a50     libvcruntime:undname.obj
 0002:00000a58       ??_C@_08LHJFAFGD@operator?$AA@ 0000000180020a58     libvcruntime:undname.obj
 0002:00000a64       ??_C@_02HBOOOICD@?9?$DO?$AA@ 0000000180020a64     libvcruntime:undname.obj
 0002:00000a68       ??_C@_01NBENCBCI@?$CK?$AA@ 0000000180020a68     libvcruntime:undname.obj
 0002:00000a6c       ??_C@_02ECNGHCIF@?$CL?$CL?$AA@ 0000000180020a6c     libvcruntime:undname.obj
 0002:00000a70       ??_C@_02BAABKJLB@?9?9?$AA@ 0000000180020a70     libvcruntime:undname.obj
 0002:00000a74       ??_C@_01JOAMLHOP@?9?$AA@   0000000180020a74     libvcruntime:undname.obj
 0002:00000a78       ??_C@_01MIFGBAGJ@?$CL?$AA@ 0000000180020a78     libvcruntime:undname.obj
 0002:00000a7c       ??_C@_01HNPIGOCE@?$CG?$AA@ 0000000180020a7c     libvcruntime:undname.obj
 0002:00000a80       ??_C@_03MNHNFDLC@?9?$DO?$CK?$AA@ 0000000180020a80     libvcruntime:undname.obj
 0002:00000a84       ??_C@_01KMDKNFGN@?1?$AA@   0000000180020a84     libvcruntime:undname.obj
 0002:00000a88       ??_C@_01FGNFDNOH@?$CF?$AA@ 0000000180020a88     libvcruntime:undname.obj
 0002:00000a8c       ??_C@_01MNNFJEPP@?$DM?$AA@ 0000000180020a8c     libvcruntime:undname.obj
 0002:00000a90       ??_C@_02EHCHHCKH@?$DM?$DN?$AA@ 0000000180020a90     libvcruntime:undname.obj
 0002:00000a94       ??_C@_01PPODPGHN@?$DO?$AA@ 0000000180020a94     libvcruntime:undname.obj
 0002:00000a98       ??_C@_02EEKDKGMJ@?$DO?$DN?$AA@ 0000000180020a98     libvcruntime:undname.obj
 0002:00000a9c       ??_C@_01IHBHIGKO@?0?$AA@   0000000180020a9c     libvcruntime:undname.obj
 0002:00000aa0       ??_C@_02HCKGKOFO@?$CI?$CJ?$AA@ 0000000180020aa0     libvcruntime:undname.obj
 0002:00000aa4       ??_C@_01PJKLJHI@?$HO?$AA@  0000000180020aa4     libvcruntime:undname.obj
 0002:00000aa8       ??_C@_01JKBOJNNK@?$FO?$AA@ 0000000180020aa8     libvcruntime:undname.obj
 0002:00000aac       ??_C@_01DNKMNLPK@?$HM?$AA@ 0000000180020aac     libvcruntime:undname.obj
 0002:00000ab0       ??_C@_02PPKAJPJL@?$CG?$CG?$AA@ 0000000180020ab0     libvcruntime:undname.obj
 0002:00000ab4       ??_C@_02NONPIBCD@?$HM?$HM?$AA@ 0000000180020ab4     libvcruntime:undname.obj
 0002:00000ab8       ??_C@_02FPIMKNGF@?$CK?$DN?$AA@ 0000000180020ab8     libvcruntime:undname.obj
 0002:00000abc       ??_C@_02FOEOMHFC@?$CL?$DN?$AA@ 0000000180020abc     libvcruntime:undname.obj
 0002:00000ac0       ??_C@_02FKMDLLOA@?9?$DN?$AA@ 0000000180020ac0     libvcruntime:undname.obj
 0002:00000ac4       ??_C@_02FJEHGPIO@?1?$DN?$AA@ 0000000180020ac4     libvcruntime:undname.obj
 0002:00000ac8       ??_C@_02FENAOKFI@?$CF?$DN?$AA@ 0000000180020ac8     libvcruntime:undname.obj
 0002:00000acc       ??_C@_03IKFCCPFF@?$DO?$DO?$DN?$AA@ 0000000180020acc     libvcruntime:undname.obj
 0002:00000ad0       ??_C@_03CDNPDDLA@?$DM?$DM?$DN?$AA@ 0000000180020ad0     libvcruntime:undname.obj
 0002:00000ad4       ??_C@_02FGJGFEAB@?$CG?$DN?$AA@ 0000000180020ad4     libvcruntime:undname.obj
 0002:00000ad8       ??_C@_02DHLNPPGH@?$HM?$DN?$AA@ 0000000180020ad8     libvcruntime:undname.obj
 0002:00000adc       ??_C@_02MHEGNOJ@?$FO?$DN?$AA@ 0000000180020adc     libvcruntime:undname.obj
 0002:00000ae0       ??_C@_09IFPLHPGF@?$GAvftable?8?$AA@ 0000000180020ae0     libvcruntime:undname.obj
 0002:00000af0       ??_C@_09BLBHBJP@?$GAvbtable?8?$AA@ 0000000180020af0     libvcruntime:undname.obj
 0002:00000b00       ??_C@_07FEEIOKP@?$GAvcall?8?$AA@ 0000000180020b00     libvcruntime:undname.obj
 0002:00000b08       ??_C@_08LLFFHHDJ@?$GAtypeof?8?$AA@ 0000000180020b08     libvcruntime:undname.obj
 0002:00000b18       ??_C@_0BF@KDPPACIK@?$GAlocal?5static?5guard?8?$AA@ 0000000180020b18     libvcruntime:undname.obj
 0002:00000b30       ??_C@_08OBABFOLI@?$GAstring?8?$AA@ 0000000180020b30     libvcruntime:undname.obj
 0002:00000b40       ??_C@_0BD@JDLKDPAB@?$GAvbase?5destructor?8?$AA@ 0000000180020b40     libvcruntime:undname.obj
 0002:00000b58       ??_C@_0BN@DEGPLNFK@?$GAvector?5deleting?5destructor?8?$AA@ 0000000180020b58     libvcruntime:undname.obj
 0002:00000b78       ??_C@_0BO@OBMKPJIG@?$GAdefault?5constructor?5closure?8?$AA@ 0000000180020b78     libvcruntime:undname.obj
 0002:00000b98       ??_C@_0BN@IMDCHIKM@?$GAscalar?5deleting?5destructor?8?$AA@ 0000000180020b98     libvcruntime:undname.obj
 0002:00000bb8       ??_C@_0BO@PFGOCPJJ@?$GAvector?5constructor?5iterator?8?$AA@ 0000000180020bb8     libvcruntime:undname.obj
 0002:00000bd8       ??_C@_0BN@LFPFMEDL@?$GAvector?5destructor?5iterator?8?$AA@ 0000000180020bd8     libvcruntime:undname.obj
 0002:00000bf8       ??_C@_0CE@IKBNEHA@?$GAvector?5vbase?5constructor?5iterat@ 0000000180020bf8     libvcruntime:undname.obj
 0002:00000c20       ??_C@_0BL@NILFHHPC@?$GAvirtual?5displacement?5map?8?$AA@ 0000000180020c20     libvcruntime:undname.obj
 0002:00000c40       ??_C@_0CB@JONCMFFK@?$GAeh?5vector?5constructor?5iterator?8@ 0000000180020c40     libvcruntime:undname.obj
 0002:00000c68       ??_C@_0CA@GCEOPDGL@?$GAeh?5vector?5destructor?5iterator?8?$AA@ 0000000180020c68     libvcruntime:undname.obj
 0002:00000c88       ??_C@_0CH@OOJPLCPH@?$GAeh?5vector?5vbase?5constructor?5ite@ 0000000180020c88     libvcruntime:undname.obj
 0002:00000cb0       ??_C@_0BL@LLKPOHJI@?$GAcopy?5constructor?5closure?8?$AA@ 0000000180020cb0     libvcruntime:undname.obj
 0002:00000cd0       ??_C@_0BA@KBCDOMBN@?$GAudt?5returning?8?$AA@ 0000000180020cd0     libvcruntime:undname.obj
 0002:00000ce0       ??_C@_03KLGMFNMG@?$GAEH?$AA@ 0000000180020ce0     libvcruntime:undname.obj
 0002:00000ce4       ??_C@_05KHLCHHI@?$GARTTI?$AA@ 0000000180020ce4     libvcruntime:undname.obj
 0002:00000cf0       ??_C@_0BA@KKLDJDLB@?$GAlocal?5vftable?8?$AA@ 0000000180020cf0     libvcruntime:undname.obj
 0002:00000d00       ??_C@_0CE@IIHCMGGL@?$GAlocal?5vftable?5constructor?5closu@ 0000000180020d00     libvcruntime:undname.obj
 0002:00000d24       ??_C@_06FHBGPFGH@?5new?$FL?$FN?$AA@ 0000000180020d24     libvcruntime:undname.obj
 0002:00000d30       ??_C@_09LBNFPBCA@?5delete?$FL?$FN?$AA@ 0000000180020d30     libvcruntime:undname.obj
 0002:00000d40       ??_C@_0P@HJKNJFNN@?$GAomni?5callsig?8?$AA@ 0000000180020d40     libvcruntime:undname.obj
 0002:00000d50       ??_C@_0BL@CNOONJFP@?$GAplacement?5delete?5closure?8?$AA@ 0000000180020d50     libvcruntime:undname.obj
 0002:00000d70       ??_C@_0BN@CKNJLHMB@?$GAplacement?5delete?$FL?$FN?5closure?8?$AA@ 0000000180020d70     libvcruntime:undname.obj
 0002:00000d90       ??_C@_0CG@CFDHKGGD@?$GAmanaged?5vector?5constructor?5iter@ 0000000180020d90     libvcruntime:undname.obj
 0002:00000db8       ??_C@_0CF@IMGKMJNO@?$GAmanaged?5vector?5destructor?5itera@ 0000000180020db8     libvcruntime:undname.obj
 0002:00000de0       ??_C@_0CG@HLDDJMAG@?$GAeh?5vector?5copy?5constructor?5iter@ 0000000180020de0     libvcruntime:undname.obj
 0002:00000e08       ??_C@_0CM@FCBBDIGB@?$GAeh?5vector?5vbase?5copy?5constructo@ 0000000180020e08     libvcruntime:undname.obj
 0002:00000e38       ??_C@_0BL@CLIPGLGB@?$GAdynamic?5initializer?5for?5?8?$AA@ 0000000180020e38     libvcruntime:undname.obj
 0002:00000e58       ??_C@_0CB@PDBIFEP@?$GAdynamic?5atexit?5destructor?5for?5?8@ 0000000180020e58     libvcruntime:undname.obj
 0002:00000e80       ??_C@_0CD@CGAJBKEJ@?$GAvector?5copy?5constructor?5iterato@ 0000000180020e80     libvcruntime:undname.obj
 0002:00000ea8       ??_C@_0CJ@GJELGAMM@?$GAvector?5vbase?5copy?5constructor?5i@ 0000000180020ea8     libvcruntime:undname.obj
 0002:00000ed8       ??_C@_0CL@FGIJHLCE@?$GAmanaged?5vector?5copy?5constructor@ 0000000180020ed8     libvcruntime:undname.obj
 0002:00000f08       ??_C@_0BM@PMGGMLDN@?$GAlocal?5static?5thread?5guard?8?$AA@ 0000000180020f08     libvcruntime:undname.obj
 0002:00000f28       ??_C@_0N@BDNMDMOL@operator?5?$CC?$CC?5?$AA@ 0000000180020f28     libvcruntime:undname.obj
 0002:00000f38       ??_C@_0BC@DAFEJGAK@?5Type?5Descriptor?8?$AA@ 0000000180020f38     libvcruntime:undname.obj
 0002:00000f50       ??_C@_0BM@LDKODKLH@?5Base?5Class?5Descriptor?5at?5?$CI?$AA@ 0000000180020f50     libvcruntime:undname.obj
 0002:00000f70       ??_C@_0BD@LGICGFMM@?5Base?5Class?5Array?8?$AA@ 0000000180020f70     libvcruntime:undname.obj
 0002:00000f88       ??_C@_0BN@MECKDCOJ@?5Class?5Hierarchy?5Descriptor?8?$AA@ 0000000180020f88     libvcruntime:undname.obj
 0002:00000fa8       ??_C@_0BK@CFCOFLF@?5Complete?5Object?5Locator?8?$AA@ 0000000180020fa8     libvcruntime:undname.obj
 0002:00000fd0       standard_lookup_table      0000000180020fd0     libucrt:output.obj
 0002:00001030       format_validation_lookup_table 0000000180021030     libucrt:output.obj
 0002:0000108c       ??_C@_06OJHGLDPL@?$CInull?$CJ?$AA@ 000000018002108c     libucrt:output.obj
 0002:00001098       ??_C@_1O@CEDCILHN@?$AA?$CI?$AAn?$AAu?$AAl?$AAl?$AA?$CJ?$AA?$AA@ 0000000180021098     libucrt:output.obj
 0002:000010b0       ??_C@_1EK@MBDPDCGA@?$AAM?$AAi?$AAc?$AAr?$AAo?$AAs?$AAo?$AAf?$AAt?$AA?5?$AAV?$AAi?$AAs?$AAu?$AAa?$AAl?$AA?5?$AAC?$AA?$CL?$AA?$CL?$AA?5?$AAR?$AAu?$AAn?$AAt?$AAi?$AAm?$AAe?$AA?5?$AAL?$AAi?$AAb@ 00000001800210b0     libucrt:assert.obj
 0002:00001100       ??_C@_1FE@LHBLIKM@?$AAA?$AAs?$AAs?$AAe?$AAr?$AAt?$AAi?$AAo?$AAn?$AA?5?$AAf?$AAa?$AAi?$AAl?$AAe?$AAd?$AA?3?$AA?5?$AA?$CF?$AAT?$AAs?$AA?0?$AA?5?$AAf?$AAi?$AAl?$AAe?$AA?5?$AA?$CF?$AAT?$AAs?$AA?0@ 0000000180021100     libucrt:assert.obj
 0002:00001158       ??_C@_1CE@OJBNHDMO@?$AAA?$AAs?$AAs?$AAe?$AAr?$AAt?$AAi?$AAo?$AAn?$AA?5?$AAf?$AAa?$AAi?$AAl?$AAe?$AAd?$AA?$CB?$AA?$AA@ 0000000180021158     libucrt:assert.obj
 0002:00001180       ??_C@_1BE@PHKBBGE@?$AAP?$AAr?$AAo?$AAg?$AAr?$AAa?$AAm?$AA?3?$AA?5?$AA?$AA@ 0000000180021180     libucrt:assert.obj
 0002:00001198       ??_C@_1O@HEMHKNDC@?$AAF?$AAi?$AAl?$AAe?$AA?3?$AA?5?$AA?$AA@ 0000000180021198     libucrt:assert.obj
 0002:000011a8       ??_C@_1O@KCAFKHJE@?$AAL?$AAi?$AAn?$AAe?$AA?3?$AA?5?$AA?$AA@ 00000001800211a8     libucrt:assert.obj
 0002:000011b8       ??_C@_1BK@PEDCIPMA@?$AAE?$AAx?$AAp?$AAr?$AAe?$AAs?$AAs?$AAi?$AAo?$AAn?$AA?3?$AA?5?$AA?$AA@ 00000001800211b8     libucrt:assert.obj
 0002:000011e0       ??_C@_1OA@EGMLFBHJ@?$AAF?$AAo?$AAr?$AA?5?$AAi?$AAn?$AAf?$AAo?$AAr?$AAm?$AAa?$AAt?$AAi?$AAo?$AAn?$AA?5?$AAo?$AAn?$AA?5?$AAh?$AAo?$AAw?$AA?5?$AAy?$AAo?$AAu?$AAr?$AA?5?$AAp?$AAr?$AAo?$AAg@ 00000001800211e0     libucrt:assert.obj
 0002:000012c0       ??_C@_1HK@POCJMFGK@?$AA?$CI?$AAP?$AAr?$AAe?$AAs?$AAs?$AA?5?$AAR?$AAe?$AAt?$AAr?$AAy?$AA?5?$AAt?$AAo?$AA?5?$AAd?$AAe?$AAb?$AAu?$AAg?$AA?5?$AAt?$AAh?$AAe?$AA?5?$AAa?$AAp?$AAp?$AAl?$AAi?$AAc@ 00000001800212c0     libucrt:assert.obj
 0002:00001340       ??_C@_17LGKOMLJ@?$AA?4?$AA?4?$AA?4?$AA?$AA@ 0000000180021340     libucrt:assert.obj
 0002:00001348       ??_C@_13LBAGMAIH@?$AA?6?$AA?$AA@ 0000000180021348     libucrt:assert.obj
 0002:0000134c       ??_C@_15IABLJNFO@?$AA?6?$AA?6?$AA?$AA@ 000000018002134c     libucrt:assert.obj
 0002:00001358       ??_C@_1CO@EAEJAADC@?$AA?$DM?$AAp?$AAr?$AAo?$AAg?$AAr?$AAa?$AAm?$AA?5?$AAn?$AAa?$AAm?$AAe?$AA?5?$AAu?$AAn?$AAk?$AAn?$AAo?$AAw?$AAn?$AA?$DO?$AA?$AA@ 0000000180021358     libucrt:assert.obj
 0002:00001390       __acrt_exception_action_table 0000000180021390     libucrt:exception_filter.obj
 0002:00001450       __acrt_signal_action_table_count 0000000180021450     libucrt:exception_filter.obj
 0002:00001458       __acrt_signal_action_first_fpe_index 0000000180021458     libucrt:exception_filter.obj
 0002:00001460       __acrt_signal_action_fpe_count 0000000180021460     libucrt:exception_filter.obj
 0002:00001468       ??_C@_1BI@BGOHAHKC@?$AAm?$AAs?$AAc?$AAo?$AAr?$AAe?$AAe?$AA?4?$AAd?$AAl?$AAl?$AA?$AA@ 0000000180021468     libucrt:exit.obj
 0002:00001480       ??_C@_0P@MIGLKIOC@CorExitProcess?$AA@ 0000000180021480     libucrt:exit.obj
 0002:000016e8       ??_C@_03OEIAHPBN@INF?$AA@  00000001800216e8     libucrt:cvt.obj
 0002:000016ec       ??_C@_03OJHLLCGB@inf?$AA@  00000001800216ec     libucrt:cvt.obj
 0002:000016f0       ??_C@_03LKNCIKJB@NAN?$AA@  00000001800216f0     libucrt:cvt.obj
 0002:000016f4       ??_C@_03LHCJEHON@nan?$AA@  00000001800216f4     libucrt:cvt.obj
 0002:000016f8       ??_C@_09OFJJIMPC@NAN?$CISNAN?$CJ?$AA@ 00000001800216f8     libucrt:cvt.obj
 0002:00001708       ??_C@_09IPFBKMDL@nan?$CIsnan?$CJ?$AA@ 0000000180021708     libucrt:cvt.obj
 0002:00001718       ??_C@_08IKHNHAJ@NAN?$CIIND?$CJ?$AA@ 0000000180021718     libucrt:cvt.obj
 0002:00001728       ??_C@_08OFCDMILK@nan?$CIind?$CJ?$AA@ 0000000180021728     libucrt:cvt.obj
 0002:00001734       ??_C@_05KLBDPFGC@e?$CL000?$AA@ 0000000180021734     libucrt:cvt.obj
 0002:00001740       __lc_time_c                0000000180021740     libucrt:nlsdata.obj
 0002:00001a00       ??_C@_03KOEHGMDN@Sun?$AA@  0000000180021a00     libucrt:nlsdata.obj
 0002:00001a04       ??_C@_03PDAGKDH@Mon?$AA@   0000000180021a04     libucrt:nlsdata.obj
 0002:00001a08       ??_C@_03NAGEINEP@Tue?$AA@  0000000180021a08     libucrt:nlsdata.obj
 0002:00001a0c       ??_C@_03MHOMLAJA@Wed?$AA@  0000000180021a0c     libucrt:nlsdata.obj
 0002:00001a10       ??_C@_03IOFIKPDN@Thu?$AA@  0000000180021a10     libucrt:nlsdata.obj
 0002:00001a14       ??_C@_03IDIOELNC@Fri?$AA@  0000000180021a14     libucrt:nlsdata.obj
 0002:00001a18       ??_C@_03FEFJNEK@Sat?$AA@   0000000180021a18     libucrt:nlsdata.obj
 0002:00001a1c       ??_C@_06OOPIFAJ@Sunday?$AA@ 0000000180021a1c     libucrt:nlsdata.obj
 0002:00001a24       ??_C@_06JLEDEDGH@Monday?$AA@ 0000000180021a24     libucrt:nlsdata.obj
 0002:00001a30       ??_C@_07BAAGCFCM@Tuesday?$AA@ 0000000180021a30     libucrt:nlsdata.obj
 0002:00001a38       ??_C@_09DLIGFAKA@Wednesday?$AA@ 0000000180021a38     libucrt:nlsdata.obj
 0002:00001a48       ??_C@_08HACCIKIA@Thursday?$AA@ 0000000180021a48     libucrt:nlsdata.obj
 0002:00001a54       ??_C@_06JECMNKMI@Friday?$AA@ 0000000180021a54     libucrt:nlsdata.obj
 0002:00001a60       ??_C@_08INBOOONO@Saturday?$AA@ 0000000180021a60     libucrt:nlsdata.obj
 0002:00001a6c       ??_C@_03JIHJHPIE@Jan?$AA@  0000000180021a6c     libucrt:nlsdata.obj
 0002:00001a70       ??_C@_03HJBDCHOM@Feb?$AA@  0000000180021a70     libucrt:nlsdata.obj
 0002:00001a74       ??_C@_03ODNJBKGA@Mar?$AA@  0000000180021a74     libucrt:nlsdata.obj
 0002:00001a78       ??_C@_03LEOLGMJP@Apr?$AA@  0000000180021a78     libucrt:nlsdata.obj
 0002:00001a7c       ??_C@_03CNMDKL@May?$AA@    0000000180021a7c     libucrt:nlsdata.obj
 0002:00001a80       ??_C@_03IDFGHECI@Jun?$AA@  0000000180021a80     libucrt:nlsdata.obj
 0002:00001a84       ??_C@_03LBGABGKK@Jul?$AA@  0000000180021a84     libucrt:nlsdata.obj
 0002:00001a88       ??_C@_03IFJFEIGA@Aug?$AA@  0000000180021a88     libucrt:nlsdata.obj
 0002:00001a8c       ??_C@_03GGCAPAJC@Sep?$AA@  0000000180021a8c     libucrt:nlsdata.obj
 0002:00001a90       ??_C@_03BMAOKBAD@Oct?$AA@  0000000180021a90     libucrt:nlsdata.obj
 0002:00001a94       ??_C@_03JPJOFNIA@Nov?$AA@  0000000180021a94     libucrt:nlsdata.obj
 0002:00001a98       ??_C@_03MKABNOCG@Dec?$AA@  0000000180021a98     libucrt:nlsdata.obj
 0002:00001aa0       ??_C@_07CGJPFGJA@January?$AA@ 0000000180021aa0     libucrt:nlsdata.obj
 0002:00001aa8       ??_C@_08GNJGEPFN@February?$AA@ 0000000180021aa8     libucrt:nlsdata.obj
 0002:00001ab4       ??_C@_05HPCKOFNC@March?$AA@ 0000000180021ab4     libucrt:nlsdata.obj
 0002:00001abc       ??_C@_05DMJDNLEJ@April?$AA@ 0000000180021abc     libucrt:nlsdata.obj
 0002:00001ac4       ??_C@_04CNLMGBGM@June?$AA@ 0000000180021ac4     libucrt:nlsdata.obj
 0002:00001acc       ??_C@_04MIEPOIFP@July?$AA@ 0000000180021acc     libucrt:nlsdata.obj
 0002:00001ad4       ??_C@_06LBBHFDDG@August?$AA@ 0000000180021ad4     libucrt:nlsdata.obj
 0002:00001ae0       ??_C@_09BHHEALKD@September?$AA@ 0000000180021ae0     libucrt:nlsdata.obj
 0002:00001af0       ??_C@_07JJNFCEND@October?$AA@ 0000000180021af0     libucrt:nlsdata.obj
 0002:00001af8       ??_C@_08HCHEGEOA@November?$AA@ 0000000180021af8     libucrt:nlsdata.obj
 0002:00001b08       ??_C@_08EDHMEBNP@December?$AA@ 0000000180021b08     libucrt:nlsdata.obj
 0002:00001b14       ??_C@_02DEDBPAFC@AM?$AA@   0000000180021b14     libucrt:nlsdata.obj
 0002:00001b18       ??_C@_02CJNFDJBF@PM?$AA@   0000000180021b18     libucrt:nlsdata.obj
 0002:00001b20       ??_C@_08BPBNCDIB@MM?1dd?1yy?$AA@ 0000000180021b20     libucrt:nlsdata.obj
 0002:00001b30       ??_C@_0BE@CKGJFCPC@dddd?0?5MMMM?5dd?0?5yyyy?$AA@ 0000000180021b30     libucrt:nlsdata.obj
 0002:00001b48       ??_C@_08JCCMCCIL@HH?3mm?3ss?$AA@ 0000000180021b48     libucrt:nlsdata.obj
 0002:00001b58       ??_C@_17MBGCMIPB@?$AAS?$AAu?$AAn?$AA?$AA@ 0000000180021b58     libucrt:nlsdata.obj
 0002:00001b60       ??_C@_17KBOMKBF@?$AAM?$AAo?$AAn?$AA?$AA@ 0000000180021b60     libucrt:nlsdata.obj
 0002:00001b68       ??_C@_17BMKGEGOJ@?$AAT?$AAu?$AAe?$AA?$AA@ 0000000180021b68     libucrt:nlsdata.obj
 0002:00001b70       ??_C@_17CJEDCEPE@?$AAW?$AAe?$AAd?$AA?$AA@ 0000000180021b70     libucrt:nlsdata.obj
 0002:00001b78       ??_C@_17PDPHAADD@?$AAT?$AAh?$AAu?$AA?$AA@ 0000000180021b78     libucrt:nlsdata.obj
 0002:00001b80       ??_C@_17HFOLPPLP@?$AAF?$AAr?$AAi?$AA?$AA@ 0000000180021b80     libucrt:nlsdata.obj
 0002:00001b88       ??_C@_17GGIBDPIH@?$AAS?$AAa?$AAt?$AA?$AA@ 0000000180021b88     libucrt:nlsdata.obj
 0002:00001b90       ??_C@_1O@IHNHDHPB@?$AAS?$AAu?$AAn?$AAd?$AAa?$AAy?$AA?$AA@ 0000000180021b90     libucrt:nlsdata.obj
 0002:00001ba0       ??_C@_1O@MMNBFLIA@?$AAM?$AAo?$AAn?$AAd?$AAa?$AAy?$AA?$AA@ 0000000180021ba0     libucrt:nlsdata.obj
 0002:00001bb0       ??_C@_1BA@ENFBFFEK@?$AAT?$AAu?$AAe?$AAs?$AAd?$AAa?$AAy?$AA?$AA@ 0000000180021bb0     libucrt:nlsdata.obj
 0002:00001bc0       ??_C@_1BE@EBOGMDOH@?$AAW?$AAe?$AAd?$AAn?$AAe?$AAs?$AAd?$AAa?$AAy?$AA?$AA@ 0000000180021bc0     libucrt:nlsdata.obj
 0002:00001bd8       ??_C@_1BC@HHMNLIHE@?$AAT?$AAh?$AAu?$AAr?$AAs?$AAd?$AAa?$AAy?$AA?$AA@ 0000000180021bd8     libucrt:nlsdata.obj
 0002:00001bf0       ??_C@_1O@PDICJHAG@?$AAF?$AAr?$AAi?$AAd?$AAa?$AAy?$AA?$AA@ 0000000180021bf0     libucrt:nlsdata.obj
 0002:00001c00       ??_C@_1BC@ENMNNPAJ@?$AAS?$AAa?$AAt?$AAu?$AAr?$AAd?$AAa?$AAy?$AA?$AA@ 0000000180021c00     libucrt:nlsdata.obj
 0002:00001c18       ??_C@_17DKNBKCHM@?$AAJ?$AAa?$AAn?$AA?$AA@ 0000000180021c18     libucrt:nlsdata.obj
 0002:00001c20       ??_C@_17LMDJEKJN@?$AAF?$AAe?$AAb?$AA?$AA@ 0000000180021c20     libucrt:nlsdata.obj
 0002:00001c28       ??_C@_17CKNLEDEC@?$AAM?$AAa?$AAr?$AA?$AA@ 0000000180021c28     libucrt:nlsdata.obj
 0002:00001c30       ??_C@_17LFPOIHDD@?$AAA?$AAp?$AAr?$AA?$AA@ 0000000180021c30     libucrt:nlsdata.obj
 0002:00001c38       ??_C@_17PNNKMEED@?$AAM?$AAa?$AAy?$AA?$AA@ 0000000180021c38     libucrt:nlsdata.obj
 0002:00001c40       ??_C@_17KCJGOCPB@?$AAJ?$AAu?$AAn?$AA?$AA@ 0000000180021c40     libucrt:nlsdata.obj
 0002:00001c48       ??_C@_17IJPCKHK@?$AAJ?$AAu?$AAl?$AA?$AA@ 0000000180021c48     libucrt:nlsdata.obj
 0002:00001c50       ??_C@_17ICPELBCN@?$AAA?$AAu?$AAg?$AA?$AA@ 0000000180021c50     libucrt:nlsdata.obj
 0002:00001c58       ??_C@_17HCHCOKMG@?$AAS?$AAe?$AAp?$AA?$AA@ 0000000180021c58     libucrt:nlsdata.obj
 0002:00001c60       ??_C@_17FNLKOI@?$AAO?$AAc?$AAt?$AA?$AA@ 0000000180021c60     libucrt:nlsdata.obj
 0002:00001c68       ??_C@_17BBDMLCIG@?$AAN?$AAo?$AAv?$AA?$AA@ 0000000180021c68     libucrt:nlsdata.obj
 0002:00001c70       ??_C@_17EGKACKIF@?$AAD?$AAe?$AAc?$AA?$AA@ 0000000180021c70     libucrt:nlsdata.obj
 0002:00001c78       ??_C@_1BA@EFMEIEBA@?$AAJ?$AAa?$AAn?$AAu?$AAa?$AAr?$AAy?$AA?$AA@ 0000000180021c78     libucrt:nlsdata.obj
 0002:00001c88       ??_C@_1BC@JGDDFFAM@?$AAF?$AAe?$AAb?$AAr?$AAu?$AAa?$AAr?$AAy?$AA?$AA@ 0000000180021c88     libucrt:nlsdata.obj
 0002:00001ca0       ??_C@_1M@IKEENEDF@?$AAM?$AAa?$AAr?$AAc?$AAh?$AA?$AA@ 0000000180021ca0     libucrt:nlsdata.obj
 0002:00001cb0       ??_C@_1M@GJNLMHFD@?$AAA?$AAp?$AAr?$AAi?$AAl?$AA?$AA@ 0000000180021cb0     libucrt:nlsdata.obj
 0002:00001cc0       ??_C@_19EPFLPGAP@?$AAJ?$AAu?$AAn?$AAe?$AA?$AA@ 0000000180021cc0     libucrt:nlsdata.obj
 0002:00001cd0       ??_C@_19BIFMLPCD@?$AAJ?$AAu?$AAl?$AAy?$AA?$AA@ 0000000180021cd0     libucrt:nlsdata.obj
 0002:00001ce0       ??_C@_1O@PAHLKOAC@?$AAA?$AAu?$AAg?$AAu?$AAs?$AAt?$AA?$AA@ 0000000180021ce0     libucrt:nlsdata.obj
 0002:00001cf0       ??_C@_1BE@DKAAMBJL@?$AAS?$AAe?$AAp?$AAt?$AAe?$AAm?$AAb?$AAe?$AAr?$AA?$AA@ 0000000180021cf0     libucrt:nlsdata.obj
 0002:00001d08       ??_C@_1BA@EPANDLNG@?$AAO?$AAc?$AAt?$AAo?$AAb?$AAe?$AAr?$AA?$AA@ 0000000180021d08     libucrt:nlsdata.obj
 0002:00001d18       ??_C@_1BC@BGLIFPF@?$AAN?$AAo?$AAv?$AAe?$AAm?$AAb?$AAe?$AAr?$AA?$AA@ 0000000180021d18     libucrt:nlsdata.obj
 0002:00001d30       ??_C@_1BC@FEMKIFH@?$AAD?$AAe?$AAc?$AAe?$AAm?$AAb?$AAe?$AAr?$AA?$AA@ 0000000180021d30     libucrt:nlsdata.obj
 0002:00001d44       ??_C@_15ODEHAHHF@?$AAA?$AAM?$AA?$AA@ 0000000180021d44     libucrt:nlsdata.obj
 0002:00001d4c       ??_C@_15CLMNNGEL@?$AAP?$AAM?$AA?$AA@ 0000000180021d4c     libucrt:nlsdata.obj
 0002:00001d58       ??_C@_1BC@IEBCMHCM@?$AAM?$AAM?$AA?1?$AAd?$AAd?$AA?1?$AAy?$AAy?$AA?$AA@ 0000000180021d58     libucrt:nlsdata.obj
 0002:00001d70       ??_C@_1CI@KNAKOEBC@?$AAd?$AAd?$AAd?$AAd?$AA?0?$AA?5?$AAM?$AAM?$AAM?$AAM?$AA?5?$AAd?$AAd?$AA?0?$AA?5?$AAy?$AAy?$AAy?$AAy?$AA?$AA@ 0000000180021d70     libucrt:nlsdata.obj
 0002:00001d98       ??_C@_1BC@GDGBMEMK@?$AAH?$AAH?$AA?3?$AAm?$AAm?$AA?3?$AAs?$AAs?$AA?$AA@ 0000000180021d98     libucrt:nlsdata.obj
 0002:00001db0       ??_C@_1M@BMHNFIME@?$AAe?$AAn?$AA?9?$AAU?$AAS?$AA?$AA@ 0000000180021db0     libucrt:nlsdata.obj
 0002:00001e60       ??_C@_1EG@CNNIPFIM@?$AAa?$AAp?$AAi?$AA?9?$AAm?$AAs?$AA?9?$AAw?$AAi?$AAn?$AA?9?$AAa?$AAp?$AAp?$AAm?$AAo?$AAd?$AAe?$AAl?$AA?9?$AAr?$AAu?$AAn?$AAt?$AAi?$AAm?$AAe?$AA?9?$AAl?$AA1?$AA?9?$AA1@ 0000000180021e60     libucrt:winapi_thunks.obj
 0002:00001eb0       ??_C@_1EA@JGEFHKEI@?$AAa?$AAp?$AAi?$AA?9?$AAm?$AAs?$AA?9?$AAw?$AAi?$AAn?$AA?9?$AAc?$AAo?$AAr?$AAe?$AA?9?$AAd?$AAa?$AAt?$AAe?$AAt?$AAi?$AAm?$AAe?$AA?9?$AAl?$AA1?$AA?9?$AA1?$AA?9?$AA1?$AA?$AA@ 0000000180021eb0     libucrt:winapi_thunks.obj
 0002:00001ef0       ??_C@_1DI@GCIAAENM@?$AAa?$AAp?$AAi?$AA?9?$AAm?$AAs?$AA?9?$AAw?$AAi?$AAn?$AA?9?$AAc?$AAo?$AAr?$AAe?$AA?9?$AAf?$AAi?$AAl?$AAe?$AA?9?$AAl?$AA2?$AA?9?$AA1?$AA?9?$AA1?$AA?$AA@ 0000000180021ef0     libucrt:winapi_thunks.obj
 0002:00001f30       ??_C@_1EI@MPIAOHOC@?$AAa?$AAp?$AAi?$AA?9?$AAm?$AAs?$AA?9?$AAw?$AAi?$AAn?$AA?9?$AAc?$AAo?$AAr?$AAe?$AA?9?$AAl?$AAo?$AAc?$AAa?$AAl?$AAi?$AAz?$AAa?$AAt?$AAi?$AAo?$AAn?$AA?9?$AAl?$AA1?$AA?9@ 0000000180021f30     libucrt:winapi_thunks.obj
 0002:00001f80       ??_C@_1FK@FPHCKFIE@?$AAa?$AAp?$AAi?$AA?9?$AAm?$AAs?$AA?9?$AAw?$AAi?$AAn?$AA?9?$AAc?$AAo?$AAr?$AAe?$AA?9?$AAl?$AAo?$AAc?$AAa?$AAl?$AAi?$AAz?$AAa?$AAt?$AAi?$AAo?$AAn?$AA?9?$AAo?$AAb?$AAs@ 0000000180021f80     libucrt:winapi_thunks.obj
 0002:00001fe0       ??_C@_1EM@DILCGIIO@?$AAa?$AAp?$AAi?$AA?9?$AAm?$AAs?$AA?9?$AAw?$AAi?$AAn?$AA?9?$AAc?$AAo?$AAr?$AAe?$AA?9?$AAp?$AAr?$AAo?$AAc?$AAe?$AAs?$AAs?$AAt?$AAh?$AAr?$AAe?$AAa?$AAd?$AAs?$AA?9?$AAl@ 0000000180021fe0     libucrt:winapi_thunks.obj
 0002:00002030       ??_C@_1DM@LNCGDDPN@?$AAa?$AAp?$AAi?$AA?9?$AAm?$AAs?$AA?9?$AAw?$AAi?$AAn?$AA?9?$AAc?$AAo?$AAr?$AAe?$AA?9?$AAs?$AAt?$AAr?$AAi?$AAn?$AAg?$AA?9?$AAl?$AA1?$AA?9?$AA1?$AA?9?$AA0?$AA?$AA@ 0000000180022030     libucrt:winapi_thunks.obj
 0002:00002070       ??_C@_1DO@FPAPJEMD@?$AAa?$AAp?$AAi?$AA?9?$AAm?$AAs?$AA?9?$AAw?$AAi?$AAn?$AA?9?$AAc?$AAo?$AAr?$AAe?$AA?9?$AAs?$AAy?$AAs?$AAi?$AAn?$AAf?$AAo?$AA?9?$AAl?$AA1?$AA?9?$AA2?$AA?9?$AA1?$AA?$AA@ 0000000180022070     libucrt:winapi_thunks.obj
 0002:000020b0       ??_C@_1DK@NDHNAHIO@?$AAa?$AAp?$AAi?$AA?9?$AAm?$AAs?$AA?9?$AAw?$AAi?$AAn?$AA?9?$AAc?$AAo?$AAr?$AAe?$AA?9?$AAw?$AAi?$AAn?$AAr?$AAt?$AA?9?$AAl?$AA1?$AA?9?$AA1?$AA?9?$AA0?$AA?$AA@ 00000001800220b0     libucrt:winapi_thunks.obj
 0002:000020f0       ??_C@_1DM@KGHDGBCM@?$AAa?$AAp?$AAi?$AA?9?$AAm?$AAs?$AA?9?$AAw?$AAi?$AAn?$AA?9?$AAc?$AAo?$AAr?$AAe?$AA?9?$AAx?$AAs?$AAt?$AAa?$AAt?$AAe?$AA?9?$AAl?$AA2?$AA?9?$AA1?$AA?9?$AA0?$AA?$AA@ 00000001800220f0     libucrt:winapi_thunks.obj
 0002:00002130       ??_C@_1EO@IJIOEFOH@?$AAa?$AAp?$AAi?$AA?9?$AAm?$AAs?$AA?9?$AAw?$AAi?$AAn?$AA?9?$AAr?$AAt?$AAc?$AAo?$AAr?$AAe?$AA?9?$AAn?$AAt?$AAu?$AAs?$AAe?$AAr?$AA?9?$AAw?$AAi?$AAn?$AAd?$AAo?$AAw?$AA?9@ 0000000180022130     libucrt:winapi_thunks.obj
 0002:00002180       ??_C@_1FG@HHGEKANL@?$AAa?$AAp?$AAi?$AA?9?$AAm?$AAs?$AA?9?$AAw?$AAi?$AAn?$AA?9?$AAs?$AAe?$AAc?$AAu?$AAr?$AAi?$AAt?$AAy?$AA?9?$AAs?$AAy?$AAs?$AAt?$AAe?$AAm?$AAf?$AAu?$AAn?$AAc?$AAt?$AAi@ 0000000180022180     libucrt:winapi_thunks.obj
 0002:000021e0       ??_C@_1FG@NCKKOLKO@?$AAe?$AAx?$AAt?$AA?9?$AAm?$AAs?$AA?9?$AAw?$AAi?$AAn?$AA?9?$AAk?$AAe?$AAr?$AAn?$AAe?$AAl?$AA3?$AA2?$AA?9?$AAp?$AAa?$AAc?$AAk?$AAa?$AAg?$AAe?$AA?9?$AAc?$AAu?$AAr?$AAr@ 00000001800221e0     libucrt:winapi_thunks.obj
 0002:00002240       ??_C@_1EG@DBIOJECG@?$AAe?$AAx?$AAt?$AA?9?$AAm?$AAs?$AA?9?$AAw?$AAi?$AAn?$AA?9?$AAn?$AAt?$AAu?$AAs?$AAe?$AAr?$AA?9?$AAd?$AAi?$AAa?$AAl?$AAo?$AAg?$AAb?$AAo?$AAx?$AA?9?$AAl?$AA1?$AA?9?$AA1@ 0000000180022240     libucrt:winapi_thunks.obj
 0002:00002290       ??_C@_1EO@FIHMJCLF@?$AAe?$AAx?$AAt?$AA?9?$AAm?$AAs?$AA?9?$AAw?$AAi?$AAn?$AA?9?$AAn?$AAt?$AAu?$AAs?$AAe?$AAr?$AA?9?$AAw?$AAi?$AAn?$AAd?$AAo?$AAw?$AAs?$AAt?$AAa?$AAt?$AAi?$AAo?$AAn?$AA?9@ 0000000180022290     libucrt:winapi_thunks.obj
 0002:000022e0       ??_C@_1O@BCCLBEOE@?$AAu?$AAs?$AAe?$AAr?$AA3?$AA2?$AA?$AA@ 00000001800222e0     libucrt:winapi_thunks.obj
 0002:00002318       ??_C@_0BA@HNOPNCHB@GetActiveWindow?$AA@ 0000000180022318     libucrt:winapi_thunks.obj
 0002:00002330       ??_C@_0BE@JOGNEJCI@GetCurrentPackageId?$AA@ 0000000180022330     libucrt:winapi_thunks.obj
 0002:00002350       ??_C@_0BD@HHGDFDBJ@GetLastActivePopup?$AA@ 0000000180022350     libucrt:winapi_thunks.obj
 0002:00002370       ??_C@_0BI@DFKBFLJE@GetProcessWindowStation?$AA@ 0000000180022370     libucrt:winapi_thunks.obj
 0002:00002390       ??_C@_0BK@DEKFELLI@GetUserObjectInformationW?$AA@ 0000000180022390     libucrt:winapi_thunks.obj
 0002:000023c0       ??_C@_0O@KKBNKAPF@LCMapStringEx?$AA@ 00000001800223c0     libucrt:winapi_thunks.obj
 0002:000023d8       ??_C@_0BB@HBDEELFH@LocaleNameToLCID?$AA@ 00000001800223d8     libucrt:winapi_thunks.obj
 0002:000023f8       ??_C@_0M@CHKKJDAI@MessageBoxA?$AA@ 00000001800223f8     libucrt:winapi_thunks.obj
 0002:00002410       ??_C@_0M@DLDCCGNP@MessageBoxW?$AA@ 0000000180022410     libucrt:winapi_thunks.obj
 0002:00002440       ??_C@_1M@HPNHIDJI@?$AAj?$AAa?$AA?9?$AAJ?$AAP?$AA?$AA@ 0000000180022440     libucrt:mbctype.obj
 0002:00002450       ??_C@_1M@BIBDDEMK@?$AAz?$AAh?$AA?9?$AAC?$AAN?$AA?$AA@ 0000000180022450     libucrt:mbctype.obj
 0002:00002460       ??_C@_1M@JLOOOEGK@?$AAk?$AAo?$AA?9?$AAK?$AAR?$AA?$AA@ 0000000180022460     libucrt:mbctype.obj
 0002:00002470       ??_C@_1M@CLNBBOPM@?$AAz?$AAh?$AA?9?$AAT?$AAW?$AA?$AA@ 0000000180022470     libucrt:mbctype.obj
 0002:00002480       __newctype                 0000000180022480     libucrt:ctype.obj
 0002:00002780       __newclmap                 0000000180022780     libucrt:ctype.obj
 0002:00002900       __newcumap                 0000000180022900     libucrt:ctype.obj
 0002:00002a80       _wctype                    0000000180022a80     libucrt:ctype.obj
 0002:00002c90       ?large_power_data@?1??multiply_by_power_of_ten@__crt_strtox@@YA_NAEAUbig_integer@2@I@Z@4QBIB 0000000180022c90     libucrt:cfout.obj
 0002:000035a0       ?large_power_indices@?1??multiply_by_power_of_ten@__crt_strtox@@YA_NAEAUbig_integer@2@I@Z@4QBUunpack_index@?1??12@YA_N0I@Z@B 00000001800235a0     libucrt:cfout.obj
 0002:00003638       ?small_powers_of_ten@?6??multiply_by_power_of_ten@__crt_strtox@@YA_NAEAUbig_integer@2@I@Z@4QBIB 0000000180023638     libucrt:cfout.obj
 0002:0000365c       ??_C@_01GBGANLPD@0?$AA@    000000018002365c     libucrt:cfout.obj
 0002:00003660       ??_C@_05DNEBIAHO@1?$CDINF?$AA@ 0000000180023660     libucrt:cfout.obj
 0002:00003668       ??_C@_06IMKFLFPG@1?$CDQNAN?$AA@ 0000000180023668     libucrt:cfout.obj
 0002:00003670       ??_C@_06PGGFOGJG@1?$CDSNAN?$AA@ 0000000180023670     libucrt:cfout.obj
 0002:00003678       ??_C@_05PHHOCPM@1?$CDIND?$AA@ 0000000180023678     libucrt:cfout.obj
 0002:00003680       ??_C@_15PJPFLCCM@?$AAu?$AAk?$AA?$AA@ 0000000180023680     libucrt:get_qualified_locale.obj
 0002:000044d0       ??_C@_15EMKDOKLE@?$AAa?$AAr?$AA?$AA@ 00000001800244d0     libucrt:lcidtoname_downlevel.obj
 0002:000044d8       ??_C@_15KNPADPLH@?$AAb?$AAg?$AA?$AA@ 00000001800244d8     libucrt:lcidtoname_downlevel.obj
 0002:000044e0       ??_C@_15EDMHLDMO@?$AAc?$AAa?$AA?$AA@ 00000001800244e0     libucrt:lcidtoname_downlevel.obj
 0002:000044e8       ??_C@_1O@BPEAJADD@?$AAz?$AAh?$AA?9?$AAC?$AAH?$AAS?$AA?$AA@ 00000001800244e8     libucrt:lcidtoname_downlevel.obj
 0002:000044f8       ??_C@_15LJNHCMNK@?$AAc?$AAs?$AA?$AA@ 00000001800244f8     libucrt:lcidtoname_downlevel.obj
 0002:00004500       ??_C@_15FOMCIDHG@?$AAd?$AAa?$AA?$AA@ 0000000180024500     libucrt:lcidtoname_downlevel.obj
 0002:00004508       ??_C@_15NBKABECB@?$AAd?$AAe?$AA?$AA@ 0000000180024508     libucrt:lcidtoname_downlevel.obj
 0002:00004510       ??_C@_15GHPEIIAO@?$AAe?$AAl?$AA?$AA@ 0000000180024510     libucrt:lcidtoname_downlevel.obj
 0002:00004518       ??_C@_15MNPNEAIF@?$AAe?$AAn?$AA?$AA@ 0000000180024518     libucrt:lcidtoname_downlevel.obj
 0002:00004520       ??_C@_15GPIOMPMH@?$AAe?$AAs?$AA?$AA@ 0000000180024520     libucrt:lcidtoname_downlevel.obj
 0002:00004528       ??_C@_15NGLOAKJC@?$AAf?$AAi?$AA?$AA@ 0000000180024528     libucrt:lcidtoname_downlevel.obj
 0002:00004530       ??_C@_15FBKGNKAM@?$AAf?$AAr?$AA?$AA@ 0000000180024530     libucrt:lcidtoname_downlevel.obj
 0002:00004538       ??_C@_15KGGCNEFK@?$AAh?$AAe?$AA?$AA@ 0000000180024538     libucrt:lcidtoname_downlevel.obj
 0002:00004540       ??_C@_15PGHLIDMF@?$AAh?$AAu?$AA?$AA@ 0000000180024540     libucrt:lcidtoname_downlevel.obj
 0002:00004548       ??_C@_15BIEMAPLM@?$AAi?$AAs?$AA?$AA@ 0000000180024548     libucrt:lcidtoname_downlevel.obj
 0002:00004550       ??_C@_15IFJLDHAF@?$AAi?$AAt?$AA?$AA@ 0000000180024550     libucrt:lcidtoname_downlevel.obj
 0002:00004558       ??_C@_15GEMIOCAG@?$AAj?$AAa?$AA?$AA@ 0000000180024558     libucrt:lcidtoname_downlevel.obj
 0002:00004560       ??_C@_15EPELEGJA@?$AAk?$AAo?$AA?$AA@ 0000000180024560     libucrt:lcidtoname_downlevel.obj
 0002:00004568       ??_C@_15NDDHIMN@?$AAn?$AAl?$AA?$AA@ 0000000180024568     libucrt:lcidtoname_downlevel.obj
 0002:00004570       ??_C@_15BPIGNHCD@?$AAn?$AAo?$AA?$AA@ 0000000180024570     libucrt:lcidtoname_downlevel.obj
 0002:00004578       ??_C@_15DEOPBLCG@?$AAp?$AAl?$AA?$AA@ 0000000180024578     libucrt:lcidtoname_downlevel.obj
 0002:00004580       ??_C@_15KBECGEFG@?$AAp?$AAt?$AA?$AA@ 0000000180024580     libucrt:lcidtoname_downlevel.obj
 0002:00004588       ??_C@_15GLJCBFMD@?$AAr?$AAo?$AA?$AA@ 0000000180024588     libucrt:lcidtoname_downlevel.obj
 0002:00004590       ??_C@_15FEDGKCDI@?$AAr?$AAu?$AA?$AA@ 0000000180024590     libucrt:lcidtoname_downlevel.obj
 0002:00004598       ??_C@_15GLKMLLHM@?$AAh?$AAr?$AA?$AA@ 0000000180024598     libucrt:lcidtoname_downlevel.obj
 0002:000045a0       ??_C@_15CPKMFBDB@?$AAs?$AAk?$AA?$AA@ 00000001800245a0     libucrt:lcidtoname_downlevel.obj
 0002:000045a8       ??_C@_15BAAIOGMK@?$AAs?$AAq?$AA?$AA@ 00000001800245a8     libucrt:lcidtoname_downlevel.obj
 0002:000045b0       ??_C@_15INNPNOHD@?$AAs?$AAv?$AA?$AA@ 00000001800245b0     libucrt:lcidtoname_downlevel.obj
 0002:000045b8       ??_C@_15CABMMOGH@?$AAt?$AAh?$AA?$AA@ 00000001800245b8     libucrt:lcidtoname_downlevel.obj
 0002:000045c0       ??_C@_15BPLIHJJM@?$AAt?$AAr?$AA?$AA@ 00000001800245c0     libucrt:lcidtoname_downlevel.obj
 0002:000045c8       ??_C@_15NEOEKKDJ@?$AAu?$AAr?$AA?$AA@ 00000001800245c8     libucrt:lcidtoname_downlevel.obj
 0002:000045d0       ??_C@_15NFICGAJK@?$AAi?$AAd?$AA?$AA@ 00000001800245d0     libucrt:lcidtoname_downlevel.obj
 0002:000045d8       ??_C@_15HPJPHDM@?$AAb?$AAe?$AA?$AA@ 00000001800245d8     libucrt:lcidtoname_downlevel.obj
 0002:000045e0       ??_C@_15LCHLGJII@?$AAs?$AAl?$AA?$AA@ 00000001800245e0     libucrt:lcidtoname_downlevel.obj
 0002:000045e8       ??_C@_15PCFJPHHO@?$AAe?$AAt?$AA?$AA@ 00000001800245e8     libucrt:lcidtoname_downlevel.obj
 0002:000045f0       ??_C@_15HPFPGODN@?$AAl?$AAv?$AA?$AA@ 00000001800245f0     libucrt:lcidtoname_downlevel.obj
 0002:000045f8       ??_C@_15NFFGKGLG@?$AAl?$AAt?$AA?$AA@ 00000001800245f8     libucrt:lcidtoname_downlevel.obj
 0002:00004600       ??_C@_15BDAKCCHN@?$AAf?$AAa?$AA?$AA@ 0000000180024600     libucrt:lcidtoname_downlevel.obj
 0002:00004608       ??_C@_15NFGIAIAJ@?$AAv?$AAi?$AA?$AA@ 0000000180024608     libucrt:lcidtoname_downlevel.obj
 0002:00004610       ??_C@_15LMKNDMHN@?$AAh?$AAy?$AA?$AA@ 0000000180024610     libucrt:lcidtoname_downlevel.obj
 0002:00004618       ??_C@_15IJBHMCFL@?$AAa?$AAz?$AA?$AA@ 0000000180024618     libucrt:lcidtoname_downlevel.obj
 0002:00004620       ??_C@_15EKOFJABL@?$AAe?$AAu?$AA?$AA@ 0000000180024620     libucrt:lcidtoname_downlevel.obj
 0002:00004628       ??_C@_15BGHADCNK@?$AAm?$AAk?$AA?$AA@ 0000000180024628     libucrt:lcidtoname_downlevel.obj
 0002:00004630       ??_C@_15JDNICKHM@?$AAa?$AAf?$AA?$AA@ 0000000180024630     libucrt:lcidtoname_downlevel.obj
 0002:00004638       ??_C@_15KPJEDBKD@?$AAk?$AAa?$AA?$AA@ 0000000180024638     libucrt:lcidtoname_downlevel.obj
 0002:00004640       ??_C@_15PDNFFFEO@?$AAf?$AAo?$AA?$AA@ 0000000180024640     libucrt:lcidtoname_downlevel.obj
 0002:00004648       ??_C@_15OMLEGLOC@?$AAh?$AAi?$AA?$AA@ 0000000180024648     libucrt:lcidtoname_downlevel.obj
 0002:00004650       ??_C@_15IDNNENKK@?$AAm?$AAs?$AA?$AA@ 0000000180024650     libucrt:lcidtoname_downlevel.obj
 0002:00004658       ??_C@_15MACJNBMH@?$AAk?$AAk?$AA?$AA@ 0000000180024658     libucrt:lcidtoname_downlevel.obj
 0002:00004660       ??_C@_15DKDJEOND@?$AAk?$AAy?$AA?$AA@ 0000000180024660     libucrt:lcidtoname_downlevel.obj
 0002:00004668       ??_C@_15DFGDLJBG@?$AAs?$AAw?$AA?$AA@ 0000000180024668     libucrt:lcidtoname_downlevel.obj
 0002:00004670       ??_C@_15BBFAICNG@?$AAu?$AAz?$AA?$AA@ 0000000180024670     libucrt:lcidtoname_downlevel.obj
 0002:00004678       ??_C@_15DKNDCGEA@?$AAt?$AAt?$AA?$AA@ 0000000180024678     libucrt:lcidtoname_downlevel.obj
 0002:00004680       ??_C@_15MGIFMDPL@?$AAp?$AAa?$AA?$AA@ 0000000180024680     libucrt:lcidtoname_downlevel.obj
 0002:00004688       ??_C@_15HCNDBBA@?$AAg?$AAu?$AA?$AA@ 0000000180024688     libucrt:lcidtoname_downlevel.obj
 0002:00004690       ??_C@_15FNBEIBON@?$AAt?$AAa?$AA?$AA@ 0000000180024690     libucrt:lcidtoname_downlevel.obj
 0002:00004698       ??_C@_15NCHGBGLK@?$AAt?$AAe?$AA?$AA@ 0000000180024698     libucrt:lcidtoname_downlevel.obj
 0002:000046a0       ??_C@_15PHPHCBPF@?$AAk?$AAn?$AA?$AA@ 00000001800246a0     libucrt:lcidtoname_downlevel.obj
 0002:000046a8       ??_C@_15DLGBCKMP@?$AAm?$AAr?$AA?$AA@ 00000001800246a8     libucrt:lcidtoname_downlevel.obj
 0002:000046b0       ??_C@_15EABBLBFF@?$AAs?$AAa?$AA?$AA@ 00000001800246b0     libucrt:lcidtoname_downlevel.obj
 0002:000046b8       ??_C@_15CBKOMCOI@?$AAm?$AAn?$AA?$AA@ 00000001800246b8     libucrt:lcidtoname_downlevel.obj
 0002:000046c0       ??_C@_15CKDMCJAF@?$AAg?$AAl?$AA?$AA@ 00000001800246c0     libucrt:lcidtoname_downlevel.obj
 0002:000046c8       ??_C@_17CNJFBPG@?$AAk?$AAo?$AAk?$AA?$AA@ 00000001800246c8     libucrt:lcidtoname_downlevel.obj
 0002:000046d0       ??_C@_17FFBJICPL@?$AAs?$AAy?$AAr?$AA?$AA@ 00000001800246d0     libucrt:lcidtoname_downlevel.obj
 0002:000046d8       ??_C@_17KPNDCPAF@?$AAd?$AAi?$AAv?$AA?$AA@ 00000001800246d8     libucrt:lcidtoname_downlevel.obj
 0002:000046e0       ??_C@_1M@OKAHONE@?$AAa?$AAr?$AA?9?$AAS?$AAA?$AA?$AA@ 00000001800246e0     libucrt:lcidtoname_downlevel.obj
 0002:000046f0       ??_C@_1M@FFFIGIGK@?$AAb?$AAg?$AA?9?$AAB?$AAG?$AA?$AA@ 00000001800246f0     libucrt:lcidtoname_downlevel.obj
 0002:00004700       ??_C@_1M@BJNKEDC@?$AAc?$AAa?$AA?9?$AAE?$AAS?$AA?$AA@ 0000000180024700     libucrt:lcidtoname_downlevel.obj
 0002:00004710       ??_C@_1M@IJJHFJHA@?$AAc?$AAs?$AA?9?$AAC?$AAZ?$AA?$AA@ 0000000180024710     libucrt:lcidtoname_downlevel.obj
 0002:00004720       ??_C@_1M@CLPEOBGI@?$AAd?$AAa?$AA?9?$AAD?$AAK?$AA?$AA@ 0000000180024720     libucrt:lcidtoname_downlevel.obj
 0002:00004730       ??_C@_1M@MCMADGCB@?$AAd?$AAe?$AA?9?$AAD?$AAE?$AA?$AA@ 0000000180024730     libucrt:lcidtoname_downlevel.obj
 0002:00004740       ??_C@_1M@OOCKEMAM@?$AAe?$AAl?$AA?9?$AAG?$AAR?$AA?$AA@ 0000000180024740     libucrt:lcidtoname_downlevel.obj
 0002:00004750       ??_C@_1M@DDNJFGID@?$AAf?$AAi?$AA?9?$AAF?$AAI?$AA?$AA@ 0000000180024750     libucrt:lcidtoname_downlevel.obj
 0002:00004760       ??_C@_1M@GLIPPMAC@?$AAf?$AAr?$AA?9?$AAF?$AAR?$AA?$AA@ 0000000180024760     libucrt:lcidtoname_downlevel.obj
 0002:00004770       ??_C@_1M@GFMCHPE@?$AAh?$AAe?$AA?9?$AAI?$AAL?$AA?$AA@ 0000000180024770     libucrt:lcidtoname_downlevel.obj
 0002:00004780       ??_C@_1M@MHLPGNKM@?$AAh?$AAu?$AA?9?$AAH?$AAU?$AA?$AA@ 0000000180024780     libucrt:lcidtoname_downlevel.obj
 0002:00004790       ??_C@_1M@LPDDNNPN@?$AAi?$AAs?$AA?9?$AAI?$AAS?$AA?$AA@ 0000000180024790     libucrt:lcidtoname_downlevel.obj
 0002:000047a0       ??_C@_1M@MADIPODN@?$AAi?$AAt?$AA?9?$AAI?$AAT?$AA?$AA@ 00000001800247a0     libucrt:lcidtoname_downlevel.obj
 0002:000047b0       ??_C@_1M@IHBJJGG@?$AAn?$AAl?$AA?9?$AAN?$AAL?$AA?$AA@ 00000001800247b0     libucrt:lcidtoname_downlevel.obj
 0002:000047c0       ??_C@_1M@EANAGDL@?$AAn?$AAb?$AA?9?$AAN?$AAO?$AA?$AA@ 00000001800247c0     libucrt:lcidtoname_downlevel.obj
 0002:000047d0       ??_C@_1M@NEIEMEGP@?$AAp?$AAl?$AA?9?$AAP?$AAL?$AA?$AA@ 00000001800247d0     libucrt:lcidtoname_downlevel.obj
 0002:000047e0       ??_C@_1M@BOCFIGEP@?$AAp?$AAt?$AA?9?$AAB?$AAR?$AA?$AA@ 00000001800247e0     libucrt:lcidtoname_downlevel.obj
 0002:000047f0       ??_C@_1M@IMPFOPBG@?$AAr?$AAo?$AA?9?$AAR?$AAO?$AA?$AA@ 00000001800247f0     libucrt:lcidtoname_downlevel.obj
 0002:00004800       ??_C@_1M@IDNNEJMM@?$AAr?$AAu?$AA?9?$AAR?$AAU?$AA?$AA@ 0000000180024800     libucrt:lcidtoname_downlevel.obj
 0002:00004810       ??_C@_1M@LILEEOGM@?$AAh?$AAr?$AA?9?$AAH?$AAR?$AA?$AA@ 0000000180024810     libucrt:lcidtoname_downlevel.obj
 0002:00004820       ??_C@_1M@FKIFEHPB@?$AAs?$AAk?$AA?9?$AAS?$AAK?$AA?$AA@ 0000000180024820     libucrt:lcidtoname_downlevel.obj
 0002:00004830       ??_C@_1M@LJMAMNPJ@?$AAs?$AAq?$AA?9?$AAA?$AAL?$AA?$AA@ 0000000180024830     libucrt:lcidtoname_downlevel.obj
 0002:00004840       ??_C@_1M@GIAKDKJK@?$AAs?$AAv?$AA?9?$AAS?$AAE?$AA?$AA@ 0000000180024840     libucrt:lcidtoname_downlevel.obj
 0002:00004850       ??_C@_1M@MKJKIKCL@?$AAt?$AAh?$AA?9?$AAT?$AAH?$AA?$AA@ 0000000180024850     libucrt:lcidtoname_downlevel.obj
 0002:00004860       ??_C@_1M@MFLCCMPB@?$AAt?$AAr?$AA?9?$AAT?$AAR?$AA?$AA@ 0000000180024860     libucrt:lcidtoname_downlevel.obj
 0002:00004870       ??_C@_1M@OIJHDKJN@?$AAu?$AAr?$AA?9?$AAP?$AAK?$AA?$AA@ 0000000180024870     libucrt:lcidtoname_downlevel.obj
 0002:00004880       ??_C@_1M@LHIPCIEK@?$AAi?$AAd?$AA?9?$AAI?$AAD?$AA?$AA@ 0000000180024880     libucrt:lcidtoname_downlevel.obj
 0002:00004890       ??_C@_1M@MFMOBGI@?$AAu?$AAk?$AA?9?$AAU?$AAA?$AA?$AA@ 0000000180024890     libucrt:lcidtoname_downlevel.obj
 0002:000048a0       ??_C@_1M@OBGLJIPL@?$AAb?$AAe?$AA?9?$AAB?$AAY?$AA?$AA@ 00000001800248a0     libucrt:lcidtoname_downlevel.obj
 0002:000048b0       ??_C@_1M@BCFAJEAD@?$AAs?$AAl?$AA?9?$AAS?$AAI?$AA?$AA@ 00000001800248b0     libucrt:lcidtoname_downlevel.obj
 0002:000048c0       ??_C@_1M@FKFFEDDN@?$AAe?$AAt?$AA?9?$AAE?$AAE?$AA?$AA@ 00000001800248c0     libucrt:lcidtoname_downlevel.obj
 0002:000048d0       ??_C@_1M@KGKKAACI@?$AAl?$AAv?$AA?9?$AAL?$AAV?$AA?$AA@ 00000001800248d0     libucrt:lcidtoname_downlevel.obj
 0002:000048e0       ??_C@_1M@IFGBIJO@?$AAl?$AAt?$AA?9?$AAL?$AAT?$AA?$AA@ 00000001800248e0     libucrt:lcidtoname_downlevel.obj
 0002:000048f0       ??_C@_1M@FGEAHEDM@?$AAf?$AAa?$AA?9?$AAI?$AAR?$AA?$AA@ 00000001800248f0     libucrt:lcidtoname_downlevel.obj
 0002:00004900       ??_C@_1M@KBMAIBFN@?$AAv?$AAi?$AA?9?$AAV?$AAN?$AA?$AA@ 0000000180024900     libucrt:lcidtoname_downlevel.obj
 0002:00004910       ??_C@_1M@GPCBKDJK@?$AAh?$AAy?$AA?9?$AAA?$AAM?$AA?$AA@ 0000000180024910     libucrt:lcidtoname_downlevel.obj
 0002:00004920       ??_C@_1BG@BECMDDJB@?$AAa?$AAz?$AA?9?$AAA?$AAZ?$AA?9?$AAL?$AAa?$AAt?$AAn?$AA?$AA@ 0000000180024920     libucrt:lcidtoname_downlevel.obj
 0002:00004938       ??_C@_1M@MAOFCAEA@?$AAe?$AAu?$AA?9?$AAE?$AAS?$AA?$AA@ 0000000180024938     libucrt:lcidtoname_downlevel.obj
 0002:00004948       ??_C@_1M@IGHABKPI@?$AAm?$AAk?$AA?9?$AAM?$AAK?$AA?$AA@ 0000000180024948     libucrt:lcidtoname_downlevel.obj
 0002:00004958       ??_C@_1M@IAIGNEJG@?$AAt?$AAn?$AA?9?$AAZ?$AAA?$AA?$AA@ 0000000180024958     libucrt:lcidtoname_downlevel.obj
 0002:00004968       ??_C@_1M@IIJCOJFA@?$AAx?$AAh?$AA?9?$AAZ?$AAA?$AA?$AA@ 0000000180024968     libucrt:lcidtoname_downlevel.obj
 0002:00004978       ??_C@_1M@LGPJHNJH@?$AAz?$AAu?$AA?9?$AAZ?$AAA?$AA?$AA@ 0000000180024978     libucrt:lcidtoname_downlevel.obj
 0002:00004988       ??_C@_1M@HOKAOIO@?$AAa?$AAf?$AA?9?$AAZ?$AAA?$AA?$AA@ 0000000180024988     libucrt:lcidtoname_downlevel.obj
 0002:00004998       ??_C@_1M@DPCLHLIE@?$AAk?$AAa?$AA?9?$AAG?$AAE?$AA?$AA@ 0000000180024998     libucrt:lcidtoname_downlevel.obj
 0002:000049a8       ??_C@_1M@BLKMHJBI@?$AAf?$AAo?$AA?9?$AAF?$AAO?$AA?$AA@ 00000001800249a8     libucrt:lcidtoname_downlevel.obj
 0002:000049b8       ??_C@_1M@LGGJAPPB@?$AAh?$AAi?$AA?9?$AAI?$AAN?$AA?$AA@ 00000001800249b8     libucrt:lcidtoname_downlevel.obj
 0002:000049c8       ??_C@_1M@FIKPIHFE@?$AAm?$AAt?$AA?9?$AAM?$AAT?$AA?$AA@ 00000001800249c8     libucrt:lcidtoname_downlevel.obj
 0002:000049d8       ??_C@_1M@HEGGPBFA@?$AAs?$AAe?$AA?9?$AAN?$AAO?$AA?$AA@ 00000001800249d8     libucrt:lcidtoname_downlevel.obj
 0002:000049e8       ??_C@_1M@EIBJEEPA@?$AAm?$AAs?$AA?9?$AAM?$AAY?$AA?$AA@ 00000001800249e8     libucrt:lcidtoname_downlevel.obj
 0002:000049f8       ??_C@_1M@FHLBGMPP@?$AAk?$AAk?$AA?9?$AAK?$AAZ?$AA?$AA@ 00000001800249f8     libucrt:lcidtoname_downlevel.obj
 0002:00004a08       ??_C@_1M@NGJJLCGI@?$AAk?$AAy?$AA?9?$AAK?$AAG?$AA?$AA@ 0000000180024a08     libucrt:lcidtoname_downlevel.obj
 0002:00004a18       ??_C@_1M@GIENNBFC@?$AAs?$AAw?$AA?9?$AAK?$AAE?$AA?$AA@ 0000000180024a18     libucrt:lcidtoname_downlevel.obj
 0002:00004a28       ??_C@_1BG@NDGMJIMJ@?$AAu?$AAz?$AA?9?$AAU?$AAZ?$AA?9?$AAL?$AAa?$AAt?$AAn?$AA?$AA@ 0000000180024a28     libucrt:lcidtoname_downlevel.obj
 0002:00004a40       ??_C@_1M@IDCCIHBC@?$AAt?$AAt?$AA?9?$AAR?$AAU?$AA?$AA@ 0000000180024a40     libucrt:lcidtoname_downlevel.obj
 0002:00004a50       ??_C@_1M@LOICPMOJ@?$AAb?$AAn?$AA?9?$AAI?$AAN?$AA?$AA@ 0000000180024a50     libucrt:lcidtoname_downlevel.obj
 0002:00004a60       ??_C@_1M@KPKKNEAH@?$AAp?$AAa?$AA?9?$AAI?$AAN?$AA?$AA@ 0000000180024a60     libucrt:lcidtoname_downlevel.obj
 0002:00004a70       ??_C@_1M@PJGPPBOG@?$AAg?$AAu?$AA?9?$AAI?$AAN?$AA?$AA@ 0000000180024a70     libucrt:lcidtoname_downlevel.obj
 0002:00004a80       ??_C@_1M@KMKMOPHI@?$AAt?$AAa?$AA?9?$AAI?$AAN?$AA?$AA@ 0000000180024a80     libucrt:lcidtoname_downlevel.obj
 0002:00004a90       ??_C@_1M@KFEHEPAC@?$AAt?$AAe?$AA?9?$AAI?$AAN?$AA?$AA@ 0000000180024a90     libucrt:lcidtoname_downlevel.obj
 0002:00004aa0       ??_C@_1M@CDCLMGHI@?$AAk?$AAn?$AA?9?$AAI?$AAN?$AA?$AA@ 0000000180024aa0     libucrt:lcidtoname_downlevel.obj
 0002:00004ab0       ??_C@_1M@MIODLDKF@?$AAm?$AAl?$AA?9?$AAI?$AAN?$AA?$AA@ 0000000180024ab0     libucrt:lcidtoname_downlevel.obj
 0002:00004ac0       ??_C@_1M@PBIEACPO@?$AAm?$AAr?$AA?9?$AAI?$AAN?$AA?$AA@ 0000000180024ac0     libucrt:lcidtoname_downlevel.obj
 0002:00004ad0       ??_C@_1M@NIDEAGPH@?$AAs?$AAa?$AA?9?$AAI?$AAN?$AA?$AA@ 0000000180024ad0     libucrt:lcidtoname_downlevel.obj
 0002:00004ae0       ??_C@_1M@FHIHCBIO@?$AAm?$AAn?$AA?9?$AAM?$AAN?$AA?$AA@ 0000000180024ae0     libucrt:lcidtoname_downlevel.obj
 0002:00004af0       ??_C@_1M@JAIJPENP@?$AAc?$AAy?$AA?9?$AAG?$AAB?$AA?$AA@ 0000000180024af0     libucrt:lcidtoname_downlevel.obj
 0002:00004b00       ??_C@_1M@PHGFBEPN@?$AAg?$AAl?$AA?9?$AAE?$AAS?$AA?$AA@ 0000000180024b00     libucrt:lcidtoname_downlevel.obj
 0002:00004b10       ??_C@_1O@KPIPDNCP@?$AAk?$AAo?$AAk?$AA?9?$AAI?$AAN?$AA?$AA@ 0000000180024b10     libucrt:lcidtoname_downlevel.obj
 0002:00004b20       ??_C@_1O@KNHJLDJA@?$AAs?$AAy?$AAr?$AA?9?$AAS?$AAY?$AA?$AA@ 0000000180024b20     libucrt:lcidtoname_downlevel.obj
 0002:00004b30       ??_C@_1O@MKEKBLAH@?$AAd?$AAi?$AAv?$AA?9?$AAM?$AAV?$AA?$AA@ 0000000180024b30     libucrt:lcidtoname_downlevel.obj
 0002:00004b40       ??_C@_1O@OHDCKDDF@?$AAq?$AAu?$AAz?$AA?9?$AAB?$AAO?$AA?$AA@ 0000000180024b40     libucrt:lcidtoname_downlevel.obj
 0002:00004b50       ??_C@_1M@LEPJNLFD@?$AAn?$AAs?$AA?9?$AAZ?$AAA?$AA?$AA@ 0000000180024b50     libucrt:lcidtoname_downlevel.obj
 0002:00004b60       ??_C@_1M@OMLEIIJB@?$AAm?$AAi?$AA?9?$AAN?$AAZ?$AA?$AA@ 0000000180024b60     libucrt:lcidtoname_downlevel.obj
 0002:00004b70       ??_C@_1M@PMPEAILG@?$AAa?$AAr?$AA?9?$AAI?$AAQ?$AA?$AA@ 0000000180024b70     libucrt:lcidtoname_downlevel.obj
 0002:00004b80       ??_C@_1M@CNKPNOEE@?$AAd?$AAe?$AA?9?$AAC?$AAH?$AA?$AA@ 0000000180024b80     libucrt:lcidtoname_downlevel.obj
 0002:00004b90       ??_C@_1M@LKMGMLKO@?$AAe?$AAn?$AA?9?$AAG?$AAB?$AA?$AA@ 0000000180024b90     libucrt:lcidtoname_downlevel.obj
 0002:00004ba0       ??_C@_1M@PGKJFFGL@?$AAe?$AAs?$AA?9?$AAM?$AAX?$AA?$AA@ 0000000180024ba0     libucrt:lcidtoname_downlevel.obj
 0002:00004bb0       ??_C@_1M@DNNANBDC@?$AAf?$AAr?$AA?9?$AAB?$AAE?$AA?$AA@ 0000000180024bb0     libucrt:lcidtoname_downlevel.obj
 0002:00004bc0       ??_C@_1M@HLGMDFHM@?$AAi?$AAt?$AA?9?$AAC?$AAH?$AA?$AA@ 0000000180024bc0     libucrt:lcidtoname_downlevel.obj
 0002:00004bd0       ??_C@_1M@CLLBGJH@?$AAn?$AAl?$AA?9?$AAB?$AAE?$AA?$AA@ 0000000180024bd0     libucrt:lcidtoname_downlevel.obj
 0002:00004be0       ??_C@_1M@BODBOGLF@?$AAn?$AAn?$AA?9?$AAN?$AAO?$AA?$AA@ 0000000180024be0     libucrt:lcidtoname_downlevel.obj
 0002:00004bf0       ??_C@_1M@HFFAHKAD@?$AAp?$AAt?$AA?9?$AAP?$AAT?$AA?$AA@ 0000000180024bf0     libucrt:lcidtoname_downlevel.obj
 0002:00004c00       ??_C@_1BG@LNOAKHIE@?$AAs?$AAr?$AA?9?$AAS?$AAP?$AA?9?$AAL?$AAa?$AAt?$AAn?$AA?$AA@ 0000000180024c00     libucrt:lcidtoname_downlevel.obj
 0002:00004c18       ??_C@_1M@HBMHBGAK@?$AAs?$AAv?$AA?9?$AAF?$AAI?$AA?$AA@ 0000000180024c18     libucrt:lcidtoname_downlevel.obj
 0002:00004c28       ??_C@_1BG@DGCJGJBE@?$AAa?$AAz?$AA?9?$AAA?$AAZ?$AA?9?$AAC?$AAy?$AAr?$AAl?$AA?$AA@ 0000000180024c28     libucrt:lcidtoname_downlevel.obj
 0002:00004c40       ??_C@_1M@KEJDAAHB@?$AAs?$AAe?$AA?9?$AAS?$AAE?$AA?$AA@ 0000000180024c40     libucrt:lcidtoname_downlevel.obj
 0002:00004c50       ??_C@_1M@HEIBJJAD@?$AAm?$AAs?$AA?9?$AAB?$AAN?$AA?$AA@ 0000000180024c50     libucrt:lcidtoname_downlevel.obj
 0002:00004c60       ??_C@_1BG@PBGJMCEM@?$AAu?$AAz?$AA?9?$AAU?$AAZ?$AA?9?$AAC?$AAy?$AAr?$AAl?$AA?$AA@ 0000000180024c60     libucrt:lcidtoname_downlevel.obj
 0002:00004c78       ??_C@_1O@LAOBCMDF@?$AAq?$AAu?$AAz?$AA?9?$AAE?$AAC?$AA?$AA@ 0000000180024c78     libucrt:lcidtoname_downlevel.obj
 0002:00004c88       ??_C@_1M@POEEMAIO@?$AAa?$AAr?$AA?9?$AAE?$AAG?$AA?$AA@ 0000000180024c88     libucrt:lcidtoname_downlevel.obj
 0002:00004c98       ??_C@_1M@EFAKDEDL@?$AAz?$AAh?$AA?9?$AAH?$AAK?$AA?$AA@ 0000000180024c98     libucrt:lcidtoname_downlevel.obj
 0002:00004ca8       ??_C@_1M@HKKIJHGI@?$AAd?$AAe?$AA?9?$AAA?$AAT?$AA?$AA@ 0000000180024ca8     libucrt:lcidtoname_downlevel.obj
 0002:00004cb8       ??_C@_1M@KBFBEHJF@?$AAe?$AAn?$AA?9?$AAA?$AAU?$AA?$AA@ 0000000180024cb8     libucrt:lcidtoname_downlevel.obj
 0002:00004cc8       ??_C@_1M@MNPLFAAH@?$AAe?$AAs?$AA?9?$AAE?$AAS?$AA?$AA@ 0000000180024cc8     libucrt:lcidtoname_downlevel.obj
 0002:00004cd8       ??_C@_1M@HJOOJFMA@?$AAf?$AAr?$AA?9?$AAC?$AAA?$AA?$AA@ 0000000180024cd8     libucrt:lcidtoname_downlevel.obj
 0002:00004ce8       ??_C@_1BG@JPOFPNAB@?$AAs?$AAr?$AA?9?$AAS?$AAP?$AA?9?$AAC?$AAy?$AAr?$AAl?$AA?$AA@ 0000000180024ce8     libucrt:lcidtoname_downlevel.obj
 0002:00004d00       ??_C@_1M@LNFOCMOB@?$AAs?$AAe?$AA?9?$AAF?$AAI?$AA?$AA@ 0000000180024d00     libucrt:lcidtoname_downlevel.obj
 0002:00004d10       ??_C@_1O@MGJBOAMB@?$AAq?$AAu?$AAz?$AA?9?$AAP?$AAE?$AA?$AA@ 0000000180024d10     libucrt:lcidtoname_downlevel.obj
 0002:00004d20       ??_C@_1M@GJINLBOK@?$AAa?$AAr?$AA?9?$AAL?$AAY?$AA?$AA@ 0000000180024d20     libucrt:lcidtoname_downlevel.obj
 0002:00004d30       ??_C@_1M@GGMNHJNL@?$AAz?$AAh?$AA?9?$AAS?$AAG?$AA?$AA@ 0000000180024d30     libucrt:lcidtoname_downlevel.obj
 0002:00004d40       ??_C@_1M@HOIKODND@?$AAd?$AAe?$AA?9?$AAL?$AAU?$AA?$AA@ 0000000180024d40     libucrt:lcidtoname_downlevel.obj
 0002:00004d50       ??_C@_1M@DDOCCGFG@?$AAe?$AAn?$AA?9?$AAC?$AAA?$AA?$AA@ 0000000180024d50     libucrt:lcidtoname_downlevel.obj
 0002:00004d60       ??_C@_1M@BNOEMJLF@?$AAe?$AAs?$AA?9?$AAG?$AAT?$AA?$AA@ 0000000180024d60     libucrt:lcidtoname_downlevel.obj
 0002:00004d70       ??_C@_1M@EOGNKEK@?$AAf?$AAr?$AA?9?$AAC?$AAH?$AA?$AA@ 0000000180024d70     libucrt:lcidtoname_downlevel.obj
 0002:00004d80       ??_C@_1M@FLIDJFHL@?$AAh?$AAr?$AA?9?$AAB?$AAA?$AA?$AA@ 0000000180024d80     libucrt:lcidtoname_downlevel.obj
 0002:00004d90       ??_C@_1O@FMCELNAJ@?$AAs?$AAm?$AAj?$AA?9?$AAN?$AAO?$AA?$AA@ 0000000180024d90     libucrt:lcidtoname_downlevel.obj
 0002:00004da0       ??_C@_1M@JHGLJMGJ@?$AAa?$AAr?$AA?9?$AAD?$AAZ?$AA?$AA@ 0000000180024da0     libucrt:lcidtoname_downlevel.obj
 0002:00004db0       ??_C@_1M@JKKFDCNP@?$AAz?$AAh?$AA?9?$AAM?$AAO?$AA?$AA@ 0000000180024db0     libucrt:lcidtoname_downlevel.obj
 0002:00004dc0       ??_C@_1M@GEEFALPE@?$AAd?$AAe?$AA?9?$AAL?$AAI?$AA?$AA@ 0000000180024dc0     libucrt:lcidtoname_downlevel.obj
 0002:00004dd0       ??_C@_1M@IGEOFBG@?$AAe?$AAn?$AA?9?$AAN?$AAZ?$AA?$AA@ 0000000180024dd0     libucrt:lcidtoname_downlevel.obj
 0002:00004de0       ??_C@_1M@KDBONEHP@?$AAe?$AAs?$AA?9?$AAC?$AAR?$AA?$AA@ 0000000180024de0     libucrt:lcidtoname_downlevel.obj
 0002:00004df0       ??_C@_1M@FHMDOHNN@?$AAf?$AAr?$AA?9?$AAL?$AAU?$AA?$AA@ 0000000180024df0     libucrt:lcidtoname_downlevel.obj
 0002:00004e00       ??_C@_1BG@NFKKMAFG@?$AAb?$AAs?$AA?9?$AAB?$AAA?$AA?9?$AAL?$AAa?$AAt?$AAn?$AA?$AA@ 0000000180024e00     libucrt:lcidtoname_downlevel.obj
 0002:00004e18       ??_C@_1O@IMNBEMCI@?$AAs?$AAm?$AAj?$AA?9?$AAS?$AAE?$AA?$AA@ 0000000180024e18     libucrt:lcidtoname_downlevel.obj
 0002:00004e28       ??_C@_1M@DHHMBNDP@?$AAa?$AAr?$AA?9?$AAM?$AAA?$AA?$AA@ 0000000180024e28     libucrt:lcidtoname_downlevel.obj
 0002:00004e38       ??_C@_1M@BNBLJCGH@?$AAe?$AAn?$AA?9?$AAI?$AAE?$AA?$AA@ 0000000180024e38     libucrt:lcidtoname_downlevel.obj
 0002:00004e48       ??_C@_1M@GEPAFMDL@?$AAe?$AAs?$AA?9?$AAP?$AAA?$AA?$AA@ 0000000180024e48     libucrt:lcidtoname_downlevel.obj
 0002:00004e58       ??_C@_1M@OJONDMDL@?$AAf?$AAr?$AA?9?$AAM?$AAC?$AA?$AA@ 0000000180024e58     libucrt:lcidtoname_downlevel.obj
 0002:00004e68       ??_C@_1BG@OBCNFJB@?$AAs?$AAr?$AA?9?$AAB?$AAA?$AA?9?$AAL?$AAa?$AAt?$AAn?$AA?$AA@ 0000000180024e68     libucrt:lcidtoname_downlevel.obj
 0002:00004e80       ??_C@_1O@KEMEEGPO@?$AAs?$AAm?$AAa?$AA?9?$AAN?$AAO?$AA?$AA@ 0000000180024e80     libucrt:lcidtoname_downlevel.obj
 0002:00004e90       ??_C@_1M@ELMGFODK@?$AAa?$AAr?$AA?9?$AAT?$AAN?$AA?$AA@ 0000000180024e90     libucrt:lcidtoname_downlevel.obj
 0002:00004ea0       ??_C@_1M@BHDLHFAF@?$AAe?$AAn?$AA?9?$AAZ?$AAA?$AA?$AA@ 0000000180024ea0     libucrt:lcidtoname_downlevel.obj
 0002:00004eb0       ??_C@_1M@BMGIGLIF@?$AAe?$AAs?$AA?9?$AAD?$AAO?$AA?$AA@ 0000000180024eb0     libucrt:lcidtoname_downlevel.obj
 0002:00004ec0       ??_C@_1BG@CMBHIPBE@?$AAs?$AAr?$AA?9?$AAB?$AAA?$AA?9?$AAC?$AAy?$AAr?$AAl?$AA?$AA@ 0000000180024ec0     libucrt:lcidtoname_downlevel.obj
 0002:00004ed8       ??_C@_1O@HEDBLHNP@?$AAs?$AAm?$AAa?$AA?9?$AAS?$AAE?$AA?$AA@ 0000000180024ed8     libucrt:lcidtoname_downlevel.obj
 0002:00004ee8       ??_C@_1M@DAGCADIM@?$AAa?$AAr?$AA?9?$AAO?$AAM?$AA?$AA@ 0000000180024ee8     libucrt:lcidtoname_downlevel.obj
 0002:00004ef8       ??_C@_1M@FODLMICG@?$AAe?$AAn?$AA?9?$AAJ?$AAM?$AA?$AA@ 0000000180024ef8     libucrt:lcidtoname_downlevel.obj
 0002:00004f08       ??_C@_1M@DNMLCIHB@?$AAe?$AAs?$AA?9?$AAV?$AAE?$AA?$AA@ 0000000180024f08     libucrt:lcidtoname_downlevel.obj
 0002:00004f18       ??_C@_1O@EOKHMKJK@?$AAs?$AAm?$AAs?$AA?9?$AAF?$AAI?$AA?$AA@ 0000000180024f18     libucrt:lcidtoname_downlevel.obj
 0002:00004f28       ??_C@_1M@CAFJMKOF@?$AAa?$AAr?$AA?9?$AAY?$AAE?$AA?$AA@ 0000000180024f28     libucrt:lcidtoname_downlevel.obj
 0002:00004f38       ??_C@_1M@CBFHIJLI@?$AAe?$AAn?$AA?9?$AAC?$AAB?$AA?$AA@ 0000000180024f38     libucrt:lcidtoname_downlevel.obj
 0002:00004f48       ??_C@_1M@BGNFLDN@?$AAe?$AAs?$AA?9?$AAC?$AAO?$AA?$AA@ 0000000180024f48     libucrt:lcidtoname_downlevel.obj
 0002:00004f58       ??_C@_1O@JMPHMAMC@?$AAs?$AAm?$AAn?$AA?9?$AAF?$AAI?$AA?$AA@ 0000000180024f58     libucrt:lcidtoname_downlevel.obj
 0002:00004f68       ??_C@_1M@JLANABKE@?$AAa?$AAr?$AA?9?$AAS?$AAY?$AA?$AA@ 0000000180024f68     libucrt:lcidtoname_downlevel.obj
 0002:00004f78       ??_C@_1M@HPKGCFGN@?$AAe?$AAn?$AA?9?$AAB?$AAZ?$AA?$AA@ 0000000180024f78     libucrt:lcidtoname_downlevel.obj
 0002:00004f88       ??_C@_1M@OLJCMLGM@?$AAe?$AAs?$AA?9?$AAP?$AAE?$AA?$AA@ 0000000180024f88     libucrt:lcidtoname_downlevel.obj
 0002:00004f98       ??_C@_1M@MKKGFKLE@?$AAa?$AAr?$AA?9?$AAJ?$AAO?$AA?$AA@ 0000000180024f98     libucrt:lcidtoname_downlevel.obj
 0002:00004fa8       ??_C@_1M@EKPGLDNI@?$AAe?$AAn?$AA?9?$AAT?$AAT?$AA?$AA@ 0000000180024fa8     libucrt:lcidtoname_downlevel.obj
 0002:00004fb8       ??_C@_1M@OONGHFHE@?$AAe?$AAs?$AA?9?$AAA?$AAR?$AA?$AA@ 0000000180024fb8     libucrt:lcidtoname_downlevel.obj
 0002:00004fc8       ??_C@_1M@OOJFGBHE@?$AAa?$AAr?$AA?9?$AAL?$AAB?$AA?$AA@ 0000000180024fc8     libucrt:lcidtoname_downlevel.obj
 0002:00004fd8       ??_C@_1M@GCEJHNEG@?$AAe?$AAn?$AA?9?$AAZ?$AAW?$AA?$AA@ 0000000180024fd8     libucrt:lcidtoname_downlevel.obj
 0002:00004fe8       ??_C@_1M@JNOCAHJI@?$AAe?$AAs?$AA?9?$AAE?$AAC?$AA?$AA@ 0000000180024fe8     libucrt:lcidtoname_downlevel.obj
 0002:00004ff8       ??_C@_1M@JEFHPGGB@?$AAa?$AAr?$AA?9?$AAK?$AAW?$AA?$AA@ 0000000180024ff8     libucrt:lcidtoname_downlevel.obj
 0002:00005008       ??_C@_1M@MLKIBJOJ@?$AAe?$AAn?$AA?9?$AAP?$AAH?$AA?$AA@ 0000000180025008     libucrt:lcidtoname_downlevel.obj
 0002:00005018       ??_C@_1M@BDNIPEND@?$AAe?$AAs?$AA?9?$AAC?$AAL?$AA?$AA@ 0000000180025018     libucrt:lcidtoname_downlevel.obj
 0002:00005028       ??_C@_1M@MPNMEKBD@?$AAa?$AAr?$AA?9?$AAA?$AAE?$AA?$AA@ 0000000180025028     libucrt:lcidtoname_downlevel.obj
 0002:00005038       ??_C@_1M@KBJALCPI@?$AAe?$AAs?$AA?9?$AAU?$AAY?$AA?$AA@ 0000000180025038     libucrt:lcidtoname_downlevel.obj
 0002:00005048       ??_C@_1M@LLCCOAGA@?$AAa?$AAr?$AA?9?$AAB?$AAH?$AA?$AA@ 0000000180025048     libucrt:lcidtoname_downlevel.obj
 0002:00005058       ??_C@_1M@PBFNCDEL@?$AAe?$AAs?$AA?9?$AAP?$AAY?$AA?$AA@ 0000000180025058     libucrt:lcidtoname_downlevel.obj
 0002:00005068       ??_C@_1M@EDGINPNP@?$AAa?$AAr?$AA?9?$AAQ?$AAA?$AA?$AA@ 0000000180025068     libucrt:lcidtoname_downlevel.obj
 0002:00005078       ??_C@_1M@MKDBIIJI@?$AAe?$AAs?$AA?9?$AAB?$AAO?$AA?$AA@ 0000000180025078     libucrt:lcidtoname_downlevel.obj
 0002:00005088       ??_C@_1M@CPKKEBLD@?$AAe?$AAs?$AA?9?$AAS?$AAV?$AA?$AA@ 0000000180025088     libucrt:lcidtoname_downlevel.obj
 0002:00005098       ??_C@_1M@NDBGMMJL@?$AAe?$AAs?$AA?9?$AAH?$AAN?$AA?$AA@ 0000000180025098     libucrt:lcidtoname_downlevel.obj
 0002:000050a8       ??_C@_1M@JIJIBHDP@?$AAe?$AAs?$AA?9?$AAN?$AAI?$AA?$AA@ 00000001800250a8     libucrt:lcidtoname_downlevel.obj
 0002:000050b8       ??_C@_1M@CGFMKEEK@?$AAe?$AAs?$AA?9?$AAP?$AAR?$AA?$AA@ 00000001800250b8     libucrt:lcidtoname_downlevel.obj
 0002:000050c8       ??_C@_1O@ICJHKIIK@?$AAz?$AAh?$AA?9?$AAC?$AAH?$AAT?$AA?$AA@ 00000001800250c8     libucrt:lcidtoname_downlevel.obj
 0002:000050d8       ??_C@_15CLNEJCE@?$AAs?$AAr?$AA?$AA@ 00000001800250d8     libucrt:lcidtoname_downlevel.obj
 0002:00005f20       ??_C@_1M@KAHEKEIG@?$AAa?$AAf?$AA?9?$AAz?$AAa?$AA?$AA@ 0000000180025f20     libucrt:lcidtoname_downlevel.obj
 0002:00005f30       ??_C@_1M@GIECOABL@?$AAa?$AAr?$AA?9?$AAa?$AAe?$AA?$AA@ 0000000180025f30     libucrt:lcidtoname_downlevel.obj
 0002:00005f40       ??_C@_1M@BMLMEKGI@?$AAa?$AAr?$AA?9?$AAb?$AAh?$AA?$AA@ 0000000180025f40     libucrt:lcidtoname_downlevel.obj
 0002:00005f50       ??_C@_1M@DAPFDGGB@?$AAa?$AAr?$AA?9?$AAd?$AAz?$AA?$AA@ 0000000180025f50     libucrt:lcidtoname_downlevel.obj
 0002:00005f60       ??_C@_1M@FJNKGKIG@?$AAa?$AAr?$AA?9?$AAe?$AAg?$AA?$AA@ 0000000180025f60     libucrt:lcidtoname_downlevel.obj
 0002:00005f70       ??_C@_1M@FLGKKCLO@?$AAa?$AAr?$AA?9?$AAi?$AAq?$AA?$AA@ 0000000180025f70     libucrt:lcidtoname_downlevel.obj
 0002:00005f80       ??_C@_1M@GNDIPALM@?$AAa?$AAr?$AA?9?$AAj?$AAo?$AA?$AA@ 0000000180025f80     libucrt:lcidtoname_downlevel.obj
 0002:00005f90       ??_C@_1M@DDMJFMGJ@?$AAa?$AAr?$AA?9?$AAk?$AAw?$AA?$AA@ 0000000180025f90     libucrt:lcidtoname_downlevel.obj
 0002:00005fa0       ??_C@_1M@EJALMLHM@?$AAa?$AAr?$AA?9?$AAl?$AAb?$AA?$AA@ 0000000180025fa0     libucrt:lcidtoname_downlevel.obj
 0002:00005fb0       ??_C@_1M@MOBDBLOC@?$AAa?$AAr?$AA?9?$AAl?$AAy?$AA?$AA@ 0000000180025fb0     libucrt:lcidtoname_downlevel.obj
 0002:00005fc0       ??_C@_1M@JAOCLHDH@?$AAa?$AAr?$AA?9?$AAm?$AAa?$AA?$AA@ 0000000180025fc0     libucrt:lcidtoname_downlevel.obj
 0002:00005fd0       ??_C@_1M@JHPMKJIE@?$AAa?$AAr?$AA?9?$AAo?$AAm?$AA?$AA@ 0000000180025fd0     libucrt:lcidtoname_downlevel.obj
 0002:00005fe0       ??_C@_1M@OEPGHFNH@?$AAa?$AAr?$AA?9?$AAq?$AAa?$AA?$AA@ 0000000180025fe0     libucrt:lcidtoname_downlevel.obj
 0002:00005ff0       ??_C@_1M@KJDONENM@?$AAa?$AAr?$AA?9?$AAs?$AAa?$AA?$AA@ 0000000180025ff0     libucrt:lcidtoname_downlevel.obj
 0002:00006000       ??_C@_1M@DMJDKLKM@?$AAa?$AAr?$AA?9?$AAs?$AAy?$AA?$AA@ 0000000180026000     libucrt:lcidtoname_downlevel.obj
 0002:00006010       ??_C@_1M@OMFIPEDC@?$AAa?$AAr?$AA?9?$AAt?$AAn?$AA?$AA@ 0000000180026010     libucrt:lcidtoname_downlevel.obj
 0002:00006020       ??_C@_1M@IHMHGAON@?$AAa?$AAr?$AA?9?$AAy?$AAe?$AA?$AA@ 0000000180026020     libucrt:lcidtoname_downlevel.obj
 0002:00006030       ??_C@_1BG@KDCPGJGB@?$AAa?$AAz?$AA?9?$AAa?$AAz?$AA?9?$AAc?$AAy?$AAr?$AAl?$AA?$AA@ 0000000180026030     libucrt:lcidtoname_downlevel.obj
 0002:00006048       ??_C@_1BG@IBCKDDOE@?$AAa?$AAz?$AA?9?$AAa?$AAz?$AA?9?$AAl?$AAa?$AAt?$AAn?$AA?$AA@ 0000000180026048     libucrt:lcidtoname_downlevel.obj
 0002:00006060       ??_C@_1M@EGPFDCPD@?$AAb?$AAe?$AA?9?$AAb?$AAy?$AA?$AA@ 0000000180026060     libucrt:lcidtoname_downlevel.obj
 0002:00006070       ??_C@_1M@PCMGMCGC@?$AAb?$AAg?$AA?9?$AAb?$AAg?$AA?$AA@ 0000000180026070     libucrt:lcidtoname_downlevel.obj
 0002:00006080       ??_C@_1M@BJBMFGOB@?$AAb?$AAn?$AA?9?$AAi?$AAn?$AA?$AA@ 0000000180026080     libucrt:lcidtoname_downlevel.obj
 0002:00006090       ??_C@_1BG@EAKMMACD@?$AAb?$AAs?$AA?9?$AAb?$AAa?$AA?9?$AAl?$AAa?$AAt?$AAn?$AA?$AA@ 0000000180026090     libucrt:lcidtoname_downlevel.obj
 0002:000060a8       ??_C@_1M@KGADAODK@?$AAc?$AAa?$AA?9?$AAe?$AAs?$AA?$AA@ 00000001800260a8     libucrt:lcidtoname_downlevel.obj
 0002:000060b8       ??_C@_1M@COAJPDHI@?$AAc?$AAs?$AA?9?$AAc?$AAz?$AA?$AA@ 00000001800260b8     libucrt:lcidtoname_downlevel.obj
 0002:000060c8       ??_C@_1M@DHBHFONH@?$AAc?$AAy?$AA?9?$AAg?$AAb?$AA?$AA@ 00000001800260c8     libucrt:lcidtoname_downlevel.obj
 0002:000060d8       ??_C@_1M@IMGKELGA@?$AAd?$AAa?$AA?9?$AAd?$AAk?$AA?$AA@ 00000001800260d8     libucrt:lcidtoname_downlevel.obj
 0002:000060e8       ??_C@_1M@NNDGDNGA@?$AAd?$AAe?$AA?9?$AAa?$AAt?$AA?$AA@ 00000001800260e8     libucrt:lcidtoname_downlevel.obj
 0002:000060f8       ??_C@_1M@IKDBHEEM@?$AAd?$AAe?$AA?9?$AAc?$AAh?$AA?$AA@ 00000001800260f8     libucrt:lcidtoname_downlevel.obj
 0002:00006108       ??_C@_1M@GFFOJMCJ@?$AAd?$AAe?$AA?9?$AAd?$AAe?$AA?$AA@ 0000000180026108     libucrt:lcidtoname_downlevel.obj
 0002:00006118       ??_C@_1M@MDNLKBPM@?$AAd?$AAe?$AA?9?$AAl?$AAi?$AA?$AA@ 0000000180026118     libucrt:lcidtoname_downlevel.obj
 0002:00006128       ??_C@_1M@NJBEEJNL@?$AAd?$AAe?$AA?9?$AAl?$AAu?$AA?$AA@ 0000000180026128     libucrt:lcidtoname_downlevel.obj
 0002:00006138       ??_C@_1O@GNNELBAP@?$AAd?$AAi?$AAv?$AA?9?$AAm?$AAv?$AA?$AA@ 0000000180026138     libucrt:lcidtoname_downlevel.obj
 0002:00006148       ??_C@_1M@EJLEOGAE@?$AAe?$AAl?$AA?9?$AAg?$AAr?$AA?$AA@ 0000000180026148     libucrt:lcidtoname_downlevel.obj
 0002:00006158       ??_C@_1M@GMPONJN@?$AAe?$AAn?$AA?9?$AAa?$AAu?$AA?$AA@ 0000000180026158     libucrt:lcidtoname_downlevel.obj
 0002:00006168       ??_C@_1M@NIDIIPGF@?$AAe?$AAn?$AA?9?$AAb?$AAz?$AA?$AA@ 0000000180026168     libucrt:lcidtoname_downlevel.obj
 0002:00006178       ??_C@_1M@JEHMIMFO@?$AAe?$AAn?$AA?9?$AAc?$AAa?$AA?$AA@ 0000000180026178     libucrt:lcidtoname_downlevel.obj
 0002:00006188       ??_C@_1M@IGMJCDLA@?$AAe?$AAn?$AA?9?$AAc?$AAb?$AA?$AA@ 0000000180026188     libucrt:lcidtoname_downlevel.obj
 0002:00006198       ??_C@_1M@BNFIGBKG@?$AAe?$AAn?$AA?9?$AAg?$AAb?$AA?$AA@ 0000000180026198     libucrt:lcidtoname_downlevel.obj
 0002:000061a8       ??_C@_1M@LKIFDIGP@?$AAe?$AAn?$AA?9?$AAi?$AAe?$AA?$AA@ 00000001800261a8     libucrt:lcidtoname_downlevel.obj
 0002:000061b8       ??_C@_1M@PJKFGCCO@?$AAe?$AAn?$AA?9?$AAj?$AAm?$AA?$AA@ 00000001800261b8     libucrt:lcidtoname_downlevel.obj
 0002:000061c8       ??_C@_1M@KPPKEPBO@?$AAe?$AAn?$AA?9?$AAn?$AAz?$AA?$AA@ 00000001800261c8     libucrt:lcidtoname_downlevel.obj
 0002:000061d8       ??_C@_1M@GMDGLDOB@?$AAe?$AAn?$AA?9?$AAp?$AAh?$AA?$AA@ 00000001800261d8     libucrt:lcidtoname_downlevel.obj
 0002:000061e8       ??_C@_1M@ONGIBJNA@?$AAe?$AAn?$AA?9?$AAt?$AAt?$AA?$AA@ 00000001800261e8     libucrt:lcidtoname_downlevel.obj
 0002:000061f8       ??_C@_1M@LLODPCMM@?$AAe?$AAn?$AA?9?$AAu?$AAs?$AA?$AA@ 00000001800261f8     libucrt:lcidtoname_downlevel.obj
 0002:00006208       ??_C@_1M@LAKFNPAN@?$AAe?$AAn?$AA?9?$AAz?$AAa?$AA?$AA@ 0000000180026208     libucrt:lcidtoname_downlevel.obj
 0002:00006218       ??_C@_1M@MFNHNHEO@?$AAe?$AAn?$AA?9?$AAz?$AAw?$AA?$AA@ 0000000180026218     libucrt:lcidtoname_downlevel.obj
 0002:00006228       ??_C@_1M@EJEINPHM@?$AAe?$AAs?$AA?9?$AAa?$AAr?$AA?$AA@ 0000000180026228     libucrt:lcidtoname_downlevel.obj
 0002:00006238       ??_C@_1M@GNKPCCJA@?$AAe?$AAs?$AA?9?$AAb?$AAo?$AA?$AA@ 0000000180026238     libucrt:lcidtoname_downlevel.obj
 0002:00006248       ??_C@_1M@LEEGFONL@?$AAe?$AAs?$AA?9?$AAc?$AAl?$AA?$AA@ 0000000180026248     libucrt:lcidtoname_downlevel.obj
 0002:00006258       ??_C@_1M@KGPDPBDF@?$AAe?$AAs?$AA?9?$AAc?$AAo?$AA?$AA@ 0000000180026258     libucrt:lcidtoname_downlevel.obj
 0002:00006268       ??_C@_1M@EIAHOHH@?$AAe?$AAs?$AA?9?$AAc?$AAr?$AA?$AA@ 0000000180026268     libucrt:lcidtoname_downlevel.obj
 0002:00006278       ??_C@_1M@LLPGMBIN@?$AAe?$AAs?$AA?9?$AAd?$AAo?$AA?$AA@ 0000000180026278     libucrt:lcidtoname_downlevel.obj
 0002:00006288       ??_C@_1M@DKHMKNJA@?$AAe?$AAs?$AA?9?$AAe?$AAc?$AA?$AA@ 0000000180026288     libucrt:lcidtoname_downlevel.obj
 0002:00006298       ??_C@_1M@GKGFPKAP@?$AAe?$AAs?$AA?9?$AAe?$AAs?$AA?$AA@ 0000000180026298     libucrt:lcidtoname_downlevel.obj
 0002:000062a8       ??_C@_1M@LKHKGDLN@?$AAe?$AAs?$AA?9?$AAg?$AAt?$AA?$AA@ 00000001800262a8     libucrt:lcidtoname_downlevel.obj
 0002:000062b8       ??_C@_1M@HEIIGGJD@?$AAe?$AAs?$AA?9?$AAh?$AAn?$AA?$AA@ 00000001800262b8     libucrt:lcidtoname_downlevel.obj
 0002:000062c8       ??_C@_1M@FBDHPPGD@?$AAe?$AAs?$AA?9?$AAm?$AAx?$AA?$AA@ 00000001800262c8     libucrt:lcidtoname_downlevel.obj
 0002:000062d8       ??_C@_1M@DPAGLNDH@?$AAe?$AAs?$AA?9?$AAn?$AAi?$AA?$AA@ 00000001800262d8     libucrt:lcidtoname_downlevel.obj
 0002:000062e8       ??_C@_1M@MDGOPGDD@?$AAe?$AAs?$AA?9?$AAp?$AAa?$AA?$AA@ 00000001800262e8     libucrt:lcidtoname_downlevel.obj
 0002:000062f8       ??_C@_1M@EMAMGBGE@?$AAe?$AAs?$AA?9?$AAp?$AAe?$AA?$AA@ 00000001800262f8     libucrt:lcidtoname_downlevel.obj
 0002:00006308       ??_C@_1M@IBMCAOEC@?$AAe?$AAs?$AA?9?$AAp?$AAr?$AA?$AA@ 0000000180026308     libucrt:lcidtoname_downlevel.obj
 0002:00006318       ??_C@_1M@FGMDIJED@?$AAe?$AAs?$AA?9?$AAp?$AAy?$AA?$AA@ 0000000180026318     libucrt:lcidtoname_downlevel.obj
 0002:00006328       ??_C@_1M@IIDEOLLL@?$AAe?$AAs?$AA?9?$AAs?$AAv?$AA?$AA@ 0000000180026328     libucrt:lcidtoname_downlevel.obj
 0002:00006338       ??_C@_1M@GAOBIPA@?$AAe?$AAs?$AA?9?$AAu?$AAy?$AA?$AA@ 0000000180026338     libucrt:lcidtoname_downlevel.obj
 0002:00006348       ??_C@_1M@JKFFICHJ@?$AAe?$AAs?$AA?9?$AAv?$AAe?$AA?$AA@ 0000000180026348     libucrt:lcidtoname_downlevel.obj
 0002:00006358       ??_C@_1M@PNMLOJDF@?$AAe?$AAt?$AA?9?$AAe?$AAe?$AA?$AA@ 0000000180026358     libucrt:lcidtoname_downlevel.obj
 0002:00006368       ??_C@_1M@GHHLIKEI@?$AAe?$AAu?$AA?9?$AAe?$AAs?$AA?$AA@ 0000000180026368     libucrt:lcidtoname_downlevel.obj
 0002:00006378       ??_C@_1M@PBNONODE@?$AAf?$AAa?$AA?9?$AAi?$AAr?$AA?$AA@ 0000000180026378     libucrt:lcidtoname_downlevel.obj
 0002:00006388       ??_C@_1M@JEEHPMIL@?$AAf?$AAi?$AA?9?$AAf?$AAi?$AA?$AA@ 0000000180026388     libucrt:lcidtoname_downlevel.obj
 0002:00006398       ??_C@_1M@LMDCNDBA@?$AAf?$AAo?$AA?9?$AAf?$AAo?$AA?$AA@ 0000000180026398     libucrt:lcidtoname_downlevel.obj
 0002:000063a8       ??_C@_1M@JKEOHLDK@?$AAf?$AAr?$AA?9?$AAb?$AAe?$AA?$AA@ 00000001800263a8     libucrt:lcidtoname_downlevel.obj
 0002:000063b8       ??_C@_1M@NOHADPMI@?$AAf?$AAr?$AA?9?$AAc?$AAa?$AA?$AA@ 00000001800263b8     libucrt:lcidtoname_downlevel.obj
 0002:000063c8       ??_C@_1M@KDHIHAEC@?$AAf?$AAr?$AA?9?$AAc?$AAh?$AA?$AA@ 00000001800263c8     libucrt:lcidtoname_downlevel.obj
 0002:000063d8       ??_C@_1M@MMBBFGAK@?$AAf?$AAr?$AA?9?$AAf?$AAr?$AA?$AA@ 00000001800263d8     libucrt:lcidtoname_downlevel.obj
 0002:000063e8       ??_C@_1M@PAFNENNF@?$AAf?$AAr?$AA?9?$AAl?$AAu?$AA?$AA@ 00000001800263e8     libucrt:lcidtoname_downlevel.obj
 0002:000063f8       ??_C@_1M@EOHDJGDD@?$AAf?$AAr?$AA?9?$AAm?$AAc?$AA?$AA@ 00000001800263f8     libucrt:lcidtoname_downlevel.obj
 0002:00006408       ??_C@_1M@FAPLLOPF@?$AAg?$AAl?$AA?9?$AAe?$AAs?$AA?$AA@ 0000000180026408     libucrt:lcidtoname_downlevel.obj
 0002:00006418       ??_C@_1M@FOPBFLOO@?$AAg?$AAu?$AA?9?$AAi?$AAn?$AA?$AA@ 0000000180026418     libucrt:lcidtoname_downlevel.obj
 0002:00006428       ??_C@_1M@KBMCINPM@?$AAh?$AAe?$AA?9?$AAi?$AAl?$AA?$AA@ 0000000180026428     libucrt:lcidtoname_downlevel.obj
 0002:00006438       ??_C@_1M@BBPHKFPJ@?$AAh?$AAi?$AA?9?$AAi?$AAn?$AA?$AA@ 0000000180026438     libucrt:lcidtoname_downlevel.obj
 0002:00006448       ??_C@_1M@PMBNDPHD@?$AAh?$AAr?$AA?9?$AAb?$AAa?$AA?$AA@ 0000000180026448     libucrt:lcidtoname_downlevel.obj
 0002:00006458       ??_C@_1M@BPCKOEGE@?$AAh?$AAr?$AA?9?$AAh?$AAr?$AA?$AA@ 0000000180026458     libucrt:lcidtoname_downlevel.obj
 0002:00006468       ??_C@_1M@GACBMHKE@?$AAh?$AAu?$AA?9?$AAh?$AAu?$AA?$AA@ 0000000180026468     libucrt:lcidtoname_downlevel.obj
 0002:00006478       ??_C@_1M@MILPAJJC@?$AAh?$AAy?$AA?9?$AAa?$AAm?$AA?$AA@ 0000000180026478     libucrt:lcidtoname_downlevel.obj
 0002:00006488       ??_C@_1M@BABBICEC@?$AAi?$AAd?$AA?9?$AAi?$AAd?$AA?$AA@ 0000000180026488     libucrt:lcidtoname_downlevel.obj
 0002:00006498       ??_C@_1M@BIKNHHPF@?$AAi?$AAs?$AA?9?$AAi?$AAs?$AA?$AA@ 0000000180026498     libucrt:lcidtoname_downlevel.obj
 0002:000064a8       ??_C@_1M@NMPCJPHE@?$AAi?$AAt?$AA?9?$AAc?$AAh?$AA?$AA@ 00000001800264a8     libucrt:lcidtoname_downlevel.obj
 0002:000064b8       ??_C@_1M@GHKGFEDF@?$AAi?$AAt?$AA?9?$AAi?$AAt?$AA?$AA@ 00000001800264b8     libucrt:lcidtoname_downlevel.obj
 0002:000064c8       ??_C@_1M@NIEJCJJA@?$AAj?$AAa?$AA?9?$AAj?$AAp?$AA?$AA@ 00000001800264c8     libucrt:lcidtoname_downlevel.obj
 0002:000064d8       ??_C@_1M@JILFNBIM@?$AAk?$AAa?$AA?9?$AAg?$AAe?$AA?$AA@ 00000001800264d8     libucrt:lcidtoname_downlevel.obj
 0002:000064e8       ??_C@_1M@PACPMGPH@?$AAk?$AAk?$AA?9?$AAk?$AAz?$AA?$AA@ 00000001800264e8     libucrt:lcidtoname_downlevel.obj
 0002:000064f8       ??_C@_1M@IELFGMHA@?$AAk?$AAn?$AA?9?$AAi?$AAn?$AA?$AA@ 00000001800264f8     libucrt:lcidtoname_downlevel.obj
 0002:00006508       ??_C@_1O@IBBJHCH@?$AAk?$AAo?$AAk?$AA?9?$AAi?$AAn?$AA?$AA@ 0000000180026508     libucrt:lcidtoname_downlevel.obj
 0002:00006518       ??_C@_1M@DMHAEOGC@?$AAk?$AAo?$AA?9?$AAk?$AAr?$AA?$AA@ 0000000180026518     libucrt:lcidtoname_downlevel.obj
 0002:00006528       ??_C@_1M@HBAHBIGA@?$AAk?$AAy?$AA?9?$AAk?$AAg?$AA?$AA@ 0000000180026528     libucrt:lcidtoname_downlevel.obj
 0002:00006538       ??_C@_1M@KPMILCJG@?$AAl?$AAt?$AA?9?$AAl?$AAt?$AA?$AA@ 0000000180026538     libucrt:lcidtoname_downlevel.obj
 0002:00006548       ??_C@_1M@BDEKKCA@?$AAl?$AAv?$AA?9?$AAl?$AAv?$AA?$AA@ 0000000180026548     libucrt:lcidtoname_downlevel.obj
 0002:00006558       ??_C@_1M@ELCKCCJJ@?$AAm?$AAi?$AA?9?$AAn?$AAz?$AA?$AA@ 0000000180026558     libucrt:lcidtoname_downlevel.obj
 0002:00006568       ??_C@_1M@CBOOLAPA@?$AAm?$AAk?$AA?9?$AAm?$AAk?$AA?$AA@ 0000000180026568     libucrt:lcidtoname_downlevel.obj
 0002:00006578       ??_C@_1M@GPHNBJKN@?$AAm?$AAl?$AA?9?$AAi?$AAn?$AA?$AA@ 0000000180026578     libucrt:lcidtoname_downlevel.obj
 0002:00006588       ??_C@_1M@PABJILIG@?$AAm?$AAn?$AA?9?$AAm?$AAn?$AA?$AA@ 0000000180026588     libucrt:lcidtoname_downlevel.obj
 0002:00006598       ??_C@_1M@FGBKKIPG@?$AAm?$AAr?$AA?9?$AAi?$AAn?$AA?$AA@ 0000000180026598     libucrt:lcidtoname_downlevel.obj
 0002:000065a8       ??_C@_1M@NDBPDDAL@?$AAm?$AAs?$AA?9?$AAb?$AAn?$AA?$AA@ 00000001800265a8     libucrt:lcidtoname_downlevel.obj
 0002:000065b8       ??_C@_1M@OPIHOOPI@?$AAm?$AAs?$AA?9?$AAm?$AAy?$AA?$AA@ 00000001800265b8     libucrt:lcidtoname_downlevel.obj
 0002:000065c8       ??_C@_1M@PPDBCNFM@?$AAm?$AAt?$AA?9?$AAm?$AAt?$AA?$AA@ 00000001800265c8     libucrt:lcidtoname_downlevel.obj
 0002:000065d8       ??_C@_1M@KDJDKMDD@?$AAn?$AAb?$AA?9?$AAn?$AAo?$AA?$AA@ 00000001800265d8     libucrt:lcidtoname_downlevel.obj
 0002:000065e8       ??_C@_1M@KFCFLMJP@?$AAn?$AAl?$AA?9?$AAb?$AAe?$AA?$AA@ 00000001800265e8     libucrt:lcidtoname_downlevel.obj
 0002:000065f8       ??_C@_1M@KPOPDDGO@?$AAn?$AAl?$AA?9?$AAn?$AAl?$AA?$AA@ 00000001800265f8     libucrt:lcidtoname_downlevel.obj
 0002:00006608       ??_C@_1M@LJKPEMLN@?$AAn?$AAn?$AA?9?$AAn?$AAo?$AA?$AA@ 0000000180026608     libucrt:lcidtoname_downlevel.obj
 0002:00006618       ??_C@_1M@BDGHHBFL@?$AAn?$AAs?$AA?9?$AAz?$AAa?$AA?$AA@ 0000000180026618     libucrt:lcidtoname_downlevel.obj
 0002:00006628       ??_C@_1M@IDEHOAP@?$AAp?$AAa?$AA?9?$AAi?$AAn?$AA?$AA@ 0000000180026628     libucrt:lcidtoname_downlevel.obj
 0002:00006638       ??_C@_1M@HDBKGOGH@?$AAp?$AAl?$AA?9?$AAp?$AAl?$AA?$AA@ 0000000180026638     libucrt:lcidtoname_downlevel.obj
 0002:00006648       ??_C@_1M@LJLLCMEH@?$AAp?$AAt?$AA?9?$AAb?$AAr?$AA?$AA@ 0000000180026648     libucrt:lcidtoname_downlevel.obj
 0002:00006658       ??_C@_1M@NCMONAAL@?$AAp?$AAt?$AA?9?$AAp?$AAt?$AA?$AA@ 0000000180026658     libucrt:lcidtoname_downlevel.obj
 0002:00006668       ??_C@_1O@EAKMAJDN@?$AAq?$AAu?$AAz?$AA?9?$AAb?$AAo?$AA?$AA@ 0000000180026668     libucrt:lcidtoname_downlevel.obj
 0002:00006678       ??_C@_1O@BHHPIGDN@?$AAq?$AAu?$AAz?$AA?9?$AAe?$AAc?$AA?$AA@ 0000000180026678     libucrt:lcidtoname_downlevel.obj
 0002:00006688       ??_C@_1O@GBAPEKMJ@?$AAq?$AAu?$AAz?$AA?9?$AAp?$AAe?$AA?$AA@ 0000000180026688     libucrt:lcidtoname_downlevel.obj
 0002:00006698       ??_C@_1M@CLGLEFBO@?$AAr?$AAo?$AA?9?$AAr?$AAo?$AA?$AA@ 0000000180026698     libucrt:lcidtoname_downlevel.obj
 0002:000066a8       ??_C@_1M@CEEDODME@?$AAr?$AAu?$AA?9?$AAr?$AAu?$AA?$AA@ 00000001800266a8     libucrt:lcidtoname_downlevel.obj
 0002:000066b8       ??_C@_1M@HPKKKMPP@?$AAs?$AAa?$AA?9?$AAi?$AAn?$AA?$AA@ 00000001800266b8     libucrt:lcidtoname_downlevel.obj
 0002:000066c8       ??_C@_1M@BKMAIGOJ@?$AAs?$AAe?$AA?9?$AAf?$AAi?$AA?$AA@ 00000001800266c8     libucrt:lcidtoname_downlevel.obj
 0002:000066d8       ??_C@_1M@NDPIFLFI@?$AAs?$AAe?$AA?9?$AAn?$AAo?$AA?$AA@ 00000001800266d8     libucrt:lcidtoname_downlevel.obj
 0002:000066e8       ??_C@_1M@DANKKHJ@?$AAs?$AAe?$AA?9?$AAs?$AAe?$AA?$AA@ 00000001800266e8     libucrt:lcidtoname_downlevel.obj
 0002:000066f8       ??_C@_1M@PNBLONPJ@?$AAs?$AAk?$AA?9?$AAs?$AAk?$AA?$AA@ 00000001800266f8     libucrt:lcidtoname_downlevel.obj
 0002:00006708       ??_C@_1M@LFMODOAL@?$AAs?$AAl?$AA?9?$AAs?$AAi?$AA?$AA@ 0000000180026708     libucrt:lcidtoname_downlevel.obj
 0002:00006718       ??_C@_1O@DFKOMPG@?$AAs?$AAm?$AAa?$AA?9?$AAn?$AAo?$AA?$AA@ 0000000180026718     libucrt:lcidtoname_downlevel.obj
 0002:00006728       ??_C@_1O@NDKPBNNH@?$AAs?$AAm?$AAa?$AA?9?$AAs?$AAe?$AA?$AA@ 0000000180026728     libucrt:lcidtoname_downlevel.obj
 0002:00006738       ??_C@_1O@PLLKBHAB@?$AAs?$AAm?$AAj?$AA?9?$AAn?$AAo?$AA?$AA@ 0000000180026738     libucrt:lcidtoname_downlevel.obj
 0002:00006748       ??_C@_1O@CLEPOGCA@?$AAs?$AAm?$AAj?$AA?9?$AAs?$AAe?$AA?$AA@ 0000000180026748     libucrt:lcidtoname_downlevel.obj
 0002:00006758       ??_C@_1O@DLGJGKMK@?$AAs?$AAm?$AAn?$AA?9?$AAf?$AAi?$AA?$AA@ 0000000180026758     libucrt:lcidtoname_downlevel.obj
 0002:00006768       ??_C@_1O@OJDJGAJC@?$AAs?$AAm?$AAs?$AA?9?$AAf?$AAi?$AA?$AA@ 0000000180026768     libucrt:lcidtoname_downlevel.obj
 0002:00006778       ??_C@_1M@BOFOGHPB@?$AAs?$AAq?$AA?9?$AAa?$AAl?$AA?$AA@ 0000000180026778     libucrt:lcidtoname_downlevel.obj
 0002:00006788       ??_C@_1BG@LJBBIPGB@?$AAs?$AAr?$AA?9?$AAb?$AAa?$AA?9?$AAc?$AAy?$AAr?$AAl?$AA?$AA@ 0000000180026788     libucrt:lcidtoname_downlevel.obj
 0002:000067a0       ??_C@_1BG@JLBENFOE@?$AAs?$AAr?$AA?9?$AAb?$AAa?$AA?9?$AAl?$AAa?$AAt?$AAn?$AA?$AA@ 00000001800267a0     libucrt:lcidtoname_downlevel.obj
 0002:000067b8       ??_C@_1BG@KODPNHE@?$AAs?$AAr?$AA?9?$AAs?$AAp?$AA?9?$AAc?$AAy?$AAr?$AAl?$AA?$AA@ 00000001800267b8     libucrt:lcidtoname_downlevel.obj
 0002:000067d0       ??_C@_1BG@CIOGKHPB@?$AAs?$AAr?$AA?9?$AAs?$AAp?$AA?9?$AAl?$AAa?$AAt?$AAn?$AA?$AA@ 00000001800267d0     libucrt:lcidtoname_downlevel.obj
 0002:000067e8       ??_C@_1M@NGFJLMAC@?$AAs?$AAv?$AA?9?$AAf?$AAi?$AA?$AA@ 00000001800267e8     libucrt:lcidtoname_downlevel.obj
 0002:000067f8       ??_C@_1M@MPJEJAJC@?$AAs?$AAv?$AA?9?$AAs?$AAe?$AA?$AA@ 00000001800267f8     libucrt:lcidtoname_downlevel.obj
 0002:00006808       ??_C@_1M@MPNDHLFK@?$AAs?$AAw?$AA?9?$AAk?$AAe?$AA?$AA@ 0000000180026808     libucrt:lcidtoname_downlevel.obj
 0002:00006818       ??_C@_1O@KOHBJJI@?$AAs?$AAy?$AAr?$AA?9?$AAs?$AAy?$AA?$AA@ 0000000180026818     libucrt:lcidtoname_downlevel.obj
 0002:00006828       ??_C@_1M@LDCEFHA@?$AAt?$AAa?$AA?9?$AAi?$AAn?$AA?$AA@ 0000000180026828     libucrt:lcidtoname_downlevel.obj
 0002:00006838       ??_C@_1M@CNJOFAK@?$AAt?$AAe?$AA?9?$AAi?$AAn?$AA?$AA@ 0000000180026838     libucrt:lcidtoname_downlevel.obj
 0002:00006848       ??_C@_1M@GNAECACD@?$AAt?$AAh?$AA?9?$AAt?$AAh?$AA?$AA@ 0000000180026848     libucrt:lcidtoname_downlevel.obj
 0002:00006858       ??_C@_1M@CHBIHOJO@?$AAt?$AAn?$AA?9?$AAz?$AAa?$AA?$AA@ 0000000180026858     libucrt:lcidtoname_downlevel.obj
 0002:00006868       ??_C@_1M@GCCMIGPJ@?$AAt?$AAr?$AA?9?$AAt?$AAr?$AA?$AA@ 0000000180026868     libucrt:lcidtoname_downlevel.obj
 0002:00006878       ??_C@_1M@CELMCNBK@?$AAt?$AAt?$AA?9?$AAr?$AAu?$AA?$AA@ 0000000180026878     libucrt:lcidtoname_downlevel.obj
 0002:00006888       ??_C@_1M@KLMCELGA@?$AAu?$AAk?$AA?9?$AAu?$AAa?$AA?$AA@ 0000000180026888     libucrt:lcidtoname_downlevel.obj
 0002:00006898       ??_C@_1M@EPAJJAJF@?$AAu?$AAr?$AA?9?$AAp?$AAk?$AA?$AA@ 0000000180026898     libucrt:lcidtoname_downlevel.obj
 0002:000068a8       ??_C@_1BG@GEGPMCDJ@?$AAu?$AAz?$AA?9?$AAu?$AAz?$AA?9?$AAc?$AAy?$AAr?$AAl?$AA?$AA@ 00000001800268a8     libucrt:lcidtoname_downlevel.obj
 0002:000068c0       ??_C@_1BG@EGGKJILM@?$AAu?$AAz?$AA?9?$AAu?$AAz?$AA?9?$AAl?$AAa?$AAt?$AAn?$AA?$AA@ 00000001800268c0     libucrt:lcidtoname_downlevel.obj
 0002:000068d8       ??_C@_1M@GFOCLFF@?$AAv?$AAi?$AA?9?$AAv?$AAn?$AA?$AA@ 00000001800268d8     libucrt:lcidtoname_downlevel.obj
 0002:000068e8       ??_C@_1M@CPAMEDFI@?$AAx?$AAh?$AA?9?$AAz?$AAa?$AA?$AA@ 00000001800268e8     libucrt:lcidtoname_downlevel.obj
 0002:000068f8       ??_C@_1O@EBKIFIGN@?$AAz?$AAh?$AA?9?$AAc?$AAh?$AAs?$AA?$AA@ 00000001800268f8     libucrt:lcidtoname_downlevel.obj
 0002:00006908       ??_C@_1O@NMHPGANE@?$AAz?$AAh?$AA?9?$AAc?$AAh?$AAt?$AA?$AA@ 0000000180026908     libucrt:lcidtoname_downlevel.obj
 0002:00006918       ??_C@_1M@LPINJOMC@?$AAz?$AAh?$AA?9?$AAc?$AAn?$AA?$AA@ 0000000180026918     libucrt:lcidtoname_downlevel.obj
 0002:00006928       ??_C@_1M@OCJEJODD@?$AAz?$AAh?$AA?9?$AAh?$AAk?$AA?$AA@ 0000000180026928     libucrt:lcidtoname_downlevel.obj
 0002:00006938       ??_C@_1M@DNDLJINH@?$AAz?$AAh?$AA?9?$AAm?$AAo?$AA?$AA@ 0000000180026938     libucrt:lcidtoname_downlevel.obj
 0002:00006948       ??_C@_1M@MBFDNDND@?$AAz?$AAh?$AA?9?$AAs?$AAg?$AA?$AA@ 0000000180026948     libucrt:lcidtoname_downlevel.obj
 0002:00006958       ??_C@_1M@IMEPLEPE@?$AAz?$AAh?$AA?9?$AAt?$AAw?$AA?$AA@ 0000000180026958     libucrt:lcidtoname_downlevel.obj
 0002:00006968       ??_C@_1M@BBGHNHJP@?$AAz?$AAu?$AA?9?$AAz?$AAa?$AA?$AA@ 0000000180026968     libucrt:lcidtoname_downlevel.obj
 0002:00006978       __real@3ff0000000000000    0000000180026978     libucrt:ceil.obj
 0002:00006bd0       __log10_256_lead           0000000180026bd0     libucrt:log10_256_lead_tail_table.obj
 0002:000073e0       __log10_256_tail           00000001800273e0     libucrt:log10_256_lead_tail_table.obj
 0002:00007bf0       __log_F_inv_qword          0000000180027bf0     libucrt:log_f_inv_qword_table.obj
 0002:00008400       ??_C@_05HGHHAHAP@log10?$AA@ 0000000180028400     libucrt:log_special.obj
 0002:00008408       ??_C@_1BA@BALFACEM@?$AAC?$AAO?$AAN?$AAO?$AAU?$AAT?$AA$?$AA?$AA@ 0000000180028408     libucrt:initcon.obj
 0002:00008430       ??_C@_1BK@DBDEIDLH@?$AAK?$AAE?$AAR?$AAN?$AAE?$AAL?$AA3?$AA2?$AA?4?$AAD?$AAL?$AAL?$AA?$AA@ 0000000180028430     DelayImp:delayhlp.obj
 0002:00008450       ??_C@_0BI@OMNLIJDB@AcquireSRWLockExclusive?$AA@ 0000000180028450     DelayImp:delayhlp.obj
 0002:00008468       ??_C@_0BI@HMIEPCNJ@ReleaseSRWLockExclusive?$AA@ 0000000180028468     DelayImp:delayhlp.obj
 0002:00008480       __pfnDliFailureHook2       0000000180028480     DelayImp:delayhk1.obj
 0002:00008490       _load_config_used          0000000180028490     LIBCMT:loadcfg.obj
 0002:00008528       ??_C@_0BA@FIPBKFBN@?4?4?2src?2main?4cpp?$AA@ 0000000180028528     main.obj
 0002:00008538       ??_C@_0N@GBFAJBAA@node_activex?$AA@ 0000000180028538     main.obj
 0002:00008550       ?CLSID_DispObjectImpl@@3U_GUID@@B 0000000180028550     utils.obj
 0002:00008560       __pfnDliNotifyHook2        0000000180028560     win_delay_load_hook.obj
 0002:00008568       ??_C@_05LAPONLG@false?$AA@ 0000000180028568     utils.obj
 0002:00008570       ??_C@_04LOAJBDKD@true?$AA@ 0000000180028570     utils.obj
 0002:00008578       ??_C@_02NJPGOMH@?$CFf?$AA@ 0000000180028578     utils.obj
 0002:00008580       ??_C@_1IC@NGGLFGMB@?$AAC?$AA?3?$AA?2?$AAU?$AAs?$AAe?$AAr?$AAs?$AA?2?$AAs?$AAa?$AAn?$AAd?$AAi?$AAp?$AAw?$AA?2?$AA?4?$AAn?$AAo?$AAd?$AAe?$AA?9?$AAg?$AAy?$AAp?$AA?2?$AA8?$AA?4?$AA9?$AA?4?$AA4@ 0000000180028580     utils.obj
 0002:00008610       ??_C@_1EC@NOLNIHNJ@?$AAh?$AAa?$AAn?$AAd?$AAl?$AAe?$AA?9?$AA?$DO?$AAI?$AAn?$AAt?$AAe?$AAr?$AAn?$AAa?$AAl?$AAF?$AAi?$AAe?$AAl?$AAd?$AAC?$AAo?$AAu?$AAn?$AAt?$AA?$CI?$AA?$CJ?$AA?5?$AA?$DO?$AA?5?$AA0@ 0000000180028610     utils.obj
 0002:00008658       ??_C@_1BK@CJMNBNMP@?$AAE?$AAr?$AAr?$AAo?$AAr?$AA?5?$AA0?$AAx?$AA?$CF?$AA0?$AA8?$AAX?$AA?$AA@ 0000000180028658     utils.obj
 0002:00008678       ??_C@_1BC@BJHCFBNL@?$AAD?$AAi?$AAs?$AAp?$AAa?$AAt?$AAc?$AAh?$AA?$AA@ 0000000180028678     utils.obj
 0002:00008690       ??_C@_0L@MJHJLJJC@?$FLDispatch?$FN?$AA@ 0000000180028690     utils.obj
 0002:000086a0       ??_C@_1BA@LEPJIIOK@?$AAU?$AAn?$AAk?$AAn?$AAo?$AAw?$AAn?$AA?$AA@ 00000001800286a0     utils.obj
 0002:000086b0       ??_C@_09LLLMJHDJ@?$FLUnknown?$FN?$AA@ 00000001800286b0     utils.obj
 0002:000086bc       ??_C@_05HKAKDGKI@EMPTY?$AA@ 00000001800286bc     utils.obj
 0002:000086c4       ??_C@_04HIBGFPH@NULL?$AA@  00000001800286c4     utils.obj
 0002:000086cc       ??_C@_02IKAHHCAI@?$CFi?$AA@ 00000001800286cc     utils.obj
 0002:000086d0       ??_C@_02GMHACPFF@?$CFu?$AA@ 00000001800286d0     utils.obj
 0002:000086d8       ??_C@_19HCBLGCC@?$AAN?$AAe?$AAx?$AAt?$AA?$AA@ 00000001800286d8     utils.obj
 0002:000086e8       ??_C@_19IHBDOICB@?$AAS?$AAk?$AAi?$AAp?$AA?$AA@ 00000001800286e8     utils.obj
 0002:000086f8       ??_C@_1M@PNBPANGG@?$AAR?$AAe?$AAs?$AAe?$AAt?$AA?$AA@ 00000001800286f8     utils.obj
 0002:00008708       ??_C@_1M@DPMBGDGC@?$AAC?$AAl?$AAo?$AAn?$AAe?$AA?$AA@ 0000000180028708     utils.obj
 0002:00008718       ??_C@_0BD@OLBABOEK@vector?$DMT?$DO?5too?5long?$AA@ 0000000180028718     utils.obj
 0002:00008730       ??_C@_0BA@JFNIOLAK@string?5too?5long?$AA@ 0000000180028730     utils.obj
 0002:00008740       ??_C@_0BI@CFPLBAOH@invalid?5string?5position?$AA@ 0000000180028740     utils.obj
 0002:00008758       ??_C@_1CE@IAEMMFJ@?$AA?$CB?$AAh?$AAa?$AAn?$AAd?$AAl?$AAe?$AA?4?$AAI?$AAs?$AAE?$AAm?$AAp?$AAt?$AAy?$AA?$CI?$AA?$CJ?$AA?$AA@ 0000000180028758     utils.obj
 0002:00008780       ??_C@_0BE@JONHPENG@map?1set?$DMT?$DO?5too?5long?$AA@ 0000000180028780     utils.obj
 0002:00008798       ??_7?$_Ref_count@VDispInfo@@@std@@6B@ 0000000180028798     utils.obj
 0002:000087b8       ??_7?$_Ref_count@Uname_t@DispObjectImpl@@@std@@6B@ 00000001800287b8     utils.obj
 0002:000087d8       ??_7DispObjectImpl@@6B@    00000001800287d8     utils.obj
 0002:00008818       _GUID_00020400_0000_0000_c000_000000000046 0000000180028818     utils.obj
 0002:00008828       ??_7?$_Ref_count@Utype_t@DispInfo@@@std@@6B@ 0000000180028828     utils.obj
 0002:00008848       ??_7_Ref_count_base@std@@6B@ 0000000180028848     utils.obj
 0002:00008868       ??_7?$UnknownImpl@UIDispatch@@@@6B@ 0000000180028868     utils.obj
 0002:000088a8       _GUID_00020404_0000_0000_c000_000000000046 00000001800288a8     utils.obj
 0002:000088b8       ??_7DispEnumImpl@@6B@      00000001800288b8     utils.obj
 0002:000088f8       ??_C@_1DG@OKCGPKIB@?$AAp?$AAe?$AAr?$AAs?$AAi?$AAs?$AAt?$AAe?$AAn?$AAt?$AA?$CI?$AA?$CJ?$AA?4?$AAI?$AAs?$AAN?$AAe?$AAa?$AAr?$AAD?$AAe?$AAa?$AAt?$AAh?$AA?$CI?$AA?$CJ?$AA?$AA@ 00000001800288f8     disp.obj
 0002:00008930       ??_C@_1CO@EGNPJLKI@?$AAp?$AAe?$AAr?$AAs?$AAi?$AAs?$AAt?$AAe?$AAn?$AAt?$AA?$CI?$AA?$CJ?$AA?4?$AAI?$AAs?$AAE?$AAm?$AAp?$AAt?$AAy?$AA?$CI?$AA?$CJ?$AA?$AA@ 0000000180028930     disp.obj
 0002:00008960       ??_C@_1DA@FBGAEOIO@?$AA?$CB?$AAp?$AAe?$AAr?$AAs?$AAi?$AAs?$AAt?$AAe?$AAn?$AAt?$AA?$CI?$AA?$CJ?$AA?4?$AAI?$AAs?$AAE?$AAm?$AAp?$AAt?$AAy?$AA?$CI?$AA?$CJ?$AA?$AA@ 0000000180028960     disp.obj
 0002:00008990       ??_C@_1CO@JCKLEFMA@?$AA?$CB?$AAp?$AAe?$AAr?$AAs?$AAi?$AAs?$AAt?$AAe?$AAn?$AAt?$AA?$CI?$AA?$CJ?$AA?4?$AAI?$AAs?$AAW?$AAe?$AAa?$AAk?$AA?$CI?$AA?$CJ?$AA?$AA@ 0000000180028990     disp.obj
 0002:000089c0       ??_C@_1BE@GMLLOIPJ@?$AAr?$AAe?$AAf?$AAs?$AA_?$AA?5?$AA?$DO?$AA?5?$AA0?$AA?$AA@ 00000001800289c0     disp.obj
 0002:000089d8       ??_C@_1CC@GBFLAAPF@?$AAw?$AAr?$AAa?$AAp?$AA?9?$AA?$DO?$AAr?$AAe?$AAf?$AAs?$AA_?$AA?5?$AA?$DN?$AA?$DN?$AA?5?$AA0?$AA?$AA@ 00000001800289d8     disp.obj
 0002:00008a00       ??_C@_08LACJGFNE@DispNull?$AA@ 0000000180028a00     disp.obj
 0002:00008a10       ??_C@_0M@NCBOKIAE@DispInvalid?$AA@ 0000000180028a10     disp.obj
 0002:00008a20       ??_C@_0BC@PALKPJEA@Invalid?5arguments?$AA@ 0000000180028a20     disp.obj
 0002:00008a38       ??_C@_1CA@EAAODECK@?$AAD?$AAi?$AAs?$AAp?$AAP?$AAr?$AAo?$AAp?$AAe?$AAr?$AAt?$AAy?$AAG?$AAe?$AAt?$AA?$AA@ 0000000180028a38     disp.obj
 0002:00008a58       ??_C@_1CC@OALLEHEL@?$AAD?$AAi?$AAs?$AAp?$AAP?$AAr?$AAo?$AAp?$AAe?$AAr?$AAt?$AAy?$AAF?$AAi?$AAn?$AAd?$AA?$AA@ 0000000180028a58     disp.obj
 0002:00008a80       ??_C@_1CA@DFKGAOID@?$AAD?$AAi?$AAs?$AAp?$AAP?$AAr?$AAo?$AAp?$AAe?$AAr?$AAt?$AAy?$AAP?$AAu?$AAt?$AA?$AA@ 0000000180028a80     disp.obj
 0002:00008aa0       ??_C@_13EFKPHINO@?$AA?$EA?$AA?$AA@ 0000000180028aa0     disp.obj
 0002:00008aa8       ??_C@_1BG@FINCBBMF@?$AAD?$AAi?$AAs?$AAp?$AAI?$AAn?$AAv?$AAo?$AAk?$AAe?$AA?$AA@ 0000000180028aa8     disp.obj
 0002:00008ac0       ??_C@_1BK@NFPPOKPA@?$AAD?$AAi?$AAs?$AAp?$AAT?$AAo?$AAS?$AAt?$AAr?$AAi?$AAn?$AAg?$AA?$AA@ 0000000180028ac0     disp.obj
 0002:00008adc       ??_C@_13JOFGPIOO@?$AA?4?$AA?$AA@ 0000000180028adc     disp.obj
 0002:00008ae0       ??_C@_04MEMAJGDJ@name?$AA@ 0000000180028ae0     disp.obj
 0002:00008ae8       ??_C@_06KBELHCGK@dispid?$AA@ 0000000180028ae8     disp.obj
 0002:00008af0       ??_C@_07LIJPPEDO@invkind?$AA@ 0000000180028af0     disp.obj
 0002:00008af8       ??_C@_06CCDGCHC@argcnt?$AA@ 0000000180028af8     disp.obj
 0002:00008b00       ??_C@_08CEDEDIFN@Dispatch?$AA@ 0000000180028b00     disp.obj
 0002:00008b10       ??_C@_08JCDFGHAO@toString?$AA@ 0000000180028b10     disp.obj
 0002:00008b20       ??_C@_07NHLOFOKD@valueOf?$AA@ 0000000180028b20     disp.obj
 0002:00008b28       ??_C@_04FGGHBBAA@__id?$AA@ 0000000180028b28     disp.obj
 0002:00008b30       ??_C@_07IBCPJFGB@__value?$AA@ 0000000180028b30     disp.obj
 0002:00008b38       ??_C@_06BMMIFNFG@__type?$AA@ 0000000180028b38     disp.obj
 0002:00008b40       ??_C@_06ELFECKBG@Object?$AA@ 0000000180028b40     disp.obj
 0002:00008b48       ??_C@_07EOGFDLKI@release?$AA@ 0000000180028b48     disp.obj
 0002:00008b50       ??_C@_05CJEJCJOE@async?$AA@ 0000000180028b50     disp.obj
 0002:00008b58       ??_C@_04GPMDFGEJ@type?$AA@ 0000000180028b58     disp.obj
 0002:00008b60       ??_C@_08IFCMKJCD@activate?$AA@ 0000000180028b60     disp.obj
 0002:00008b70       ??_C@_0BI@HLGFPKAO@FunctionTemplateIsEmpty?$AA@ 0000000180028b70     disp.obj
 0002:00008b88       ??_C@_13GMDMCADD@?$AA?$CD?$AA?$AA@ 0000000180028b88     disp.obj
 0002:00008b90       ??_C@_1BO@BPBMILND@?$AAC?$AAr?$AAe?$AAa?$AAt?$AAe?$AAI?$AAn?$AAs?$AAt?$AAa?$AAn?$AAc?$AAe?$AA?$AA@ 0000000180028b90     disp.obj
 0002:00008bb0       ??_C@_11LOCGONAA@?$AA?$AA@ 0000000180028bb0     disp.obj
 0002:00008bb8       ??_C@_1BA@BGJABHC@?$AA_?$AA_?$AAv?$AAa?$AAl?$AAu?$AAe?$AA?$AA@ 0000000180028bb8     disp.obj
 0002:00008bc8       ??_C@_1BI@JJDHDOHI@?$AAD?$AAi?$AAs?$AAp?$AAV?$AAa?$AAl?$AAu?$AAe?$AAO?$AAf?$AA?$AA@ 0000000180028bc8     disp.obj
 0002:00008be0       ??_C@_19EDNDJFOA@?$AA_?$AA_?$AAi?$AAd?$AA?$AA@ 0000000180028be0     disp.obj
 0002:00008bf0       ??_C@_1O@FKFDJJIH@?$AA_?$AA_?$AAt?$AAy?$AAp?$AAe?$AA?$AA@ 0000000180028bf0     disp.obj
 0002:00008c00       ??_C@_1BE@CNKEJCNL@?$AA_?$AA_?$AAp?$AAr?$AAo?$AAt?$AAo?$AA_?$AA_?$AA?$AA@ 0000000180028c00     disp.obj
 0002:00008c18       ??_C@_1BA@MLBBNBOE@?$AAv?$AAa?$AAl?$AAu?$AAe?$AAO?$AAf?$AA?$AA@ 0000000180028c18     disp.obj
 0002:00008c28       ??_C@_1BC@DILOICCJ@?$AAt?$AAo?$AAS?$AAt?$AAr?$AAi?$AAn?$AAg?$AA?$AA@ 0000000180028c28     disp.obj
 0002:00008c40       ??_7ObjectWrap@node@@6B@   0000000180028c40     disp.obj
 0002:00008c58       ??_7DispObject@@6B@        0000000180028c58     disp.obj
 0002:00008c70       ??_C@_08HCOMDCCD@iojs?4exe?$AA@ 0000000180028c70     win_delay_load_hook.obj
 0002:00008c80       ??_C@_08JDDNMFDB@node?4exe?$AA@ 0000000180028c80     win_delay_load_hook.obj
 0002:00008ce8       ??_R4exception@std@@6B@    0000000180028ce8     libcpmt:xthrow.obj
 0002:00008d10       ??_R3exception@std@@8      0000000180028d10     libcpmt:xthrow.obj
 0002:00008d28       ??_R2exception@std@@8      0000000180028d28     libcpmt:xthrow.obj
 0002:00008d38       ??_R1A@?0A@EA@exception@std@@8 0000000180028d38     libcpmt:xthrow.obj
 0002:00008d60       ??_R4bad_alloc@std@@6B@    0000000180028d60     libcpmt:xthrow.obj
 0002:00008d88       ??_R3bad_alloc@std@@8      0000000180028d88     libcpmt:xthrow.obj
 0002:00008da0       ??_R2bad_alloc@std@@8      0000000180028da0     libcpmt:xthrow.obj
 0002:00008db8       ??_R1A@?0A@EA@bad_alloc@std@@8 0000000180028db8     libcpmt:xthrow.obj
 0002:00008de0       ??_R4logic_error@std@@6B@  0000000180028de0     libcpmt:xthrow.obj
 0002:00008e08       ??_R3logic_error@std@@8    0000000180028e08     libcpmt:xthrow.obj
 0002:00008e20       ??_R2logic_error@std@@8    0000000180028e20     libcpmt:xthrow.obj
 0002:00008e38       ??_R1A@?0A@EA@logic_error@std@@8 0000000180028e38     libcpmt:xthrow.obj
 0002:00008e60       ??_R4length_error@std@@6B@ 0000000180028e60     libcpmt:xthrow.obj
 0002:00008e88       ??_R3length_error@std@@8   0000000180028e88     libcpmt:xthrow.obj
 0002:00008ea0       ??_R2length_error@std@@8   0000000180028ea0     libcpmt:xthrow.obj
 0002:00008ec0       ??_R1A@?0A@EA@length_error@std@@8 0000000180028ec0     libcpmt:xthrow.obj
 0002:00008ee8       ??_R4out_of_range@std@@6B@ 0000000180028ee8     libcpmt:xthrow.obj
 0002:00008f10       ??_R3out_of_range@std@@8   0000000180028f10     libcpmt:xthrow.obj
 0002:00008f28       ??_R2out_of_range@std@@8   0000000180028f28     libcpmt:xthrow.obj
 0002:00008f48       ??_R1A@?0A@EA@out_of_range@std@@8 0000000180028f48     libcpmt:xthrow.obj
 0002:00008f70       ??_R4type_info@@6B@        0000000180028f70     LIBCMT:std_type_info_static.obj
 0002:00008f98       ??_R3type_info@@8          0000000180028f98     LIBCMT:std_type_info_static.obj
 0002:00008fb0       ??_R2type_info@@8          0000000180028fb0     LIBCMT:std_type_info_static.obj
 0002:00008fc0       ??_R1A@?0A@EA@type_info@@8 0000000180028fc0     LIBCMT:std_type_info_static.obj
 0002:00008fe8       ??_R4bad_array_new_length@std@@6B@ 0000000180028fe8     LIBCMT:throw_bad_alloc.obj
 0002:00009010       ??_R3bad_array_new_length@std@@8 0000000180029010     LIBCMT:throw_bad_alloc.obj
 0002:00009028       ??_R2bad_array_new_length@std@@8 0000000180029028     LIBCMT:throw_bad_alloc.obj
 0002:00009048       ??_R1A@?0A@EA@bad_array_new_length@std@@8 0000000180029048     LIBCMT:throw_bad_alloc.obj
 0002:00009470       __rtc_iaa                  0000000180029470     LIBCMT:_initsect_.obj
 0002:00009478       __rtc_izz                  0000000180029478     LIBCMT:_initsect_.obj
 0002:00009480       __rtc_taa                  0000000180029480     LIBCMT:_initsect_.obj
 0002:00009488       __rtc_tzz                  0000000180029488     LIBCMT:_initsect_.obj
 0002:0000afc8       _TI2?AVbad_alloc@std@@     000000018002afc8     libcpmt:xthrow.obj
 0002:0000afe8       _CTA2?AVbad_alloc@std@@    000000018002afe8     libcpmt:xthrow.obj
 0002:0000b000       _CT??_R0?AVbad_alloc@std@@@8??0bad_alloc@std@@QEAA@AEBV01@@Z24 000000018002b000     libcpmt:xthrow.obj
 0002:0000b028       _CT??_R0?AVexception@std@@@8??0exception@std@@QEAA@AEBV01@@Z24 000000018002b028     libcpmt:xthrow.obj
 0002:0000b050       _CT??_R0?AVlogic_error@std@@@8??0logic_error@std@@QEAA@AEBV01@@Z24 000000018002b050     libcpmt:xthrow.obj
 0002:0000b078       _TI3?AVlength_error@std@@  000000018002b078     libcpmt:xthrow.obj
 0002:0000b098       _CTA3?AVlength_error@std@@ 000000018002b098     libcpmt:xthrow.obj
 0002:0000b0b8       _CT??_R0?AVlength_error@std@@@8??0length_error@std@@QEAA@AEBV01@@Z24 000000018002b0b8     libcpmt:xthrow.obj
 0002:0000b0e0       _TI3?AVout_of_range@std@@  000000018002b0e0     libcpmt:xthrow.obj
 0002:0000b100       _CTA3?AVout_of_range@std@@ 000000018002b100     libcpmt:xthrow.obj
 0002:0000b120       _CT??_R0?AVout_of_range@std@@@8??0out_of_range@std@@QEAA@AEBV01@@Z24 000000018002b120     libcpmt:xthrow.obj
 0002:0000b148       _TI3?AVbad_array_new_length@std@@ 000000018002b148     LIBCMT:throw_bad_alloc.obj
 0002:0000b168       _CTA3?AVbad_array_new_length@std@@ 000000018002b168     LIBCMT:throw_bad_alloc.obj
 0002:0000b188       _CT??_R0?AVbad_array_new_length@std@@@8??0bad_array_new_length@std@@QEAA@AEBV01@@Z24 000000018002b188     LIBCMT:throw_bad_alloc.obj
 0002:0000b1ac       __DELAY_IMPORT_DESCRIPTOR_node_exe 000000018002b1ac     node:node.exe
 0002:0000b1cc       __NULL_DELAY_IMPORT_DESCRIPTOR 000000018002b1cc     node:node.exe
 0002:0000b3d0       \177node_NULL_THUNK_DATA_DLN 000000018002b3d0     node:node.exe
 0002:0000c510       \177node_NULL_THUNK_DATA_DLB 000000018002c510     node:node.exe
 0002:0000c74c       __IMPORT_DESCRIPTOR_KERNEL32 000000018002c74c     kernel32:KERNEL32.dll
 0002:0000c760       __IMPORT_DESCRIPTOR_ole32  000000018002c760     ole32:ole32.dll
 0002:0000c774       __IMPORT_DESCRIPTOR_OLEAUT32 000000018002c774     oleaut32:OLEAUT32.dll
 0002:0000c788       __NULL_IMPORT_DESCRIPTOR   000000018002c788     kernel32:KERNEL32.dll
 0003:00000000       __scrt_native_dllmain_reason 000000018002e000     LIBCMT:utility.obj
 0003:00000008       __security_cookie          000000018002e008     LIBCMT:gs_cookie.obj
 0003:00000010       __security_cookie_complement 000000018002e010     LIBCMT:gs_cookie.obj
 0003:00000018       __isa_available            000000018002e018     LIBCMT:_cpu_disp_.obj
 0003:0000001c       __isa_enabled              000000018002e01c     LIBCMT:_cpu_disp_.obj
 0003:00000020       __memcpy_nt_iters          000000018002e020     LIBCMT:_cpu_disp_.obj
 0003:00000040       __abort_behavior           000000018002e040     libucrt:abort.obj
 0003:00000050       _iob                       000000018002e050     libucrt:_file.obj
 0003:00000160       __acrt_initial_locale_data 000000018002e160     libucrt:nlsdata.obj
 0003:000002b8       __acrt_initial_locale_pointers 000000018002e2b8     libucrt:nlsdata.obj
 0003:000002c8       __acrt_wide_c_locale_string 000000018002e2c8     libucrt:nlsdata.obj
 0003:000002d0       __badioinfo                000000018002e2d0     libucrt:ioinit.obj
 0003:00000310       __acrt_initial_multibyte_data 000000018002e310     libucrt:mbctype.obj
 0003:00000538       __acrt_current_multibyte_data 000000018002e538     libucrt:mbctype.obj
 0003:00000640       _mbctype                   000000018002e640     libucrt:mbctype.obj
 0003:00000750       _mbcasemap                 000000018002e750     libucrt:mbctype.obj
 0003:00000850       _pwctype                   000000018002e850     libucrt:ctype.obj
 0003:00000858       __globallocalestatus       000000018002e858     libucrt:glstatus.obj
 0003:00000860       __acrt_lconv_c             000000018002e860     libucrt:localeconv.obj
 0003:000008f8       __acrt_lconv_static_decimal 000000018002e8f8     libucrt:localeconv.obj
 0003:000008fc       __acrt_lconv_static_W_decimal 000000018002e8fc     libucrt:localeconv.obj
 0003:00000910       __dcrt_lowio_console_output_handle 000000018002e910     libucrt:initcon.obj
 0003:00000930       _fltused                   000000018002e930     LIBCMT:fltused.obj
 0003:00000980       ??_R0?AVbad_alloc@std@@@8  000000018002e980     libcpmt:xthrow.obj
 0003:000009a8       ??_R0?AVexception@std@@@8  000000018002e9a8     libcpmt:xthrow.obj
 0003:000009d0       ??_R0?AVlogic_error@std@@@8 000000018002e9d0     libcpmt:xthrow.obj
 0003:000009f8       ??_R0?AVlength_error@std@@@8 000000018002e9f8     libcpmt:xthrow.obj
 0003:00000a20       ??_R0?AVout_of_range@std@@@8 000000018002ea20     libcpmt:xthrow.obj
 0003:00000a48       ??_R0?AVtype_info@@@8      000000018002ea48     LIBCMT:std_type_info_static.obj
 0003:00000a68       ??_R0?AVbad_array_new_length@std@@@8 000000018002ea68     LIBCMT:throw_bad_alloc.obj
 0003:00000a98       __imp_node_module_register 000000018002ea98     node:node.exe
 0003:00000aa0       __imp_?New@Integer@v8@@SA?AV?$Local@VInteger@v8@@@2@PEAVIsolate@2@H@Z 000000018002eaa0     node:node.exe
 0003:00000aa8       __imp_?GetCurrent@Isolate@v8@@SAPEAV12@XZ 000000018002eaa8     node:node.exe
 0003:00000ab0       __imp_?CreateHandle@HandleScope@v8@@KAPEAPEAVObject@internal@2@PEAVIsolate@42@PEAV342@@Z 000000018002eab0     node:node.exe
 0003:00000ab8       __imp_?New@Array@v8@@SA?AV?$Local@VArray@v8@@@2@PEAVIsolate@2@H@Z 000000018002eab8     node:node.exe
 0003:00000ac0       __imp_?New@Date@v8@@SA?AV?$Local@VValue@v8@@@2@PEAVIsolate@2@N@Z 000000018002eac0     node:node.exe
 0003:00000ac8       __imp_?HasInstance@FunctionTemplate@v8@@QEAA_NV?$Local@VValue@v8@@@2@@Z 000000018002eac8     node:node.exe
 0003:00000ad0       __imp_?DisposeGlobal@V8@v8@@CAXPEAPEAVObject@internal@2@@Z 000000018002ead0     node:node.exe
 0003:00000ad8       __imp_?GlobalizeReference@V8@v8@@CAPEAPEAVObject@internal@2@PEAVIsolate@42@PEAPEAV342@@Z 000000018002ead8     node:node.exe
 0003:00000ae0       __imp_?Int32Value@Value@v8@@QEBAHXZ 000000018002eae0     node:node.exe
 0003:00000ae8       __imp_?Uint32Value@Value@v8@@QEBAIXZ 000000018002eae8     node:node.exe
 0003:00000af0       __imp_?NumberValue@Value@v8@@QEBANXZ 000000018002eaf0     node:node.exe
 0003:00000af8       __imp_?BooleanValue@Value@v8@@QEBA_NXZ 000000018002eaf8     node:node.exe
 0003:00000b00       __imp_?IsDate@Value@v8@@QEBA_NXZ 000000018002eb00     node:node.exe
 0003:00000b08       __imp_?IsUint32@Value@v8@@QEBA_NXZ 000000018002eb08     node:node.exe
 0003:00000b10       __imp_?IsInt32@Value@v8@@QEBA_NXZ 000000018002eb10     node:node.exe
 0003:00000b18       __imp_?IsNumber@Value@v8@@QEBA_NXZ 000000018002eb18     node:node.exe
 0003:00000b20       __imp_?IsBoolean@Value@v8@@QEBA_NXZ 000000018002eb20     node:node.exe
 0003:00000b28       __imp_?IsObject@Value@v8@@QEBA_NXZ 000000018002eb28     node:node.exe
 0003:00000b30       __imp_?IsFunction@Value@v8@@QEBA_NXZ 000000018002eb30     node:node.exe
 0003:00000b38       __imp_??1Value@String@v8@@QEAA@XZ 000000018002eb38     node:node.exe
 0003:00000b40       __imp_??0Value@String@v8@@QEAA@V?$Local@VValue@v8@@@2@@Z 000000018002eb40     node:node.exe
 0003:00000b48       __imp_?NewFromTwoByte@String@v8@@SA?AV?$Local@VString@v8@@@2@PEAVIsolate@2@PEBGW4NewStringType@12@H@Z 000000018002eb48     node:node.exe
 0003:00000b50       __imp_?NewFromUtf8@String@v8@@SA?AV?$Local@VString@v8@@@2@PEAVIsolate@2@PEBDW4NewStringType@12@H@Z 000000018002eb50     node:node.exe
 0003:00000b58       __imp_?New@Number@v8@@SA?AV?$Local@VNumber@v8@@@2@PEAVIsolate@2@N@Z 000000018002eb58     node:node.exe
 0003:00000b60       __imp_?SlowGetAlignedPointerFromInternalField@Object@v8@@AEAAPEAXH@Z 000000018002eb60     node:node.exe
 0003:00000b68       __imp_?InternalFieldCount@Object@v8@@QEAAHXZ 000000018002eb68     node:node.exe
 0003:00000b70       __imp_?Get@Object@v8@@QEAA?AV?$Local@VValue@v8@@@2@V32@@Z 000000018002eb70     node:node.exe
 0003:00000b78       __imp_?Get@Object@v8@@QEAA?AV?$Local@VValue@v8@@@2@I@Z 000000018002eb78     node:node.exe
 0003:00000b80       __imp_?Set@Object@v8@@QEAA_NV?$Local@VValue@v8@@@2@0@Z 000000018002eb80     node:node.exe
 0003:00000b88       __imp_?Set@Object@v8@@QEAA_NIV?$Local@VValue@v8@@@2@@Z 000000018002eb88     node:node.exe
 0003:00000b90       __imp_?Call@Function@v8@@QEAA?AV?$Local@VValue@v8@@@2@V32@HQEAV32@@Z 000000018002eb90     node:node.exe
 0003:00000b98       __imp_?ToObject@Value@v8@@QEBA?AV?$Local@VObject@v8@@@2@XZ 000000018002eb98     node:node.exe
 0003:00000ba0       __imp_?New@Signature@v8@@SA?AV?$Local@VSignature@v8@@@2@PEAVIsolate@2@V?$Local@VFunctionTemplate@v8@@@2@@Z 000000018002eba0     node:node.exe
 0003:00000ba8       __imp_?ThrowException@Isolate@v8@@QEAA?AV?$Local@VValue@v8@@@2@V32@@Z 000000018002eba8     node:node.exe
 0003:00000bb0       __imp_?GetCurrentContext@Isolate@v8@@QEAA?AV?$Local@VContext@v8@@@2@XZ 000000018002ebb0     node:node.exe
 0003:00000bb8       __imp_??1HandleScope@v8@@QEAA@XZ 000000018002ebb8     node:node.exe
 0003:00000bc0       __imp_??0HandleScope@v8@@QEAA@PEAVIsolate@1@@Z 000000018002ebc0     node:node.exe
 0003:00000bc8       __imp_?SetNativeDataProperty@Template@v8@@QEAAXV?$Local@VString@v8@@@2@P6AX0AEBV?$PropertyCallbackInfo@VValue@v8@@@2@@ZP6AX0V?$Local@VValue@v8@@@2@AEBV?$PropertyCallbackInfo@X@2@@Z3W4PropertyAttribute@2@V?$Local@VAccessorSignature@v8@@@2@W4AccessControl@2@@Z 000000018002ebc8     node:node.exe
 0003:00000bd0       __imp_?Set@Template@v8@@QEAAXV?$Local@VName@v8@@@2@V?$Local@VData@v8@@@2@W4PropertyAttribute@2@@Z 000000018002ebd0     node:node.exe
 0003:00000bd8       __imp_?Error@Exception@v8@@SA?AV?$Local@VValue@v8@@@2@V?$Local@VString@v8@@@2@@Z 000000018002ebd8     node:node.exe
 0003:00000be0       __imp_?TypeError@Exception@v8@@SA?AV?$Local@VValue@v8@@@2@V?$Local@VString@v8@@@2@@Z 000000018002ebe0     node:node.exe
 0003:00000be8       __imp_?SetClassName@FunctionTemplate@v8@@QEAAXV?$Local@VString@v8@@@2@@Z 000000018002ebe8     node:node.exe
 0003:00000bf0       __imp_?PrototypeTemplate@FunctionTemplate@v8@@QEAA?AV?$Local@VObjectTemplate@v8@@@2@XZ 000000018002ebf0     node:node.exe
 0003:00000bf8       __imp_?InstanceTemplate@FunctionTemplate@v8@@QEAA?AV?$Local@VObjectTemplate@v8@@@2@XZ 000000018002ebf8     node:node.exe
 0003:00000c00       __imp_?GetFunction@FunctionTemplate@v8@@QEAA?AV?$Local@VFunction@v8@@@2@XZ 000000018002ec00     node:node.exe
 0003:00000c08       __imp_?New@FunctionTemplate@v8@@SA?AV?$Local@VFunctionTemplate@v8@@@2@PEAVIsolate@2@P6AXAEBV?$FunctionCallbackInfo@VValue@v8@@@2@@ZV?$Local@VValue@v8@@@2@V?$Local@VSignature@v8@@@2@HW4ConstructorBehavior@2@@Z 000000018002ec08     node:node.exe
 0003:00000c10       __imp_?ToLocalEmpty@V8@v8@@CAXXZ 000000018002ec10     node:node.exe
 0003:00000c18       __imp_?ClearWeak@V8@v8@@CAPEAXPEAPEAVObject@internal@2@@Z 000000018002ec18     node:node.exe
 0003:00000c20       __imp_?MakeWeak@V8@v8@@CAXPEAPEAVObject@internal@2@PEAXP6AXAEBV?$WeakCallbackInfo@X@2@@ZW4WeakCallbackType@2@@Z 000000018002ec20     node:node.exe
 0003:00000c28       __imp_?New@Object@v8@@SA?AV?$Local@VObject@v8@@@2@PEAVIsolate@2@@Z 000000018002ec28     node:node.exe
 0003:00000c30       __imp_?GetIsolate@Object@v8@@QEAAPEAVIsolate@2@XZ 000000018002ec30     node:node.exe
 0003:00000c38       __imp_?SetAlignedPointerInInternalField@Object@v8@@QEAAXHPEAX@Z 000000018002ec38     node:node.exe
 0003:00000c40       __imp_?NewInstance@Function@v8@@QEBA?AV?$MaybeLocal@VObject@v8@@@2@V?$Local@VContext@v8@@@2@HQEAV?$Local@VValue@v8@@@2@@Z 000000018002ec40     node:node.exe
 0003:00000c48       __imp_?SetInternalFieldCount@ObjectTemplate@v8@@QEAAXH@Z 000000018002ec48     node:node.exe
 0003:00000c50       __imp_?SetCallAsFunctionHandler@ObjectTemplate@v8@@QEAAXP6AXAEBV?$FunctionCallbackInfo@VValue@v8@@@2@@ZV?$Local@VValue@v8@@@2@@Z 000000018002ec50     node:node.exe
 0003:00000c58       __imp_?SetNamedPropertyHandler@ObjectTemplate@v8@@QEAAXP6AXV?$Local@VString@v8@@@2@AEBV?$PropertyCallbackInfo@VValue@v8@@@2@@ZP6AX0V?$Local@VValue@v8@@@2@1@ZP6AX0AEBV?$PropertyCallbackInfo@VInteger@v8@@@2@@ZP6AX0AEBV?$PropertyCallbackInfo@VBoolean@v8@@@2@@ZP6AXAEBV?$PropertyCallbackInfo@VArray@v8@@@2@@Z3@Z 000000018002ec58     node:node.exe
 0003:00000c60       __imp_?NewInstance@ObjectTemplate@v8@@QEAA?AV?$Local@VObject@v8@@@2@XZ 000000018002ec60     node:node.exe
 0003:00000c68       __imp_?ToString@Value@v8@@QEBA?AV?$Local@VString@v8@@@2@XZ 000000018002ec68     node:node.exe
 0003:00000c70       __imp_?SetIndexedPropertyHandler@ObjectTemplate@v8@@QEAAXP6AXIAEBV?$PropertyCallbackInfo@VValue@v8@@@2@@ZP6AXIV?$Local@VValue@v8@@@2@0@ZP6AXIAEBV?$PropertyCallbackInfo@VInteger@v8@@@2@@ZP6AXIAEBV?$PropertyCallbackInfo@VBoolean@v8@@@2@@ZP6AXAEBV?$PropertyCallbackInfo@VArray@v8@@@2@@Z2@Z 000000018002ec70     node:node.exe
 0003:00000c78       \177node_NULL_THUNK_DATA_DLA 000000018002ec78     node:node.exe
 0003:00000c80       __hmod__node_exe           000000018002ec80     node:node.exe
 0003:00000c88       ?_Raise_handler@std@@3P6AXAEBVexception@stdext@@@ZEA 000000018002ec88     libcpmt:raisehan.obj
 0003:00000c90       __scrt_current_native_startup_state 000000018002ec90     LIBCMT:utility.obj
 0003:00000c98       __scrt_native_startup_lock 000000018002ec98     LIBCMT:utility.obj
 0003:00001250       __favor                    000000018002f250     LIBCMT:_cpu_disp_.obj
 0003:00001254       __scrt_debugger_hook_flag  000000018002f254     LIBCMT:utility_desktop.obj
 0003:00001260       ?__type_info_root_node@@3U__type_info_node@@A 000000018002f260     LIBCMT:tncleanup.obj
 0003:00001270       ?_OptionsStorage@?1??__local_stdio_scanf_options@@9@4_KA 000000018002f270     LIBCMT:default_local_stdio_options.obj
 0003:00001278       __pPurecall                000000018002f278     libvcruntime:purevirt_data.obj
 0003:00001398       ?pArgList@UnDecorator@@0PEAVReplicator@@EA 000000018002f398     libvcruntime:undname.obj
 0003:000013a0       ?pZNameList@UnDecorator@@0PEAVReplicator@@EA 000000018002f3a0     libvcruntime:undname.obj
 0003:000013a8       ?pTemplateArgList@UnDecorator@@0PEAVReplicator@@EA 000000018002f3a8     libvcruntime:undname.obj
 0003:000013b0       ?gName@UnDecorator@@0PEBDEB 000000018002f3b0     libvcruntime:undname.obj
 0003:000013b8       ?name@UnDecorator@@0PEBDEB 000000018002f3b8     libvcruntime:undname.obj
 0003:000013c0       ?outputString@UnDecorator@@0PEADEA 000000018002f3c0     libvcruntime:undname.obj
 0003:000013c8       ?maxStringLength@UnDecorator@@0HA 000000018002f3c8     libvcruntime:undname.obj
 0003:000013cc       ?disableFlags@UnDecorator@@0KA 000000018002f3cc     libvcruntime:undname.obj
 0003:000013d0       ?fExplicitTemplateParams@UnDecorator@@0_NA 000000018002f3d0     libvcruntime:undname.obj
 0003:000013d1       ?fGetTemplateArgumentList@UnDecorator@@0_NA 000000018002f3d1     libvcruntime:undname.obj
 0003:000013d8       ?m_pGetParameter@UnDecorator@@0P6APEADJ@ZEA 000000018002f3d8     libvcruntime:undname.obj
 0003:00001538       _environ_table             000000018002f538     libucrt:environment_initialization.obj
 0003:00001540       _wenviron_table            000000018002f540     libucrt:environment_initialization.obj
 0003:00001548       __dcrt_initial_wide_environment 000000018002f548     libucrt:environment_initialization.obj
 0003:00001550       __dcrt_initial_narrow_environment 000000018002f550     libucrt:environment_initialization.obj
 0003:00001558       __acrt_atexit_table        000000018002f558     libucrt:onexit.obj
 0003:00001570       __acrt_at_quick_exit_table 000000018002f570     libucrt:onexit.obj
 0003:00001588       _nstream                   000000018002f588     libucrt:_file.obj
 0003:00001590       __piob                     000000018002f590     libucrt:_file.obj
 0003:00001598       _cflush                    000000018002f598     libucrt:_file.obj
 0003:000015a8       __acrt_stdout_buffer       000000018002f5a8     libucrt:_sftbuf.obj
 0003:000015b0       __acrt_stderr_buffer       000000018002f5b0     libucrt:_sftbuf.obj
 0003:000015b8       __acrt_locale_changed_data 000000018002f5b8     libucrt:wsetlocale.obj
 0003:000015c0       __acrt_current_locale_data 000000018002f5c0     libucrt:nlsdata.obj
 0003:000015d0       __pioinfo                  000000018002f5d0     libucrt:ioinit.obj
 0003:000019d0       _nhandle                   000000018002f9d0     libucrt:ioinit.obj
 0003:00001db4       __mbcodepage               000000018002fdb4     libucrt:mbctype.obj
 0003:00001db8       __ismbcodepage             000000018002fdb8     libucrt:mbctype.obj
 0003:00001dc0       __mbulinfo                 000000018002fdc0     libucrt:mbctype.obj
 0003:00001dd0       __mblocalename             000000018002fdd0     libucrt:mbctype.obj
 0003:00001ddc       __argc                     000000018002fddc     libucrt:argv_data.obj
 0003:00001de0       __argv                     000000018002fde0     libucrt:argv_data.obj
 0003:00001de8       __wargv                    000000018002fde8     libucrt:argv_data.obj
 0003:00001df0       _acmdln                    000000018002fdf0     libucrt:argv_data.obj
 0003:00001df8       _wcmdln                    000000018002fdf8     libucrt:argv_data.obj
 0003:00001e00       _pgmptr                    000000018002fe00     libucrt:argv_data.obj
 0003:00001e08       __acrt_heap                000000018002fe08     libucrt:heap_handle.obj
 0003:00001e1c       __acrt_lconv_static_null   000000018002fe1c     libucrt:localeconv.obj
 0003:00001e20       __acrt_lconv_static_W_null 000000018002fe20     libucrt:localeconv.obj
 0003:00001e24       __fma3_is_available        000000018002fe24     libucrt:fma3_available.obj
 0003:00001e28       __use_fma3_lib             000000018002fe28     libucrt:fma3_available.obj
 0003:00001e30       ?DloadKernel32@@3PEAUHINSTANCE__@@EA 000000018002fe30     DelayImp:delayhlp.obj
 0003:00001e38       ?DloadAcquireSRWLockExclusive@@3P6AXPEA_K@ZEA 000000018002fe38     DelayImp:delayhlp.obj
 0003:00001e40       ?DloadReleaseSRWLockExclusive@@3P6AXPEA_K@ZEA 000000018002fe40     DelayImp:delayhlp.obj
 0003:00001e48       ?DloadSrwLock@@3_KA        000000018002fe48     DelayImp:delayhlp.obj
 0003:00001e50       ?DloadSectionLockCount@@3KA 000000018002fe50     DelayImp:delayhlp.obj
 0003:00001e54       ?DloadSectionOldProtection@@3KA 000000018002fe54     DelayImp:delayhlp.obj
 0003:00001e58       ?DloadSectionCommitPermanent@@3KA 000000018002fe58     DelayImp:delayhlp.obj
 0003:00001e60       ?_OptionsStorage@?1??__local_stdio_printf_options@@9@4_KA 000000018002fe60     utils.obj
 0003:00001e68       ?clazz_template@DispObject@@2V?$Persistent@VFunctionTemplate@v8@@V?$NonCopyablePersistentTraits@VFunctionTemplate@v8@@@2@@v8@@A 000000018002fe68     disp.obj
 0003:00001e70       ?inst_template@DispObject@@2V?$Persistent@VObjectTemplate@v8@@V?$NonCopyablePersistentTraits@VObjectTemplate@v8@@@2@@v8@@A 000000018002fe70     disp.obj
 0003:00001e78       __dyn_tls_init_callback    000000018002fe78     <common>
 0003:00001e80       __scrt_ucrt_dll_is_in_use  000000018002fe80     <common>
 0003:00001e88       _pDestructExceptionObject  000000018002fe88     <common>

 entry point at        0001:0000ae18

 Static symbols

 0000:fffcb000       .debug$S                   0000000180000000     kernel32:KERNEL32.dll
 0000:fffcb000       .debug$S                   0000000180000000     node_activex.exp
 0000:fffcb000       .debug$S                   0000000180000000     kernel32:KERNEL32.dll
 0000:fffcb000       .debug$S                   0000000180000000     kernel32:KERNEL32.dll
 0000:fffcb000       .debug$S                   0000000180000000     kernel32:KERNEL32.dll
 0000:fffcb000       .debug$S                   0000000180000000     kernel32:KERNEL32.dll
 0000:fffcb000       .debug$S                   0000000180000000     kernel32:KERNEL32.dll
 0000:fffcb000       .debug$S                   0000000180000000     kernel32:KERNEL32.dll
 0000:fffcb000       .debug$S                   0000000180000000     kernel32:KERNEL32.dll
 0000:fffcb000       .debug$S                   0000000180000000     kernel32:KERNEL32.dll
 0000:fffcb000       .debug$S                   0000000180000000     kernel32:KERNEL32.dll
 0000:fffcb000       .debug$S                   0000000180000000     kernel32:KERNEL32.dll
 0000:fffcb000       .debug$S                   0000000180000000     kernel32:KERNEL32.dll
 0000:fffcb000       .debug$S                   0000000180000000     kernel32:KERNEL32.dll
 0000:fffcb000       .debug$S                   0000000180000000     kernel32:KERNEL32.dll
 0000:fffcb000       .debug$S                   0000000180000000     kernel32:KERNEL32.dll
 0000:fffcb000       .debug$S                   0000000180000000     kernel32:KERNEL32.dll
 0000:fffcb000       .debug$S                   0000000180000000     kernel32:KERNEL32.dll
 0000:fffcb000       .debug$S                   0000000180000000     kernel32:KERNEL32.dll
 0000:fffcb000       .debug$S                   0000000180000000     kernel32:KERNEL32.dll
 0000:fffcb000       .debug$S                   0000000180000000     kernel32:KERNEL32.dll
 0000:fffcb000       .debug$S                   0000000180000000     kernel32:KERNEL32.dll
 0000:fffcb000       .debug$S                   0000000180000000     kernel32:KERNEL32.dll
 0000:fffcb000       .debug$S                   0000000180000000     kernel32:KERNEL32.dll
 0000:fffcb000       .debug$S                   0000000180000000     kernel32:KERNEL32.dll
 0000:fffcb000       .debug$S                   0000000180000000     kernel32:KERNEL32.dll
 0000:fffcb000       .debug$S                   0000000180000000     kernel32:KERNEL32.dll
 0000:fffcb000       .debug$S                   0000000180000000     kernel32:KERNEL32.dll
 0000:fffcb000       .debug$S                   0000000180000000     kernel32:KERNEL32.dll
 0000:fffcb000       .debug$S                   0000000180000000     kernel32:KERNEL32.dll
 0000:fffcb000       .debug$S                   0000000180000000     kernel32:KERNEL32.dll
 0000:fffcb000       .debug$S                   0000000180000000     kernel32:KERNEL32.dll
 0000:fffcb000       .debug$S                   0000000180000000     kernel32:KERNEL32.dll
 0000:fffcb000       .debug$S                   0000000180000000     kernel32:KERNEL32.dll
 0000:fffcb000       .debug$S                   0000000180000000     kernel32:KERNEL32.dll
 0000:fffcb000       .debug$S                   0000000180000000     kernel32:KERNEL32.dll
 0000:fffcb000       .debug$S                   0000000180000000     kernel32:KERNEL32.dll
 0000:fffcb000       .debug$S                   0000000180000000     kernel32:KERNEL32.dll
 0000:fffcb000       .debug$S                   0000000180000000     kernel32:KERNEL32.dll
 0000:fffcb000       .debug$S                   0000000180000000     kernel32:KERNEL32.dll
 0000:fffcb000       .debug$S                   0000000180000000     kernel32:KERNEL32.dll
 0000:fffcb000       .debug$S                   0000000180000000     kernel32:KERNEL32.dll
 0000:fffcb000       .debug$S                   0000000180000000     kernel32:KERNEL32.dll
 0000:fffcb000       .debug$S                   0000000180000000     kernel32:KERNEL32.dll
 0000:fffcb000       .debug$S                   0000000180000000     kernel32:KERNEL32.dll
 0000:fffcb000       .debug$S                   0000000180000000     kernel32:KERNEL32.dll
 0000:fffcb000       .debug$S                   0000000180000000     kernel32:KERNEL32.dll
 0000:fffcb000       .debug$S                   0000000180000000     kernel32:KERNEL32.dll
 0000:fffcb000       .debug$S                   0000000180000000     kernel32:KERNEL32.dll
 0000:fffcb000       .debug$S                   0000000180000000     kernel32:KERNEL32.dll
 0000:fffcb000       .debug$S                   0000000180000000     kernel32:KERNEL32.dll
 0000:fffcb000       .debug$S                   0000000180000000     kernel32:KERNEL32.dll
 0000:fffcb000       .debug$S                   0000000180000000     kernel32:KERNEL32.dll
 0000:fffcb000       .debug$S                   0000000180000000     kernel32:KERNEL32.dll
 0000:fffcb000       .debug$S                   0000000180000000     kernel32:KERNEL32.dll
 0000:fffcb000       .debug$S                   0000000180000000     kernel32:KERNEL32.dll
 0000:fffcb000       .debug$S                   0000000180000000     kernel32:KERNEL32.dll
 0000:fffcb000       .debug$S                   0000000180000000     kernel32:KERNEL32.dll
 0000:fffcb000       .debug$S                   0000000180000000     kernel32:KERNEL32.dll
 0000:fffcb000       .debug$S                   0000000180000000     kernel32:KERNEL32.dll
 0000:fffcb000       .debug$S                   0000000180000000     kernel32:KERNEL32.dll
 0000:fffcb000       .debug$S                   0000000180000000     kernel32:KERNEL32.dll
 0000:fffcb000       .debug$S                   0000000180000000     kernel32:KERNEL32.dll
 0000:fffcb000       .debug$S                   0000000180000000     kernel32:KERNEL32.dll
 0000:fffcb000       .debug$S                   0000000180000000     kernel32:KERNEL32.dll
 0000:fffcb000       .debug$S                   0000000180000000     kernel32:KERNEL32.dll
 0000:fffcb000       .debug$S                   0000000180000000     kernel32:KERNEL32.dll
 0000:fffcb000       .debug$S                   0000000180000000     kernel32:KERNEL32.dll
 0000:fffcb000       .debug$S                   0000000180000000     kernel32:KERNEL32.dll
 0000:fffcb000       .debug$S                   0000000180000000     kernel32:KERNEL32.dll
 0000:fffcb000       .debug$S                   0000000180000000     kernel32:KERNEL32.dll
 0000:fffcb000       .debug$S                   0000000180000000     kernel32:KERNEL32.dll
 0000:fffcb000       .debug$S                   0000000180000000     kernel32:KERNEL32.dll
 0000:fffcb000       .debug$S                   0000000180000000     kernel32:KERNEL32.dll
 0000:fffcb000       .debug$S                   0000000180000000     kernel32:KERNEL32.dll
 0000:fffcb000       .debug$S                   0000000180000000     kernel32:KERNEL32.dll
 0000:fffcb000       .debug$S                   0000000180000000     kernel32:KERNEL32.dll
 0000:fffcb000       .debug$S                   0000000180000000     kernel32:KERNEL32.dll
 0000:fffcb000       .debug$S                   0000000180000000     kernel32:KERNEL32.dll
 0000:fffcb000       .debug$S                   0000000180000000     kernel32:KERNEL32.dll
 0000:fffcb000       .debug$S                   0000000180000000     kernel32:KERNEL32.dll
 0000:fffcb000       .debug$S                   0000000180000000     kernel32:KERNEL32.dll
 0000:fffcb000       .debug$S                   0000000180000000     kernel32:KERNEL32.dll
 0000:fffcb000       .debug$S                   0000000180000000     kernel32:KERNEL32.dll
 0000:fffcb000       .debug$S                   0000000180000000     kernel32:KERNEL32.dll
 0000:fffcb000       .debug$S                   0000000180000000     kernel32:KERNEL32.dll
 0000:fffcb000       .debug$S                   0000000180000000     kernel32:KERNEL32.dll
 0000:fffcb000       .debug$S                   0000000180000000     kernel32:KERNEL32.dll
 0000:fffcb000       .debug$S                   0000000180000000     kernel32:KERNEL32.dll
 0000:fffcb000       .debug$S                   0000000180000000     kernel32:KERNEL32.dll
 0000:fffcb000       .debug$S                   0000000180000000     kernel32:KERNEL32.dll
 0000:fffcb000       .debug$S                   0000000180000000     kernel32:KERNEL32.dll
 0000:fffcb000       .debug$S                   0000000180000000     kernel32:KERNEL32.dll
 0000:fffcb000       .debug$S                   0000000180000000     ole32:ole32.dll
 0000:fffcb000       .debug$S                   0000000180000000     ole32:ole32.dll
 0000:fffcb000       .debug$S                   0000000180000000     ole32:ole32.dll
 0000:fffcb000       .debug$S                   0000000180000000     node:node.exe
 0000:fffcb000       .debug$S                   0000000180000000     node:node.exe
 0000:fffcb000       .debug$S                   0000000180000000     node:node.exe
 0000:fffcb000       .debug$S                   0000000180000000     node:node.exe
 0000:fffcb000       .debug$S                   0000000180000000     node:node.exe
 0000:fffcb000       .debug$S                   0000000180000000     node:node.exe
 0000:fffcb000       .debug$S                   0000000180000000     node:node.exe
 0000:fffcb000       .debug$S                   0000000180000000     node:node.exe
 0000:fffcb000       .debug$S                   0000000180000000     node:node.exe
 0000:fffcb000       .debug$S                   0000000180000000     node:node.exe
 0000:fffcb000       .debug$S                   0000000180000000     node:node.exe
 0000:fffcb000       .debug$S                   0000000180000000     node:node.exe
 0000:fffcb000       .debug$S                   0000000180000000     node:node.exe
 0000:fffcb000       .debug$S                   0000000180000000     node:node.exe
 0000:fffcb000       .debug$S                   0000000180000000     ole32:ole32.dll
 0000:fffcb000       .debug$S                   0000000180000000     node:node.exe
 0000:fffcb000       .debug$S                   0000000180000000     node:node.exe
 0000:fffcb000       .debug$S                   0000000180000000     node:node.exe
 0000:fffcb000       .debug$S                   0000000180000000     node:node.exe
 0000:fffcb000       .debug$S                   0000000180000000     node:node.exe
 0000:fffcb000       .debug$S                   0000000180000000     node:node.exe
 0000:fffcb000       .debug$S                   0000000180000000     node:node.exe
 0000:fffcb000       .debug$S                   0000000180000000     oleaut32:OLEAUT32.dll
 0000:fffcb000       .debug$S                   0000000180000000     node:node.exe
 0000:fffcb000       .debug$S                   0000000180000000     node:node.exe
 0000:fffcb000       .debug$S                   0000000180000000     node:node.exe
 0000:fffcb000       .debug$S                   0000000180000000     node:node.exe
 0000:fffcb000       .debug$S                   0000000180000000     node:node.exe
 0000:fffcb000       .debug$S                   0000000180000000     node:node.exe
 0000:fffcb000       .debug$S                   0000000180000000     node:node.exe
 0000:fffcb000       .debug$S                   0000000180000000     node:node.exe
 0000:fffcb000       .debug$S                   0000000180000000     node:node.exe
 0000:fffcb000       .debug$S                   0000000180000000     node:node.exe
 0000:fffcb000       .debug$S                   0000000180000000     node:node.exe
 0000:fffcb000       .debug$S                   0000000180000000     node:node.exe
 0000:fffcb000       .debug$S                   0000000180000000     node:node.exe
 0000:fffcb000       .debug$S                   0000000180000000     node:node.exe
 0000:fffcb000       .debug$S                   0000000180000000     node:node.exe
 0000:fffcb000       .debug$S                   0000000180000000     node:node.exe
 0000:fffcb000       .debug$S                   0000000180000000     node:node.exe
 0000:fffcb000       .debug$S                   0000000180000000     oleaut32:OLEAUT32.dll
 0000:fffcb000       .debug$S                   0000000180000000     node:node.exe
 0000:fffcb000       .debug$S                   0000000180000000     oleaut32:OLEAUT32.dll
 0000:fffcb000       .debug$S                   0000000180000000     node:node.exe
 0000:fffcb000       .debug$S                   0000000180000000     oleaut32:OLEAUT32.dll
 0000:fffcb000       .debug$S                   0000000180000000     node:node.exe
 0000:fffcb000       .debug$S                   0000000180000000     oleaut32:OLEAUT32.dll
 0000:fffcb000       .debug$S                   0000000180000000     node:node.exe
 0000:fffcb000       .debug$S                   0000000180000000     oleaut32:OLEAUT32.dll
 0000:fffcb000       .debug$S                   0000000180000000     node:node.exe
 0000:fffcb000       .debug$S                   0000000180000000     oleaut32:OLEAUT32.dll
 0000:fffcb000       .debug$S                   0000000180000000     node:node.exe
 0000:fffcb000       .debug$S                   0000000180000000     oleaut32:OLEAUT32.dll
 0000:fffcb000       .debug$S                   0000000180000000     node:node.exe
 0000:fffcb000       .debug$S                   0000000180000000     oleaut32:OLEAUT32.dll
 0000:fffcb000       .debug$S                   0000000180000000     node:node.exe
 0000:fffcb000       .debug$S                   0000000180000000     oleaut32:OLEAUT32.dll
 0000:fffcb000       .debug$S                   0000000180000000     node:node.exe
 0000:fffcb000       .debug$S                   0000000180000000     node:node.exe
 0000:fffcb000       .debug$S                   0000000180000000     node:node.exe
 0000:fffcb000       .debug$S                   0000000180000000     node:node.exe
 0000:fffcb000       .debug$S                   0000000180000000     node:node.exe
 0000:fffcb000       .debug$S                   0000000180000000     node:node.exe
 0000:fffcb000       .debug$S                   0000000180000000     node:node.exe
 0000:fffcb000       .debug$S                   0000000180000000     node:node.exe
 0000:fffcb000       .debug$S                   0000000180000000     node:node.exe
 0000:fffcb000       .debug$S                   0000000180000000     node:node.exe
 0000:fffcb000       .debug$S                   0000000180000000     node:node.exe
 0000:fffcb000       .debug$S                   0000000180000000     node:node.exe
 0000:fffcb000       .debug$S                   0000000180000000     node:node.exe
 0000:fffcb000       .debug$S                   0000000180000000     node:node.exe
 0000:fffcb000       .debug$S                   0000000180000000     node:node.exe
 0000:fffcb000       .debug$S                   0000000180000000     node:node.exe
 0000:fffcb000       .debug$S                   0000000180000000     node:node.exe
 0000:fffcb000       .debug$S                   0000000180000000     node:node.exe
 0000:fffcb000       .debug$S                   0000000180000000     node:node.exe
 0000:fffcb000       .debug$S                   0000000180000000     node:node.exe
 0000:fffcb000       .debug$S                   0000000180000000     node:node.exe
 0000:fffcb000       .debug$S                   0000000180000000     node:node.exe
 0000:fffcb000       .debug$S                   0000000180000000     node:node.exe
 0000:fffcb000       .debug$S                   0000000180000000     node:node.exe
 0000:fffcb000       .debug$S                   0000000180000000     node:node.exe
 0000:fffcb000       .debug$S                   0000000180000000     node:node.exe
 0001:00000000       ??__E?inst_template@DispObject@@2V?$Persistent@VObjectTemplate@v8@@V?$NonCopyablePersistentTraits@VObjectTemplate@v8@@@2@@v8@@A@@YAXXZ 0000000180001000 f   disp.obj
 0001:00000020       ??__E?clazz_template@DispObject@@2V?$Persistent@VFunctionTemplate@v8@@V?$NonCopyablePersistentTraits@VFunctionTemplate@v8@@@2@@v8@@A@@YAXXZ 0000000180001020 f   disp.obj
 0001:00000060       _register_node_activex     0000000180001060 f   main.obj
 0001:00000db0       $LN418                     0000000180001db0     utils.obj
 0001:000010ec       $LN60                      00000001800020ec     utils.obj
 0001:000039f4       $LN24                      00000001800049f4     utils.obj
 0001:00003be0       $LN24                      0000000180004be0     utils.obj
 0001:00007af0       ??R<lambda_898e84f45c2b961b8b7afcc5a4be41f0>@@QEBAXPEAUITypeInfo@@PEAUtagFUNCDESC@@@Z 0000000180008af0 f   disp.obj
 0001:0000a010       ?load_exe_hook@@YAP6A_JXZIPEAUDelayLoadInfo@@@Z 000000018000b010 f   win_delay_load_hook.obj
 0001:0000a670       $$000000                   000000018000b670     LIBCMT:_amdsecgs_.obj
 0001:0000aacc       ?dllmain_crt_dispatch@@YAHQEAUHINSTANCE__@@KQEAX@Z 000000018000bacc f   LIBCMT:dll_dllmain.obj
 0001:0000ab1c       ?dllmain_crt_process_attach@@YAHQEAUHINSTANCE__@@QEAX@Z 000000018000bb1c f   LIBCMT:dll_dllmain.obj
 0001:0000ac48       ?dllmain_crt_process_detach@@YAH_N@Z 000000018000bc48 f   LIBCMT:dll_dllmain.obj
 0001:0000accc       ?dllmain_dispatch@@YAHQEAUHINSTANCE__@@KQEAX@Z 000000018000bccc f   LIBCMT:dll_dllmain.obj
 0001:0000adc4       ?dllmain_raw@@YAHQEAUHINSTANCE__@@KQEAX@Z 000000018000bdc4 f   LIBCMT:dll_dllmain.obj
 0001:0000b03c       capture_current_context    000000018000c03c f   LIBCMT:gs_report.obj
 0001:0000b0ac       capture_previous_context   000000018000c0ac f   LIBCMT:gs_report.obj
 0001:0000b660       $$000000                   000000018000c660     libvcruntime:memcpy.obj
 0001:0000b707       MoveSmall                  000000018000c707     libvcruntime:memcpy.obj
 0001:0000bf00       $$000000                   000000018000cf00     libvcruntime:memset.obj
 0001:0000bfec       MsetTab                    000000018000cfec     libvcruntime:memset.obj
 0001:0000c30c       ?try_get_function@@YAPEAXW4function_id@?A0x679b24ab@@QEBDQEBW4module_id@2@2@Z 000000018000d30c f   libvcruntime:winapi_downlevel.obj
 0001:0000c740       $$000000                   000000018000d740     libvcruntime:_jmpuwind_.obj
 0001:0000c7f8       ??$common_vsprintf@Vformat_validation_base@__crt_stdio_output@@D@@YAH_KQEAD0QEBDQEAU__crt_locale_pointers@@1@Z 000000018000d7f8 f   libucrt:output.obj
 0001:0000c9a0       ??$common_vsprintf@Vformat_validation_base@__crt_stdio_output@@_W@@YAH_KQEA_W0QEB_WQEAU__crt_locale_pointers@@QEAD@Z 000000018000d9a0 f   libucrt:output.obj
 0001:0000d094       ??R<lambda_dd75445284c072d0bd3768540cc698fa>@@QEBAHXZ 000000018000e094 f   libucrt:output.obj
 0001:0000fdd0       ??$common_assert_to_message_box@_W@@YAXQEB_W0IQEAX@Z 0000000180010dd0 f   libucrt:assert.obj
 0001:0000fe94       ??$common_assert_to_message_box_build_string@_W@@YAXQEA_W_KQEB_W2IQEAX@Z 0000000180010e94 f   libucrt:assert.obj
 0001:00010668       ??$common_assert_to_stderr@_W@@YAXQEB_W0I@Z 0000000180011668 f   libucrt:assert.obj
 0001:000107d8       ?get_assert_format@@YAPEB_W_W@Z 00000001800117d8 f   libucrt:assert.obj
 0001:00011080       ?atexit_exception_filter@@YAHK@Z 0000000180012080 f   libucrt:exit.obj
 0001:0001108c       ?common_exit@@YAXHW4_crt_exit_cleanup_mode@@W4_crt_exit_return_mode@@@Z 000000018001208c f   libucrt:exit.obj
 0001:000111f8       ?exit_or_terminate_process@@YAXI@Z 00000001800121f8 f   libucrt:exit.obj
 0001:00011244       ?try_cor_exit_process@@YAXI@Z 0000000180012244 f   libucrt:exit.obj
 0001:000112dc       ??$parse_command_line@D@@YAXPEADPEAPEAD0PEA_K2@Z 00000001800122dc f   libucrt:argv_parsing.obj
 0001:00011674       ??$common_initialize_environment_nolock@D@@YAHXZ 0000000180012674 f   libucrt:environment_initialization.obj
 0001:000116e0       ??$create_environment@D@@YAQEAPEADQEAD@Z 00000001800126e0 f   libucrt:environment_initialization.obj
 0001:000117dc       ??$free_environment@_W@@YAXQEAPEA_W@Z 00000001800127dc f   libucrt:environment_initialization.obj
 0001:000117dc       ??$free_environment@D@@YAXQEAPEAD@Z 00000001800127dc f   libucrt:environment_initialization.obj
 0001:00011820       ??$uninitialize_environment_internal@D@@YAXAEAPEAPEAD@Z 0000000180012820 f   libucrt:environment_initialization.obj
 0001:0001183c       ??$uninitialize_environment_internal@_W@@YAXAEAPEAPEA_W@Z 000000018001283c f   libucrt:environment_initialization.obj
 0001:00011a74       ??R<lambda_4e60a939b0d047cfe11ddc22648dfba9>@@QEBAHXZ 0000000180012a74 f   libucrt:onexit.obj
 0001:00011d24       initialize_global_variables 0000000180012d24 f   libucrt:initialization.obj
 0001:00011d38       initialize_c               0000000180012d38 f   libucrt:initialization.obj
 0001:00011d5c       report_memory_leaks        0000000180012d5c f   libucrt:initialization.obj
 0001:00011d5c       uninitialize_global_state_isolation 0000000180012d5c f   libucrt:initialization.obj
 0001:00011d5c       uninitialize_c             0000000180012d5c f   libucrt:initialization.obj
 0001:00011d5c       initialize_environment     0000000180012d5c f   libucrt:initialization.obj
 0001:00011d5c       initialize_global_state_isolation 0000000180012d5c f   libucrt:initialization.obj
 0001:00011d60       uninitialize_environment   0000000180012d60 f   libucrt:initialization.obj
 0001:00011d70       initialize_pointers        0000000180012d70 f   libucrt:initialization.obj
 0001:00011dc4       uninitialize_vcruntime     0000000180012dc4 f   libucrt:initialization.obj
 0001:00011dcc       uninitialize_allocated_memory 0000000180012dcc f   libucrt:initialization.obj
 0001:00012bfc       ?internal_isupper_l@@YA_NHQEAU__crt_locale_pointers@@@Z 0000000180013bfc f   libucrt:tolower_toupper.obj
 0001:00013660       ?construct_ptd_array@@YAXQEAU__acrt_ptd@@@Z 0000000180014660 f   libucrt:per_thread_data.obj
 0001:00013730       ?destroy_fls@@YAXPEAX@Z    0000000180014730 f   libucrt:per_thread_data.obj
 0001:00013750       ?destroy_ptd_array@@YAXQEAU__acrt_ptd@@@Z 0000000180014750 f   libucrt:per_thread_data.obj
 0001:00013848       ?replace_current_thread_locale_nolock@@YAXQEAU__acrt_ptd@@QEAU__crt_locale_data@@@Z 0000000180014848 f   libucrt:per_thread_data.obj
 0001:00013b58       ?fp_format_a@@YAHQEBNPEAD_KQEAD2H_NIQEAU__crt_locale_pointers@@@Z 0000000180014b58 f   libucrt:cvt.obj
 0001:00013eb8       ?fp_format_e@@YAHQEBNQEAD_K12H_NIQEAU__crt_locale_pointers@@@Z 0000000180014eb8 f   libucrt:cvt.obj
 0001:00013f88       ?fp_format_e_internal@@YAHQEAD_KH_NIQEAU_strflt@@2QEAU__crt_locale_pointers@@@Z 0000000180014f88 f   libucrt:cvt.obj
 0001:00014164       ?fp_format_f_internal@@YAHQEAD_KHQEAU_strflt@@_NQEAU__crt_locale_pointers@@@Z 0000000180015164 f   libucrt:cvt.obj
 0001:000142ac       ?fp_format_g@@YAHQEBNQEAD_K12H_NIQEAU__crt_locale_pointers@@@Z 00000001800152ac f   libucrt:cvt.obj
 0001:000143e4       ?fp_format_nan_or_infinity@@YAHW4__acrt_fp_class@@_NPEAD_K1@Z 00000001800153e4 f   libucrt:cvt.obj
 0001:00014c48       ?initialize_inherited_file_handles_nolock@@YAXXZ 0000000180015c48 f   libucrt:ioinit.obj
 0001:00014d34       ?initialize_stdio_handles_nolock@@YAXXZ 0000000180015d34 f   libucrt:ioinit.obj
 0001:00014eb4       ??$common_xtox@K_W@@YAHKQEA_W_KI_N@Z 0000000180015eb4 f   libucrt:xtoa.obj
 0001:00014f60       ??$common_xtox_s@K_W@@YAHKQEA_W_KI_N@Z 0000000180015f60 f   libucrt:xtoa.obj
 0001:00015224       ??$message_box_wait_thread@_W@@YAKQEAX@Z 0000000180016224 f   libucrt:crtmbox.obj
 0001:00015438       common_flush_all           0000000180016438 f   libucrt:fflush.obj
 0001:000155a0       ??R<lambda_b721fa326cdb32351d23dfa67958c160>@@QEBAHXZ 00000001800165a0 f   libucrt:setvbuf.obj
 0001:00015be0       ?try_get_function@@YAPEAXW4function_id@?A0x63058377@@QEBDQEBW4module_id@2@2@Z 0000000180016be0 f   libucrt:winapi_thunks.obj
 0001:0001640c       ?<helper_func_cdecl>@<lambda_2feae5270eb4d0d5532525f423405775>@@CAHPEBX0@Z 000000018001740c f   libucrt:argv_wildcards.obj
 0001:00016420       ??$common_expand_argv_wildcards@D@@YAHQEAPEADQEAPEAPEAD@Z 0000000180017420 f   libucrt:argv_wildcards.obj
 0001:0001662c       ??$copy_and_add_argument_to_buffer@D@@YAHQEBD0_KAEAV?$argument_list@D@?A0xca0879c4@@@Z 000000018001762c f   libucrt:argv_wildcards.obj
 0001:0001673c       ??$expand_argument_wildcards@D@@YAHQEAD0AEAV?$argument_list@D@?A0xca0879c4@@@Z 000000018001773c f   libucrt:argv_wildcards.obj
 0001:000169f0       ??R<lambda_ad1ced32f4ac17aa236e5ef05d6b3b7c>@@QEBAXXZ 00000001800179f0 f   libucrt:mbctype.obj
 0001:00016c08       ?getSystemCP@@YAHH@Z       0000000180017c08 f   libucrt:mbctype.obj
 0001:00016c88       ?setSBCS@@YAXPEAU__crt_multibyte_data@@@Z 0000000180017c88 f   libucrt:mbctype.obj
 0001:00016d18       ?setSBUpLow@@YAXPEAU__crt_multibyte_data@@@Z 0000000180017d18 f   libucrt:mbctype.obj
 0001:00016efc       ?setmbcp_internal@@YAHH_N@Z 0000000180017efc f   libucrt:mbctype.obj
 0001:00017444       ?x_ismbbtype_l@@YAHPEAU__crt_locale_pointers@@IHH@Z 0000000180018444 f   libucrt:ismbbyte.obj
 0001:00017a10       ?__acrt_LCMapStringA_stat@@YAHPEAU__crt_locale_pointers@@PEB_WKPEBDHPEADHHH@Z 0000000180018a10 f   libucrt:lcmapstringa.obj
 0001:00019b0c       memcpy_s                   000000018001ab0c f   libucrt:cfout.obj
 0001:00019b94       ??$write_buffer_nolock@D@@YA_NDV__crt_stdio_stream@@@Z 000000018001ab94 f   libucrt:_flsbuf.obj
 0001:00019c98       ??$write_buffer_nolock@_W@@YA_N_WV__crt_stdio_stream@@@Z 000000018001ac98 f   libucrt:_flsbuf.obj
 0001:0001a244       ?free_crt_array_internal@@YAXQEAPEBX_K@Z 000000018001b244 f   libucrt:inittime.obj
 0001:0001a994       ?write_double_translated_ansi_nolock@@YA?AUwrite_result@?A0x9c548279@@HQEBDI@Z 000000018001b994 f   libucrt:write.obj
 0001:0001ab9c       ?write_text_ansi_nolock@@YA?AUwrite_result@?A0x9c548279@@HQEBDI@Z 000000018001bb9c f   libucrt:write.obj
 0001:0001aca4       ?write_text_utf16le_nolock@@YA?AUwrite_result@?A0x9c548279@@HQEBDI@Z 000000018001bca4 f   libucrt:write.obj
 0001:0001adc0       ?write_text_utf8_nolock@@YA?AUwrite_result@?A0x9c548279@@HQEBDI@Z 000000018001bdc0 f   libucrt:write.obj
 0001:0001b38c       ?GetTableIndexFromLocaleName@@YAHPEB_W@Z 000000018001c38c f   libucrt:lcidtoname_downlevel.obj
 0001:0001b490       ?shortsort@@YAXPEAD0_KP6AHPEBX2@Z@Z 000000018001c490 f   libucrt:qsort.obj
 0001:0001baa8       ?initialize_multibyte@@YAHXZ 000000018001caa8 f   libucrt:multibyte_initializer.obj
 0001:0001bd20       $$000000                   000000018001cd20     libucrt:log10.obj
 0001:0001c2cc       ??$common_lseek@_J@@YA_JH_JH@Z 000000018001d2cc f   libucrt:lseek.obj
 0001:0001c3bc       ??$common_lseek_nolock@_J@@YA_JH_JH@Z 000000018001d3bc f   libucrt:lseek.obj
 0001:0001c748       common_control87           000000018001d748 f   libucrt:ieee.obj
 0001:0001c9e0       _call_matherr              000000018001d9e0 f   libucrt:libm_error.obj
 0001:0001ca48       _exception_enabled         000000018001da48 f   libucrt:libm_error.obj
 0001:0001cce0       _log_special_common        000000018001dce0 f   libucrt:log_special.obj
 0001:0001cff0       $$000000                   000000018001dff0     libucrt:fpsr.obj
 0001:0001dca0       $$000000                   000000018001eca0     LIBCMT:_chkstk_.obj
 0001:0001de50       $$000000                   000000018001ee50     libvcruntime:memcmp.obj
 0001:0001df30       $$000000                   000000018001ef30     LIBCMT:_guard_dispatch_.obj
 0001:0001df50       __scrt_is_nonwritable_in_current_image$filt$0 000000018001ef50 f   LIBCMT:utility.obj
 0001:0001df68       ?fin$0@?0??dllmain_crt_process_attach@@YAHQEAUHINSTANCE__@@QEAX@Z@4HA 000000018001ef68 f   LIBCMT:dll_dllmain.obj
 0001:0001df7f       ?fin$0@?0??dllmain_crt_process_detach@@YAH_N@Z@4HA 000000018001ef7f f   LIBCMT:dll_dllmain.obj
 0001:0001df9b       ?filt$0@?0??dllmain_dispatch@@YAHQEAUHINSTANCE__@@KQEAX@Z@4HA 000000018001ef9b f   LIBCMT:dll_dllmain.obj
 0001:0001dfd1       ?fin$0@?0???$?RV<lambda_7a5ef57ff966f610505f1d28a3d40618>@@AEAV<lambda_b721fa326cdb32351d23dfa67958c160>@@V<lambda_5e0fb27672408a07956fe59e48ccb2aa>@@@?$__crt_seh_guarded_call@H@@QEAAH$$QEAV<lambda_7a5ef57ff966f610505f1d28a3d40618>@@AEAV<lambda_b721fa326cdb32351d23dfa67958c160>@@$$QEAV<lambda_5e0fb27672408a07956fe59e48ccb2aa>@@@Z@4HA 000000018001efd1 f   libucrt:setvbuf.obj
 0001:0001dfd1       ?fin$0@?0???$?RV<lambda_7b91131dde12e1c3dfc74ff76b3f2eac>@@AEAV<lambda_dd75445284c072d0bd3768540cc698fa>@@V<lambda_16bc4ecb55b4718497c16bceaea2ceaf>@@@?$__crt_seh_guarded_call@H@@QEAAH$$QEAV<lambda_7b91131dde12e1c3dfc74ff76b3f2eac>@@AEAV<lambda_dd75445284c072d0bd3768540cc698fa>@@$$QEAV<lambda_16bc4ecb55b4718497c16bceaea2ceaf>@@@Z@4HA 000000018001efd1 f   libucrt:output.obj
 0001:0001dfec       _query_new_handler$fin$0   000000018001efec f   libucrt:new_handler.obj
 0001:0001e002       ?filt$0@?0??common_exit@@YAXHW4_crt_exit_cleanup_mode@@W4_crt_exit_return_mode@@@Z@4HA 000000018001f002 f   libucrt:exit.obj
 0001:0001e01d       ?fin$1@?0??common_exit@@YAXHW4_crt_exit_cleanup_mode@@W4_crt_exit_return_mode@@@Z@4HA 000000018001f01d f   libucrt:exit.obj
 0001:0001e036       ?fin$0@?0???$?RV<lambda_e24bbb7b643b32fcea6fa61b31d4c984>@@AEAV<lambda_275893d493268fdec8709772e3fcec0e>@@V<lambda_9d71df4d7cf3f480f8d633942495c3b0>@@@?$__crt_seh_guarded_call@H@@QEAAH$$QEAV<lambda_e24bbb7b643b32fcea6fa61b31d4c984>@@AEAV<lambda_275893d493268fdec8709772e3fcec0e>@@$$QEAV<lambda_9d71df4d7cf3f480f8d633942495c3b0>@@@Z@4HA 000000018001f036 f   libucrt:onexit.obj
 0001:0001e053       __acrt_uninitialize_locale$fin$0 000000018001f053 f   libucrt:wsetlocale.obj
 0001:0001e053       __acrt_update_thread_locale_data$fin$0 000000018001f053 f   libucrt:locale_refcounting.obj
 0001:0001e06c       __acrt_lowio_ensure_fh_exists$fin$0 000000018001f06c f   libucrt:osfinfo.obj
 0001:0001e06c       __acrt_initialize_lowio$fin$0 000000018001f06c f   libucrt:ioinit.obj
 0001:0001e085       common_flush_all$fin$0     000000018001f085 f   libucrt:fflush.obj
 0001:0001e09f       common_flush_all$fin$1     000000018001f09f f   libucrt:fflush.obj
 0001:0001e0b8       fclose$fin$0               000000018001f0b8 f   libucrt:fclose.obj
 0001:0001e0b8       fflush$fin$0               000000018001f0b8 f   libucrt:fflush.obj
 0001:0001e0d0       ?fin$0@?0???$?RV<lambda_99476a1ad63dd22509b5d3e65b0ffc95>@@AEAV<lambda_ad1ced32f4ac17aa236e5ef05d6b3b7c>@@V<lambda_f7424dd8d45958661754dc4f2697e9c3>@@@?$__crt_seh_guarded_call@X@@QEAAX$$QEAV<lambda_99476a1ad63dd22509b5d3e65b0ffc95>@@AEAV<lambda_ad1ced32f4ac17aa236e5ef05d6b3b7c>@@$$QEAV<lambda_f7424dd8d45958661754dc4f2697e9c3>@@@Z@4HA 000000018001f0d0 f   libucrt:mbctype.obj
 0001:0001e0d0       ?fin$0@?0???$?RV<lambda_46352004c1216016012b18bd6f87e700>@@AEAV<lambda_3bd07e1a1191394380780325891bf33f>@@V<lambda_334532d3f185bcaa59b5be82d7d22bff>@@@?$__crt_seh_guarded_call@X@@QEAAX$$QEAV<lambda_46352004c1216016012b18bd6f87e700>@@AEAV<lambda_3bd07e1a1191394380780325891bf33f>@@$$QEAV<lambda_334532d3f185bcaa59b5be82d7d22bff>@@@Z@4HA 000000018001f0d0 f   libucrt:per_thread_data.obj
 0001:0001e0d0       ?fin$0@?0???$?RV<lambda_5e887d1dcbef67a5eb4283622ba103bf>@@AEAV<lambda_4466841279450cc726390878d4a41900>@@V<lambda_341c25c0346d94847f1f3c463c57e077>@@@?$__crt_seh_guarded_call@X@@QEAAX$$QEAV<lambda_5e887d1dcbef67a5eb4283622ba103bf>@@AEAV<lambda_4466841279450cc726390878d4a41900>@@$$QEAV<lambda_341c25c0346d94847f1f3c463c57e077>@@@Z@4HA 000000018001f0d0 f   libucrt:per_thread_data.obj
 0001:0001e0d0       ?fin$0@?0???$?RV<lambda_c36588078e9f5dfd39652860aa6b3aaf>@@AEAV<lambda_ec61778202f4f5fc7e7711acc23c3bca>@@V<lambda_dc9d2797ccde5d239b4a0efae8ebd7db>@@@?$__crt_seh_guarded_call@P6AXH@Z@@QEAAP6AXH@Z$$QEAV<lambda_c36588078e9f5dfd39652860aa6b3aaf>@@AEAV<lambda_ec61778202f4f5fc7e7711acc23c3bca>@@$$QEAV<lambda_dc9d2797ccde5d239b4a0efae8ebd7db>@@@Z@4HA 000000018001f0d0 f   libucrt:signal.obj
 0001:0001e0d0       ?fin$0@?0???$?RV<lambda_fb3a7dec4e47f37f22dae91bb15c9095>@@AEAV<lambda_698284760c8add0bfb0756c19673e34b>@@V<lambda_dfb8eca1e75fef3034a8fb18dd509707>@@@?$__crt_seh_guarded_call@X@@QEAAX$$QEAV<lambda_fb3a7dec4e47f37f22dae91bb15c9095>@@AEAV<lambda_698284760c8add0bfb0756c19673e34b>@@$$QEAV<lambda_dfb8eca1e75fef3034a8fb18dd509707>@@@Z@4HA 000000018001f0d0 f   libucrt:per_thread_data.obj
 0001:0001e0d0       ?fin$0@?0???$?RV<lambda_b8c45f8f788dd370798f47cfe8ac3a86>@@AEAV<lambda_4e60a939b0d047cfe11ddc22648dfba9>@@V<lambda_332c3edc96d0294ec56c57d38c1cdfd5>@@@?$__crt_seh_guarded_call@H@@QEAAH$$QEAV<lambda_b8c45f8f788dd370798f47cfe8ac3a86>@@AEAV<lambda_4e60a939b0d047cfe11ddc22648dfba9>@@$$QEAV<lambda_332c3edc96d0294ec56c57d38c1cdfd5>@@@Z@4HA 000000018001f0d0 f   libucrt:onexit.obj
 0001:0001e0d0       ?fin$0@?0???$?RV<lambda_72d1df2b273a38828b1ce30cbf4cdab5>@@AEAV<lambda_876a65b173b8412d3a47c70a915b0cf4>@@V<lambda_41932305e351933ebe8f8be3ed8bb5dc>@@@?$__crt_seh_guarded_call@X@@QEAAX$$QEAV<lambda_72d1df2b273a38828b1ce30cbf4cdab5>@@AEAV<lambda_876a65b173b8412d3a47c70a915b0cf4>@@$$QEAV<lambda_41932305e351933ebe8f8be3ed8bb5dc>@@@Z@4HA 000000018001f0d0 f   libucrt:per_thread_data.obj
 0001:0001e0ea       raise$fin$0                000000018001f0ea f   libucrt:signal.obj
 0001:0001e10e       __acrt_update_thread_multibyte_data$fin$0 000000018001f10e f   libucrt:mbctype.obj
 0001:0001e127       _fcloseall$fin$0           000000018001f127 f   libucrt:closeall.obj
 0001:0001e140       ?fin$0@?0???$?RV<lambda_bfedae4ebbf01fab1bb6dcc6a9e276e0>@@AEAV<lambda_2fe9b910cf3cbf4a0ab98a02ba45b3ec>@@V<lambda_237c231691f317818eb88cc1d5d642d6>@@@?$__crt_seh_guarded_call@H@@QEAAH$$QEAV<lambda_bfedae4ebbf01fab1bb6dcc6a9e276e0>@@AEAV<lambda_2fe9b910cf3cbf4a0ab98a02ba45b3ec>@@$$QEAV<lambda_237c231691f317818eb88cc1d5d642d6>@@@Z@4HA 000000018001f140 f   libucrt:close.obj
 0001:0001e140       ?fin$0@?0???$?RV<lambda_b521505b218e5242e90febf6bfebc422>@@AEAV<lambda_6978c1fb23f02e42e1d9e99668cc68aa>@@V<lambda_314360699dd331753a4119843814e9a7>@@@?$__crt_seh_guarded_call@H@@QEAAH$$QEAV<lambda_b521505b218e5242e90febf6bfebc422>@@AEAV<lambda_6978c1fb23f02e42e1d9e99668cc68aa>@@$$QEAV<lambda_314360699dd331753a4119843814e9a7>@@@Z@4HA 000000018001f140 f   libucrt:commit.obj
 0001:0001e15a       _write$fin$0               000000018001f15a f   libucrt:write.obj
 0001:0001e15a       ?fin$0@?0???$common_lseek@_J@@YA_JH_JH@Z@4HA 000000018001f15a f   libucrt:lseek.obj
 0001:0001e171       _ctrlfp$filt$0             000000018001f171 f   libucrt:fpctrl.obj
 0001:0001e171       common_control87$filt$0    000000018001f171 f   libucrt:ieee.obj
 0001:0001e1a0       _IsNonwritableInCurrentImage$filt$0 000000018001f1a0 f   LIBCMT:pesect.obj
 0001:0001e1c0       ??__F?inst_template@DispObject@@2V?$Persistent@VObjectTemplate@v8@@V?$NonCopyablePersistentTraits@VObjectTemplate@v8@@@2@@v8@@A@@YAXXZ 000000018001f1c0 f   disp.obj
 0001:0001e1d0       ??__F?clazz_template@DispObject@@2V?$Persistent@VFunctionTemplate@v8@@V?$NonCopyablePersistentTraits@VFunctionTemplate@v8@@@2@@v8@@A@@YAXXZ 000000018001f1d0 f   disp.obj
 0002:00000308       ??inst_template$initializer$@DispObject@@2P6AXXZEA@@3P6AXXZEA 0000000180020308     disp.obj
 0002:00000310       ??clazz_template$initializer$@DispObject@@2P6AXXZEA@@3P6AXXZEA 0000000180020310     disp.obj
 0002:00000478       GS_ExceptionPointers       0000000180020478     LIBCMT:gs_report.obj
 0002:000004c0       ?ExceptionTemplate@?1??_CxxThrowException@@9@4UEHExceptionRecord@@B 00000001800204c0     libvcruntime:throw.obj
 0002:00000500       ?module_names@?A0x679b24ab@@3QBQEB_WB 0000000180020500     libvcruntime:winapi_downlevel.obj
 0002:000005d0       ?candidate_modules@?1??try_get_FlsAlloc@@YAP6AKP6AXPEAX@Z@ZXZ@4QBW4module_id@?A0x679b24ab@@B 00000001800205d0     libvcruntime:winapi_downlevel.obj
 0002:000005e8       ?candidate_modules@?1??try_get_FlsFree@@YAP6AHK@ZXZ@4QBW4module_id@?A0x679b24ab@@B 00000001800205e8     libvcruntime:winapi_downlevel.obj
 0002:000005f8       ?candidate_modules@?1??try_get_FlsGetValue@@YAP6APEAXK@ZXZ@4QBW4module_id@?A0x679b24ab@@B 00000001800205f8     libvcruntime:winapi_downlevel.obj
 0002:00000610       ?candidate_modules@?1??try_get_FlsSetValue@@YAP6AHKPEAX@ZXZ@4QBW4module_id@?A0x679b24ab@@B 0000000180020610     libvcruntime:winapi_downlevel.obj
 0002:00000628       ?candidate_modules@?1??try_get_InitializeCriticalSectionEx@@YAP6AHPEAU_RTL_CRITICAL_SECTION@@KK@ZXZ@4QBW4module_id@?A0x679b24ab@@B 0000000180020628     libvcruntime:winapi_downlevel.obj
 0002:00000650       ?tokenTable@@3QBQEBDB      0000000180020650     libvcruntime:undname.obj
 0002:000006c0       ?nameTable@@3QBQEBDB       00000001800206c0     libvcruntime:undname.obj
 0002:00000948       ?rttiTable@@3QBQEBDB       0000000180020948     libvcruntime:undname.obj
 0002:00001490       __acrt_initializers        0000000180021490     libucrt:initialization.obj
 0002:00001580       errtable                   0000000180021580     libucrt:errno.obj
 0002:00001dc0       module_names               0000000180021dc0     libucrt:winapi_thunks.obj
 0002:000022f0       ?candidate_modules@?1??try_get_FlsAlloc@@YAP6AKP6AXPEAX@Z@ZXZ@4QBW4module_id@?A0x63058377@@B 00000001800222f0     libucrt:winapi_thunks.obj
 0002:000022f8       ?candidate_modules@?1??try_get_FlsFree@@YAP6AHK@ZXZ@4QBW4module_id@?A0x63058377@@B 00000001800222f8     libucrt:winapi_thunks.obj
 0002:00002300       ?candidate_modules@?1??try_get_FlsGetValue@@YAP6APEAXK@ZXZ@4QBW4module_id@?A0x63058377@@B 0000000180022300     libucrt:winapi_thunks.obj
 0002:00002308       ?candidate_modules@?1??try_get_FlsSetValue@@YAP6AHKPEAX@ZXZ@4QBW4module_id@?A0x63058377@@B 0000000180022308     libucrt:winapi_thunks.obj
 0002:00002310       ?candidate_modules@?1??try_get_GetActiveWindow@@YAP6APEAUHWND__@@XZXZ@4QBW4module_id@?A0x63058377@@B 0000000180022310     libucrt:winapi_thunks.obj
 0002:00002328       ?candidate_modules@?1??try_get_GetCurrentPackageId@@YAP6AJPEAIPEAE@ZXZ@4QBW4module_id@?A0x63058377@@B 0000000180022328     libucrt:winapi_thunks.obj
 0002:00002348       ?candidate_modules@?1??try_get_GetLastActivePopup@@YAP6APEAUHWND__@@PEAU2@@ZXZ@4QBW4module_id@?A0x63058377@@B 0000000180022348     libucrt:winapi_thunks.obj
 0002:00002368       ?candidate_modules@?1??try_get_GetProcessWindowStation@@YAP6APEAUHWINSTA__@@XZXZ@4QBW4module_id@?A0x63058377@@B 0000000180022368     libucrt:winapi_thunks.obj
 0002:00002388       ?candidate_modules@?1??try_get_GetUserObjectInformationW@@YAP6AHPEAXH0KPEAK@ZXZ@4QBW4module_id@?A0x63058377@@B 0000000180022388     libucrt:winapi_thunks.obj
 0002:000023b0       ?candidate_modules@?1??try_get_InitializeCriticalSectionEx@@YAP6AHPEAU_RTL_CRITICAL_SECTION@@KK@ZXZ@4QBW4module_id@?A0x63058377@@B 00000001800223b0     libucrt:winapi_thunks.obj
 0002:000023b8       ?candidate_modules@?1??try_get_LCMapStringEx@@YAP6AHPEB_WK0HPEA_WHPEAU_nlsversioninfo@@PEAX_J@ZXZ@4QBW4module_id@?A0x63058377@@B 00000001800223b8     libucrt:winapi_thunks.obj
 0002:000023d0       ?candidate_modules@?1??try_get_LocaleNameToLCID@@YAP6AKPEB_WK@ZXZ@4QBW4module_id@?A0x63058377@@B 00000001800223d0     libucrt:winapi_thunks.obj
 0002:000023f0       ?candidate_modules@?1??try_get_MessageBoxA@@YAP6AHPEAUHWND__@@PEBD1I@ZXZ@4QBW4module_id@?A0x63058377@@B 00000001800223f0     libucrt:winapi_thunks.obj
 0002:00002408       ?candidate_modules@?1??try_get_MessageBoxW@@YAP6AHPEAUHWND__@@PEB_W1I@ZXZ@4QBW4module_id@?A0x63058377@@B 0000000180022408     libucrt:winapi_thunks.obj
 0002:00002420       _mb_locale_names           0000000180022420     libucrt:mbctype.obj
 0002:00003690       LcidToLocaleNameTable      0000000180023690     libucrt:lcidtoname_downlevel.obj
 0002:000050e0       LocaleNameToIndexTable     00000001800250e0     libucrt:lcidtoname_downlevel.obj
 0002:00006980       __real_ninf                0000000180026980     libucrt:log10.obj
 0002:00006990       __real_inf                 0000000180026990     libucrt:log10.obj
 0002:000069a0       __real_neg_qnan            00000001800269a0     libucrt:log10.obj
 0002:000069b0       __real_qnanbit             00000001800269b0     libucrt:log10.obj
 0002:000069c0       __int_1023                 00000001800269c0     libucrt:log10.obj
 0002:000069d0       __mask_001                 00000001800269d0     libucrt:log10.obj
 0002:000069e0       __mask_mant                00000001800269e0     libucrt:log10.obj
 0002:000069f0       __mask_mant_top8           00000001800269f0     libucrt:log10.obj
 0002:00006a00       __mask_mant9               0000000180026a00     libucrt:log10.obj
 0002:00006a10       __real_log10_e             0000000180026a10     libucrt:log10.obj
 0002:00006a20       __real_log10_e_lead        0000000180026a20     libucrt:log10.obj
 0002:00006a30       __real_log10_e_tail        0000000180026a30     libucrt:log10.obj
 0002:00006a40       __real_log10_2_lead        0000000180026a40     libucrt:log10.obj
 0002:00006a50       __real_log10_2_tail        0000000180026a50     libucrt:log10.obj
 0002:00006a60       __real_two                 0000000180026a60     libucrt:log10.obj
 0002:00006a70       __real_one                 0000000180026a70     libucrt:log10.obj
 0002:00006a80       __real_half                0000000180026a80     libucrt:log10.obj
 0002:00006a90       __mask_100                 0000000180026a90     libucrt:log10.obj
 0002:00006aa0       __real_1_over_512          0000000180026aa0     libucrt:log10.obj
 0002:00006ab0       __real_1_over_2            0000000180026ab0     libucrt:log10.obj
 0002:00006ac0       __real_1_over_3            0000000180026ac0     libucrt:log10.obj
 0002:00006ad0       __real_1_over_4            0000000180026ad0     libucrt:log10.obj
 0002:00006ae0       __real_1_over_5            0000000180026ae0     libucrt:log10.obj
 0002:00006af0       __real_1_over_6            0000000180026af0     libucrt:log10.obj
 0002:00006b00       __real_neg_1023            0000000180026b00     libucrt:log10.obj
 0002:00006b10       __mask_2045                0000000180026b10     libucrt:log10.obj
 0002:00006b20       __real_threshold           0000000180026b20     libucrt:log10.obj
 0002:00006b30       __real_near_one_lt         0000000180026b30     libucrt:log10.obj
 0002:00006b40       __real_near_one_gt         0000000180026b40     libucrt:log10.obj
 0002:00006b50       __real_min_norm            0000000180026b50     libucrt:log10.obj
 0002:00006b60       __real_notsign             0000000180026b60     libucrt:log10.obj
 0002:00006b70       __real_ca1                 0000000180026b70     libucrt:log10.obj
 0002:00006b80       __real_ca2                 0000000180026b80     libucrt:log10.obj
 0002:00006b90       __real_ca3                 0000000180026b90     libucrt:log10.obj
 0002:00006ba0       __real_ca4                 0000000180026ba0     libucrt:log10.obj
 0002:00006bb0       __mask_lower               0000000180026bb0     libucrt:log10.obj
 0002:00006bc0       __flag_x_zero              0000000180026bc0     libucrt:log10.obj
 0002:00006bc4       __flag_x_neg               0000000180026bc4     libucrt:log10.obj
 0002:00006bc8       __flag_x_nan               0000000180026bc8     libucrt:log10.obj
 0002:00008420       __real@433fffffffffffff    0000000180028420     libucrt:fpsr.obj
 0002:00008428       __real@c33fffffffffffff    0000000180028428     libucrt:fpsr.obj
 0002:00008548       ?piecewise_construct@std@@3Upiecewise_construct_t@1@B 0000000180028548     main.obj
 0002:00008549       ?piecewise_construct@std@@3Upiecewise_construct_t@1@B 0000000180028549     utils.obj
 0002:0000854a       ?piecewise_construct@std@@3Upiecewise_construct_t@1@B 000000018002854a     disp.obj
 0002:00009490       $unwind$??$Unwrap@VDispObject@@@ObjectWrap@node@@SAPEAVDispObject@@V?$Local@VObject@v8@@@v8@@@Z 0000000180029490     utils.obj
 0002:00009490       $unwind$?Init@node_activex@@YAXV?$Local@VObject@v8@@@v8@@@Z 0000000180029490     main.obj
 0002:00009498       $unwind$?QueryInterface@DispObjectImpl@@UEAAJAEBU_GUID@@PEAPEAX@Z 0000000180029498     utils.obj
 0002:00009498       $unwind$__acrt_release_locale_ref 0000000180029498     libucrt:locale_refcounting.obj
 0002:00009498       $unwind$_getfpstatusword   0000000180029498     libucrt:_fenvutils.obj
 0002:00009498       $unwind$_getfpcontrolword  0000000180029498     libucrt:_fenvutils.obj
 0002:00009498       $unwind$__pctype_func      0000000180029498     libucrt:ctype.obj
 0002:00009498       $unwind$?state_case_size@?$output_processor@_WV?$stream_output_adapter@_W@__crt_stdio_output@@V?$standard_base@_WV?$stream_output_adapter@_W@__crt_stdio_output@@@2@@__crt_stdio_output@@AEAA_NXZ 0000000180029498     libucrt:output.obj
 0002:00009498       $unwind$__dcrt_terminate_console_output 0000000180029498     libucrt:initcon.obj
 0002:00009498       $unwind$__acrt_uninitialize_critical 0000000180029498     libucrt:initialization.obj
 0002:00009498       $unwind$_get_osfhandle     0000000180029498     libucrt:osfinfo.obj
 0002:00009498       $unwind$??$uninitialize_environment_internal@D@@YAXAEAPEAPEAD@Z 0000000180029498     libucrt:environment_initialization.obj
 0002:00009498       $unwind$?QueryInterface@?$UnknownImpl@UIDispatch@@@@UEAAJAEBU_GUID@@PEAPEAX@Z 0000000180029498     utils.obj
 0002:00009498       $unwind$__dcrt_uninitialize_environments_nolock 0000000180029498     libucrt:environment_initialization.obj
 0002:00009498       $unwind$__acrt_uninitialize_ptd 0000000180029498     libucrt:per_thread_data.obj
 0002:00009498       $unwind$__GSHandlerCheck   0000000180029498     LIBCMT:_gshandler_.obj
 0002:00009498       $unwind$?state_case_size@?$output_processor@_WV?$string_output_adapter@_W@__crt_stdio_output@@V?$standard_base@_WV?$string_output_adapter@_W@__crt_stdio_output@@@2@@__crt_stdio_output@@AEAA_NXZ 0000000180029498     libucrt:output.obj
 0002:00009498       $unwind$__report_rangecheckfailure 0000000180029498     LIBCMT:gs_report.obj
 0002:00009498       $unwind$_statfp            0000000180029498     libucrt:fpctrl.obj
 0002:00009498       $unwind$_invoke_watson     0000000180029498     libucrt:invalid_parameter.obj
 0002:00009498       $unwind$_wcsicmp           0000000180029498     libucrt:wcsicmp.obj
 0002:00009498       $unwind$_set_errno_from_matherr 0000000180029498     libucrt:fpexcept.obj
 0002:00009498       $unwind$__acrt_DownlevelLocaleNameToLCID 0000000180029498     libucrt:lcidtoname_downlevel.obj
 0002:00009498       $unwind$__acrt_thread_detach 0000000180029498     libucrt:initialization.obj
 0002:00009498       $unwind$__acrt_initialize_command_line 0000000180029498     libucrt:argv_data.obj
 0002:00009498       $unwind$initialize_c       0000000180029498     libucrt:initialization.obj
 0002:00009498       $unwind$__scrt_initialize_default_local_stdio_options 0000000180029498     LIBCMT:default_local_stdio_options.obj
 0002:00009498       $unwind$_stricmp           0000000180029498     libucrt:stricmp.obj
 0002:00009498       $unwind$DllMain            0000000180029498     main.obj
 0002:00009498       $unwind$tolower            0000000180029498     libucrt:tolower_toupper.obj
 0002:00009498       $unwind$?Release@?$UnknownImpl@UIDispatch@@@@UEAAKXZ 0000000180029498     utils.obj
 0002:00009498       $unwind$abort              0000000180029498     libucrt:abort.obj
 0002:00009498       $unwind$uninitialize_environment 0000000180029498     libucrt:initialization.obj
 0002:00009498       $unwind$?state_case_normal_tchar@?$output_processor@DV?$string_output_adapter@D@__crt_stdio_output@@V?$format_validation_base@DV?$string_output_adapter@D@__crt_stdio_output@@@2@@__crt_stdio_output@@AEAA_ND@Z 0000000180029498     libucrt:output.obj
 0002:00009498       $unwind$__acrt_thread_attach 0000000180029498     libucrt:initialization.obj
 0002:00009498       $unwind$?state_case_size@?$output_processor@DV?$string_output_adapter@D@__crt_stdio_output@@V?$format_validation_base@DV?$string_output_adapter@D@__crt_stdio_output@@@2@@__crt_stdio_output@@AEAA_NXZ 0000000180029498     libucrt:output.obj
 0002:00009498       $unwind$__vcrt_freefls     0000000180029498     libvcruntime:per_thread_data.obj
 0002:00009498       $unwind$??$uninitialize_environment_internal@_W@@YAXAEAPEAPEA_W@Z 0000000180029498     libucrt:environment_initialization.obj
 0002:00009498       $unwind$?dllmain_crt_dispatch@@YAHQEAUHINSTANCE__@@KQEAX@Z 0000000180029498     LIBCMT:dll_dllmain.obj
 0002:00009498       $unwind$__vcrt_uninitialize_ptd 0000000180029498     libvcruntime:per_thread_data.obj
 0002:00009498       $unwind$__vcrt_initialize_ptd 0000000180029498     libvcruntime:per_thread_data.obj
 0002:00009498       $unwind$atexit             0000000180029498     LIBCMT:utility.obj
 0002:00009498       $unwind$_isatty            0000000180029498     libucrt:isatty.obj
 0002:00009498       $unwind$_errno             0000000180029498     libucrt:errno.obj
 0002:00009498       $unwind$__doserrno         0000000180029498     libucrt:errno.obj
 0002:00009498       $unwind$__acrt_initialize_multibyte 0000000180029498     libucrt:mbctype.obj
 0002:00009498       $unwind$__vcrt_thread_detach 0000000180029498     libvcruntime:initialization.obj
 0002:00009498       $unwind$__vcrt_thread_attach 0000000180029498     libvcruntime:initialization.obj
 0002:00009498       $unwind$?state_case_size@?$output_processor@_WV?$string_output_adapter@_W@__crt_stdio_output@@V?$format_validation_base@_WV?$string_output_adapter@_W@__crt_stdio_output@@@2@@__crt_stdio_output@@AEAA_NXZ 0000000180029498     libucrt:output.obj
 0002:00009498       $unwind$__vcrt_uninitialize_critical 0000000180029498     libvcruntime:initialization.obj
 0002:00009498       $unwind$__vcrt_uninitialize 0000000180029498     libvcruntime:initialization.obj
 0002:00009498       $unwind$__vcrt_initialize  0000000180029498     libvcruntime:initialization.obj
 0002:00009498       $unwind$__acrt_initialize_ptd 0000000180029498     libucrt:per_thread_data.obj
 0002:00009498       $unwind$__scrt_acquire_startup_lock 0000000180029498     LIBCMT:utility.obj
 0002:00009498       $unwind$__acrt_initialize_heap 0000000180029498     libucrt:heap_handle.obj
 0002:00009498       $unwind$_set_error_mode    0000000180029498     libucrt:set_error_mode.obj
 0002:00009498       $unwind$__scrt_dllmain_crt_thread_detach 0000000180029498     LIBCMT:utility.obj
 0002:00009498       $unwind$__scrt_dllmain_crt_thread_attach 0000000180029498     LIBCMT:utility.obj
 0002:00009498       $unwind$_msize             0000000180029498     libucrt:msize.obj
 0002:00009498       $unwind$_fileno            0000000180029498     libucrt:fileno.obj
 0002:00009498       $unwind$__scrt_dllmain_uninitialize_c 0000000180029498     LIBCMT:utility.obj
 0002:00009498       $unwind$??R?$less@V?$basic_string@_WU?$char_traits@_W@std@@V?$allocator@_W@2@@std@@@std@@QEBA_NAEBV?$basic_string@_WU?$char_traits@_W@std@@V?$allocator@_W@2@@1@0@Z 0000000180029498     utils.obj
 0002:00009498       $unwind$__scrt_dllmain_uninitialize_critical 0000000180029498     LIBCMT:utility.obj
 0002:00009498       $unwind$__scrt_dllmain_after_initialize_c 0000000180029498     LIBCMT:utility.obj
 0002:00009498       $unwind$__scrt_dllmain_before_initialize_c 0000000180029498     LIBCMT:utility.obj
 0002:00009498       $unwind$?initialize_multibyte@@YAHXZ 0000000180029498     libucrt:multibyte_initializer.obj
 0002:000094a0       $unwind$swprintf           00000001800294a0     libucrt:assert.obj
 0002:000094a0       $unwind$swprintf_s         00000001800294a0     utils.obj
 0002:000094b0       $unwind$__scrt_initialize_crt 00000001800294b0     LIBCMT:utility.obj
 0002:000094b0       $unwind$_fflush_nolock     00000001800294b0     libucrt:fflush.obj
 0002:000094b0       $unwind$__scrt_release_startup_lock 00000001800294b0     LIBCMT:utility.obj
 0002:000094b0       $unwind$??$message_box_wait_thread@_W@@YAKQEAX@Z 00000001800294b0     libucrt:crtmbox.obj
 0002:000094b0       $unwind$__std_exception_destroy 00000001800294b0     libvcruntime:std_exception.obj
 0002:000094b0       $unwind$__std_type_info_destroy_list 00000001800294b0     libvcruntime:std_type_info.obj
 0002:000094b0       $unwind$?WeakCallback@ObjectWrap@node@@CAXAEBV?$WeakCallbackInfo@VObjectWrap@node@@@v8@@@Z 00000001800294b0     disp.obj
 0002:000094b0       $unwind$??1DispObject@@UEAA@XZ 00000001800294b0     disp.obj
 0002:000094b0       $unwind$?Unref@ObjectWrap@node@@MEAAXXZ 00000001800294b0     disp.obj
 0002:000094b0       $unwind$__acrt_initialize_locks 00000001800294b0     libucrt:locks.obj
 0002:000094b0       $unwind$?Ref@ObjectWrap@node@@MEAAXXZ 00000001800294b0     disp.obj
 0002:000094b0       $unwind$__vcrt_initialize_locks 00000001800294b0     libvcruntime:locks.obj
 0002:000094b0       $unwind$_onexit            00000001800294b0     LIBCMT:utility.obj
 0002:000094b0       $unwind$??0?$output_processor@_WV?$string_output_adapter@_W@__crt_stdio_output@@V?$format_validation_base@_WV?$string_output_adapter@_W@__crt_stdio_output@@@2@@__crt_stdio_output@@QEAA@AEBV?$string_output_adapter@_W@1@_KQEB_WQEAU__crt_locale_pointers@@QEAD@Z 00000001800294b0     libucrt:output.obj
 0002:000094b0       $unwind$__vcrt_uninitialize_locks 00000001800294b0     libvcruntime:locks.obj
 0002:000094b0       $unwind$?type_case_integer@?$output_processor@DV?$string_output_adapter@D@__crt_stdio_output@@V?$format_validation_base@DV?$string_output_adapter@D@__crt_stdio_output@@@2@@__crt_stdio_output@@AEAA_NI_N@Z 00000001800294b0     libucrt:output.obj
 0002:000094b0       $unwind$__acrt_uninitialize_locks 00000001800294b0     libucrt:locks.obj
 0002:000094b0       $unwind$?DloadReleaseSectionWriteAccess@@YAXXZ 00000001800294b0     DelayImp:delayhlp.obj
 0002:000094b0       $unwind$__vcrt_freeptd     00000001800294b0     libvcruntime:per_thread_data.obj
 0002:000094b0       $unwind$__scrt_uninitialize_crt 00000001800294b0     LIBCMT:utility.obj
 0002:000094b0       $unwind$?state_case_normal@?$output_processor@DV?$string_output_adapter@D@__crt_stdio_output@@V?$format_validation_base@DV?$string_output_adapter@D@__crt_stdio_output@@@2@@__crt_stdio_output@@AEAA_NXZ 00000001800294b0     libucrt:output.obj
 0002:000094b0       $unwind$??0?$output_processor@DV?$string_output_adapter@D@__crt_stdio_output@@V?$format_validation_base@DV?$string_output_adapter@D@__crt_stdio_output@@@2@@__crt_stdio_output@@QEAA@AEBV?$string_output_adapter@D@1@_KQEBDQEAU__crt_locale_pointers@@QEAD@Z 00000001800294b0     libucrt:output.obj
 0002:000094b0       $unwind$??$_Insert_at@AEAU?$pair@$$CBJV?$shared_ptr@Utype_t@DispInfo@@@std@@@std@@PEAU?$_Tree_node@U?$pair@$$CBJV?$shared_ptr@Utype_t@DispInfo@@@std@@@std@@PEAX@2@@?$_Tree@V?$_Tmap_traits@JV?$shared_ptr@Utype_t@DispInfo@@@std@@U?$less@J@2@V?$allocator@U?$pair@$$CBJV?$shared_ptr@Utype_t@DispInfo@@@std@@@std@@@2@$0A@@std@@@std@@IEAA?AV?$_Tree_iterator@V?$_Tree_val@U?$_Tree_simple_types@U?$pair@$$CBJV?$shared_ptr@Utype_t@DispInfo@@@std@@@std@@@std@@@std@@@1@_NPEAU?$_Tree_node@U?$pair@$$CBJV?$shared_ptr@Utype_t@DispInfo@@@std@@@std@@PEAX@1@AEAU?$pair@$$CBJV?$shared_ptr@Utype_t@DispInfo@@@std@@@1@1@Z 00000001800294b0     utils.obj
 0002:000094b0       $unwind$??0bad_array_new_length@std@@QEAA@AEBV01@@Z 00000001800294b0     LIBCMT:throw_bad_alloc.obj
 0002:000094b0       $unwind$??_G?$_Ref_count@Utype_t@DispInfo@@@std@@UEAAPEAXI@Z 00000001800294b0     utils.obj
 0002:000094b0       $unwind$??2@YAPEAX_K@Z     00000001800294b0     LIBCMT:new_scalar.obj
 0002:000094b0       $unwind$??_G?$_Ref_count@Uname_t@DispObjectImpl@@@std@@UEAAPEAXI@Z 00000001800294b0     utils.obj
 0002:000094b0       $unwind$??_Gtype_info@@UEAAPEAXI@Z 00000001800294b0     LIBCMT:std_type_info_static.obj
 0002:000094b0       $unwind$_purecall          00000001800294b0     libvcruntime:purevirt.obj
 0002:000094b0       $unwind$_clearfp           00000001800294b0     libucrt:ieee.obj
 0002:000094b0       $unwind$_clrfp             00000001800294b0     libucrt:fpctrl.obj
 0002:000094b0       $unwind$?exit_or_terminate_process@@YAXI@Z 00000001800294b0     libucrt:exit.obj
 0002:000094b0       $unwind$__raise_securityfailure 00000001800294b0     LIBCMT:gs_report.obj
 0002:000094b0       $unwind$?type_case_integer@?$output_processor@_WV?$string_output_adapter@_W@__crt_stdio_output@@V?$standard_base@_WV?$string_output_adapter@_W@__crt_stdio_output@@@2@@__crt_stdio_output@@AEAA_NI_N@Z 00000001800294b0     libucrt:output.obj
 0002:000094b0       $unwind$_set_statfp        00000001800294b0     libucrt:fpctrl.obj
 0002:000094b0       $unwind$?type_case_integer@?$output_processor@_WV?$string_output_adapter@_W@__crt_stdio_output@@V?$format_validation_base@_WV?$string_output_adapter@_W@__crt_stdio_output@@@2@@__crt_stdio_output@@AEAA_NI_N@Z 00000001800294b0     libucrt:output.obj
 0002:000094b0       $unwind$??0?$output_processor@_WV?$string_output_adapter@_W@__crt_stdio_output@@V?$standard_base@_WV?$string_output_adapter@_W@__crt_stdio_output@@@2@@__crt_stdio_output@@QEAA@AEBV?$string_output_adapter@_W@1@_KQEB_WQEAU__crt_locale_pointers@@QEAD@Z 00000001800294b0     libucrt:output.obj
 0002:000094b0       $unwind$?_Destroy@?$_Ref_count@Uname_t@DispObjectImpl@@@std@@EEAAXXZ 00000001800294b0     utils.obj
 0002:000094b0       $unwind$__acrt_fp_strflt_to_string 00000001800294b0     libucrt:_fptostr.obj
 0002:000094b0       $unwind$??$_Insert_at@AEAU?$pair@$$CBV?$basic_string@_WU?$char_traits@_W@std@@V?$allocator@_W@2@@std@@V?$shared_ptr@Uname_t@DispObjectImpl@@@2@@std@@PEAU?$_Tree_node@U?$pair@$$CBV?$basic_string@_WU?$char_traits@_W@std@@V?$allocator@_W@2@@std@@V?$shared_ptr@Uname_t@DispObjectImpl@@@2@@std@@PEAX@2@@?$_Tree@V?$_Tmap_traits@V?$basic_string@_WU?$char_traits@_W@std@@V?$allocator@_W@2@@std@@V?$shared_ptr@Uname_t@DispObjectImpl@@@2@U?$less@V?$basic_string@_WU?$char_traits@_W@std@@V?$allocator@_W@2@@std@@@2@V?$allocator@U?$pair@$$CBV?$basic_string@_WU?$char_traits@_W@std@@V?$allocator@_W@2@@std@@V?$shared_ptr@Uname_t@DispObjectImpl@@@2@@std@@@2@$0A@@std@@@std@@IEAA?AV?$_Tree_iterator@V?$_Tree_val@U?$_Tree_simple_types@U?$pair@$$CBV?$basic_string@_WU?$char_traits@_W@std@@V?$allocator@_W@2@@std@@V?$shared_ptr@Uname_t@DispObjectImpl@@@2@@std@@@std@@@std@@@1@_NPEAU?$_Tree_node@U?$pair@$$CBV?$basic_string@_WU?$char_traits@_W@std@@V?$allocator@_W@2@@std@@V?$shared_ptr@Uname_t@DispObjectImpl@@@2@@std@@PEAX@1@AEAU?$pair@$$CBV?$basic_string@_WU?$char_traits@_W@std@@V?$allocator@_W@2@@std@@V?$shared_ptr@Uname_t@DispObjectImpl@@@2@@1@1@Z 00000001800294b0     utils.obj
 0002:000094b0       $unwind$??0out_of_range@std@@QEAA@AEBV01@@Z 00000001800294b0     libcpmt:xthrow.obj
 0002:000094b0       $unwind$?load_exe_hook@@YAP6A_JXZIPEAUDelayLoadInfo@@@Z 00000001800294b0     win_delay_load_hook.obj
 0002:000094b0       $unwind$?type_case_integer@?$output_processor@_WV?$stream_output_adapter@_W@__crt_stdio_output@@V?$standard_base@_WV?$stream_output_adapter@_W@__crt_stdio_output@@@2@@__crt_stdio_output@@AEAA_NI_N@Z 00000001800294b0     libucrt:output.obj
 0002:000094b0       $unwind$??_G_Ref_count_base@std@@UEAAPEAXI@Z 00000001800294b0     utils.obj
 0002:000094b0       $unwind$_setfpstatusword   00000001800294b0     libucrt:_fenvutils.obj
 0002:000094b0       $unwind$??0?$output_processor@_WV?$stream_output_adapter@_W@__crt_stdio_output@@V?$standard_base@_WV?$stream_output_adapter@_W@__crt_stdio_output@@@2@@__crt_stdio_output@@QEAA@AEBV?$stream_output_adapter@_W@1@_KQEB_WQEAU__crt_locale_pointers@@QEAD@Z 00000001800294b0     libucrt:output.obj
 0002:000094b0       $unwind$fesetenv           00000001800294b0     libucrt:fesetenv.obj
 0002:000094b0       $unwind$__acrt_allocate_buffer_for_argv 00000001800294b0     libucrt:argv_parsing.obj
 0002:000094b0       $unwind$??0length_error@std@@QEAA@AEBV01@@Z 00000001800294b0     libcpmt:xthrow.obj
 0002:000094b0       $unwind$feholdexcept       00000001800294b0     libucrt:feholdexcept.obj
 0002:000094b0       $unwind$__acrt_freeptd     00000001800294b0     libucrt:per_thread_data.obj
 0002:000094b0       $unwind$fegetenv           00000001800294b0     libucrt:fegetenv.obj
 0002:000094b0       $unwind$??1?$basic_string@_WU?$char_traits@_W@std@@V?$allocator@_W@2@@std@@QEAA@XZ 00000001800294b0     utils.obj
 0002:000094b0       $unwind$wcscpy_s           00000001800294b0     libucrt:wcscpy_s.obj
 0002:000094b0       $unwind$wcscat_s           00000001800294b0     libucrt:wcscat_s.obj
 0002:000094b0       $unwind$??_G?$UnknownImpl@UIDispatch@@@@UEAAPEAXI@Z 00000001800294b0     utils.obj
 0002:000094b0       $unwind$__acrt_uninitialize_stdio 00000001800294b0     libucrt:_file.obj
 0002:000094b0       $unwind$??0logic_error@std@@QEAA@AEBV01@@Z 00000001800294b0     libcpmt:xthrow.obj
 0002:000094b0       $unwind$_calloc_base       00000001800294b0     libucrt:calloc_base.obj
 0002:000094b0       $unwind$__acrt_uninitialize_winapi_thunks 00000001800294b0     libucrt:winapi_thunks.obj
 0002:000094b0       $unwind$strcpy_s           00000001800294b0     libucrt:strcpy_s.obj
 0002:000094b0       $unwind$??0bad_alloc@std@@QEAA@AEBV01@@Z 00000001800294b0     libcpmt:xthrow.obj
 0002:000094b0       $unwind$initialize_pointers 00000001800294b0     libucrt:initialization.obj
 0002:000094b0       $unwind$??0exception@std@@QEAA@AEBV01@@Z 00000001800294b0     libcpmt:xthrow.obj
 0002:000094b0       $unwind$__acrt_update_locale_info 00000001800294b0     libucrt:locale_update.obj
 0002:000094b0       $unwind$_malloc_base       00000001800294b0     libucrt:malloc_base.obj
 0002:000094b0       $unwind$__acrt_stdio_free_buffer_nolock 00000001800294b0     libucrt:_freebuf.obj
 0002:000094b0       $unwind$??_G?$_Ref_count@VDispInfo@@@std@@UEAAPEAXI@Z 00000001800294b0     utils.obj
 0002:000094b0       $unwind$uninitialize_allocated_memory 00000001800294b0     libucrt:initialization.obj
 0002:000094b0       $unwind$__acrt_can_show_message_box 00000001800294b0     libucrt:winapi_thunks.obj
 0002:000094b0       $unwind$__acrt_update_multibyte_info 00000001800294b0     libucrt:locale_update.obj
 0002:000094b0       $unwind$__acrt_stdio_allocate_buffer_nolock 00000001800294b0     libucrt:_getbuf.obj
 0002:000094b0       $unwind$?_Destroy@?$_Ref_count@VDispInfo@@@std@@EEAAXXZ 00000001800294b0     utils.obj
 0002:000094b0       $unwind$?_Tidy@?$vector@V?$Local@VValue@v8@@@v8@@V?$allocator@V?$Local@VValue@v8@@@v8@@@std@@@std@@IEAAXXZ 00000001800294b0     utils.obj
 0002:000094b8       $unwind$__acrt_get_parent_window 00000001800294b8     libucrt:winapi_thunks.obj
 0002:000094b8       $unwind$_callnewh          00000001800294b8     libucrt:new_handler.obj
 0002:000094b8       $unwind$??_Gexception@std@@UEAAPEAXI@Z 00000001800294b8     libcpmt:xthrow.obj
 0002:000094b8       $unwind$??_Gbad_alloc@std@@UEAAPEAXI@Z 00000001800294b8     libcpmt:xthrow.obj
 0002:000094b8       $unwind$??_Glogic_error@std@@UEAAPEAXI@Z 00000001800294b8     libcpmt:xthrow.obj
 0002:000094b8       $unwind$__acrt_FlsGetValue 00000001800294b8     libucrt:winapi_thunks.obj
 0002:000094b8       $unwind$??_GDispObjectImpl@@UEAAPEAXI@Z 00000001800294b8     utils.obj
 0002:000094b8       $unwind$__acrt_FlsFree     00000001800294b8     libucrt:winapi_thunks.obj
 0002:000094b8       $unwind$__acrt_FlsAlloc    00000001800294b8     libucrt:winapi_thunks.obj
 0002:000094b8       $unwind$??_GDispEnumImpl@@UEAAPEAXI@Z 00000001800294b8     utils.obj
 0002:000094b8       $unwind$??_Glength_error@std@@UEAAPEAXI@Z 00000001800294b8     libcpmt:xthrow.obj
 0002:000094b8       $unwind$??_Gout_of_range@std@@UEAAPEAXI@Z 00000001800294b8     libcpmt:xthrow.obj
 0002:000094b8       $unwind$??$common_xtox@K_W@@YAHKQEA_W_KI_N@Z 00000001800294b8     libucrt:xtoa.obj
 0002:000094b8       $unwind$?try_cor_exit_process@@YAXI@Z 00000001800294b8     libucrt:exit.obj
 0002:000094b8       $unwind$??_Gbad_array_new_length@std@@UEAAPEAXI@Z 00000001800294b8     LIBCMT:throw_bad_alloc.obj
 0002:000094b8       $unwind$?internal_isupper_l@@YA_NHQEAU__crt_locale_pointers@@@Z 00000001800294b8     libucrt:tolower_toupper.obj
 0002:000094b8       $unwind$_fclose_nolock     00000001800294b8     libucrt:fclose.obj
 0002:000094b8       $unwind$?valueOf@DispObject@@IEAAJPEAVIsolate@v8@@AEAUtagVARIANT@@@Z 00000001800294b8     disp.obj
 0002:000094b8       $unwind$__acrt_errno_map_os_error 00000001800294b8     libucrt:errno.obj
 0002:000094b8       $unwind$??_GObjectWrap@node@@UEAAPEAXI@Z 00000001800294b8     disp.obj
 0002:000094b8       $unwind$?v8val2bool@@YA_NAEBV?$Local@VValue@v8@@@v8@@_N@Z 00000001800294b8     disp.obj
 0002:000094b8       $unwind$??_GDispObject@@UEAAPEAXI@Z 00000001800294b8     disp.obj
 0002:000094b8       $unwind$?type_case_c_tchar@?$output_processor@DV?$string_output_adapter@D@__crt_stdio_output@@V?$format_validation_base@DV?$string_output_adapter@D@__crt_stdio_output@@@2@@__crt_stdio_output@@AEAA_ND@Z 00000001800294b8     libucrt:output.obj
 0002:000094b8       $unwind$__vcrt_FlsAlloc    00000001800294b8     libvcruntime:winapi_downlevel.obj
 0002:000094b8       $unwind$?DloadAcquireSectionWriteAccess@@YAXXZ 00000001800294b8     DelayImp:delayhlp.obj
 0002:000094b8       $unwind$__vcrt_FlsFree     00000001800294b8     libvcruntime:winapi_downlevel.obj
 0002:000094b8       $unwind$__vcrt_FlsGetValue 00000001800294b8     libvcruntime:winapi_downlevel.obj
 0002:000094b8       $unwind$_updatetlocinfoEx_nolock 00000001800294b8     libucrt:locale_refcounting.obj
 0002:000094b8       $unwind$??$common_initialize_environment_nolock@D@@YAHXZ 00000001800294b8     libucrt:environment_initialization.obj
 0002:000094b8       $unwind$__acrt_invoke_user_matherr 00000001800294b8     libucrt:matherr.obj
 0002:000094b8       $unwind$?force_decimal_point@__crt_stdio_output@@YAXPEADQEAU__crt_locale_pointers@@@Z 00000001800294b8     libucrt:output.obj
 0002:000094b8       $unwind$__acrt_uninitialize_lowio 00000001800294b8     libucrt:ioinit.obj
 0002:000094b8       $unwind$?DloadGetSRWLockFunctionPointers@@YAEXZ 00000001800294b8     DelayImp:delayhlp.obj
 0002:000094b8       $unwind$?replace_current_thread_locale_nolock@@YAXQEAU__acrt_ptd@@QEAU__crt_locale_data@@@Z 00000001800294b8     libucrt:per_thread_data.obj
 0002:000094b8       $unwind$??0_LocaleUpdate@@QEAA@QEAU__crt_locale_pointers@@@Z 00000001800294b8     libucrt:output.obj
 0002:000094b8       $unwind$?erase@?$basic_string@_WU?$char_traits@_W@std@@V?$allocator@_W@2@@std@@QEAAAEAV12@_K0@Z 00000001800294b8     utils.obj
 0002:000094b8       $unwind$__acrt_getptd      00000001800294b8     libucrt:per_thread_data.obj
 0002:000094b8       $unwind$wcsncat_s          00000001800294b8     libucrt:wcsncat_s.obj
 0002:000094b8       $unwind$_close_nolock      00000001800294b8     libucrt:close.obj
 0002:000094b8       $unwind$strncpy_s          00000001800294b8     libucrt:strncpy_s.obj
 0002:000094b8       $unwind$__acrt_stdio_begin_temporary_buffering_nolock 00000001800294b8     libucrt:_sftbuf.obj
 0002:000094b8       $unwind$_realloc_base      00000001800294b8     libucrt:realloc_base.obj
 0002:000094c4       $unwind$?_Tidy@?$basic_string@_WU?$char_traits@_W@std@@V?$allocator@_W@2@@std@@QEAAX_N_K@Z 00000001800294c4     utils.obj
 0002:000094c4       $unwind$?assign@?$basic_string@_WU?$char_traits@_W@std@@V?$allocator@_W@2@@std@@QEAAAEAV12@PEB_W_K@Z 00000001800294c4     utils.obj
 0002:000094c4       $unwind$?type_case_s@?$output_processor@DV?$string_output_adapter@D@__crt_stdio_output@@V?$format_validation_base@DV?$string_output_adapter@D@__crt_stdio_output@@@2@@__crt_stdio_output@@AEAA_NXZ 00000001800294c4     libucrt:output.obj
 0002:000094c4       $unwind$?type_case_Z@?$output_processor@DV?$string_output_adapter@D@__crt_stdio_output@@V?$format_validation_base@DV?$string_output_adapter@D@__crt_stdio_output@@@2@@__crt_stdio_output@@AEAA_NXZ 00000001800294c4     libucrt:output.obj
 0002:000094c4       $unwind$__vcrt_getptd_noexit 00000001800294c4     libvcruntime:per_thread_data.obj
 0002:000094c4       $unwind$__acrt_stdio_flush_and_write_narrow_nolock 00000001800294c4     libucrt:_flsbuf.obj
 0002:000094c4       $unwind$?Attach@?$CComPtr@UIDispatch@@@@QEAAXPEAUIDispatch@@@Z 00000001800294c4     utils.obj
 0002:000094c4       $unwind$_exception_enabled 00000001800294c4     libucrt:libm_error.obj
 0002:000094c4       $unwind$__acrt_stdio_flush_and_write_wide_nolock 00000001800294c4     libucrt:_flsbuf.obj
 0002:000094c4       $unwind$?type_case_Z@?$output_processor@_WV?$string_output_adapter@_W@__crt_stdio_output@@V?$standard_base@_WV?$string_output_adapter@_W@__crt_stdio_output@@@2@@__crt_stdio_output@@AEAA_NXZ 00000001800294c4     libucrt:output.obj
 0002:000094c4       $unwind$_initterm_e        00000001800294c4     libucrt:initterm.obj
 0002:000094c4       $unwind$?type_case_s@?$output_processor@_WV?$string_output_adapter@_W@__crt_stdio_output@@V?$standard_base@_WV?$string_output_adapter@_W@__crt_stdio_output@@@2@@__crt_stdio_output@@AEAA_NXZ 00000001800294c4     libucrt:output.obj
 0002:000094c4       $unwind$__acrt_execute_uninitializers 00000001800294c4     libucrt:shared_initialization.obj
 0002:000094c4       $unwind$__acrt_getptd_noexit 00000001800294c4     libucrt:per_thread_data.obj
 0002:000094c4       $unwind$?type_case_n@?$output_processor@DV?$string_output_adapter@D@__crt_stdio_output@@V?$format_validation_base@DV?$string_output_adapter@D@__crt_stdio_output@@@2@@__crt_stdio_output@@AEAA_NXZ 00000001800294c4     libucrt:output.obj
 0002:000094c4       $unwind$__acrt_LocaleNameToLCID 00000001800294c4     libucrt:winapi_thunks.obj
 0002:000094c4       $unwind$?type_case_n@?$output_processor@_WV?$string_output_adapter@_W@__crt_stdio_output@@V?$standard_base@_WV?$string_output_adapter@_W@__crt_stdio_output@@@2@@__crt_stdio_output@@AEAA_NXZ 00000001800294c4     libucrt:output.obj
 0002:000094c4       $unwind$?type_case_Z@?$output_processor@_WV?$string_output_adapter@_W@__crt_stdio_output@@V?$format_validation_base@_WV?$string_output_adapter@_W@__crt_stdio_output@@@2@@__crt_stdio_output@@AEAA_NXZ 00000001800294c4     libucrt:output.obj
 0002:000094c4       $unwind$?type_case_s@?$output_processor@_WV?$string_output_adapter@_W@__crt_stdio_output@@V?$format_validation_base@_WV?$string_output_adapter@_W@__crt_stdio_output@@@2@@__crt_stdio_output@@AEAA_NXZ 00000001800294c4     libucrt:output.obj
 0002:000094c4       $unwind$__acrt_stdio_flush_nolock 00000001800294c4     libucrt:fflush.obj
 0002:000094c4       $unwind$??R<lambda_ad1ced32f4ac17aa236e5ef05d6b3b7c>@@QEBAXXZ 00000001800294c4     libucrt:mbctype.obj
 0002:000094c4       $unwind$__vcrt_FlsSetValue 00000001800294c4     libvcruntime:winapi_downlevel.obj
 0002:000094c4       $unwind$memcpy_s           00000001800294c4     libucrt:cfout.obj
 0002:000094c4       $unwind$?free_crt_array_internal@@YAXQEAPEBX_K@Z 00000001800294c4     libucrt:inittime.obj
 0002:000094c4       $unwind$??0DispObjectImpl@@QEAA@AEBV?$Local@VObject@v8@@@v8@@@Z 00000001800294c4     utils.obj
 0002:000094c4       $unwind$??$common_lseek_nolock@_J@@YA_JH_JH@Z 00000001800294c4     libucrt:lseek.obj
 0002:000094c4       $unwind$_RTC_Initialize    00000001800294c4     LIBCMT:_initsect_.obj
 0002:000094c4       $unwind$?type_case_n@?$output_processor@_WV?$string_output_adapter@_W@__crt_stdio_output@@V?$format_validation_base@_WV?$string_output_adapter@_W@__crt_stdio_output@@@2@@__crt_stdio_output@@AEAA_NXZ 00000001800294c4     libucrt:output.obj
 0002:000094c4       $unwind$_RTC_Terminate     00000001800294c4     LIBCMT:_initsect_.obj
 0002:000094c4       $unwind$?type_case_Z@?$output_processor@_WV?$stream_output_adapter@_W@__crt_stdio_output@@V?$standard_base@_WV?$stream_output_adapter@_W@__crt_stdio_output@@@2@@__crt_stdio_output@@AEAA_NXZ 00000001800294c4     libucrt:output.obj
 0002:000094c4       $unwind$__acrt_FlsSetValue 00000001800294c4     libucrt:winapi_thunks.obj
 0002:000094c4       $unwind$?type_case_s@?$output_processor@_WV?$stream_output_adapter@_W@__crt_stdio_output@@V?$standard_base@_WV?$stream_output_adapter@_W@__crt_stdio_output@@@2@@__crt_stdio_output@@AEAA_NXZ 00000001800294c4     libucrt:output.obj
 0002:000094c4       $unwind$?type_case_n@?$output_processor@_WV?$stream_output_adapter@_W@__crt_stdio_output@@V?$standard_base@_WV?$stream_output_adapter@_W@__crt_stdio_output@@@2@@__crt_stdio_output@@AEAA_NXZ 00000001800294c4     libucrt:output.obj
 0002:000094c4       $unwind$_DllMainCRTStartup 00000001800294c4     LIBCMT:dll_dllmain.obj
 0002:000094d4       $unwind$??1DispInfo@@QEAA@XZ 00000001800294d4     utils.obj
 0002:000094d4       $unwind$iswctype           00000001800294d4     libucrt:iswctype.obj
 0002:000094d4       $unwind$__acrt_is_packaged_app 00000001800294d4     libucrt:winapi_thunks.obj
 0002:000094d4       $unwind$?reserve@?$basic_string@_WU?$char_traits@_W@std@@V?$allocator@_W@2@@std@@QEAAX_K@Z 00000001800294d4     disp.obj
 0002:000094d4       $unwind$??1DispObjectImpl@@UEAA@XZ 00000001800294d4     utils.obj
 0002:000094d4       $unwind$?resize@?$vector@V?$Local@VValue@v8@@@v8@@V?$allocator@V?$Local@VValue@v8@@@v8@@@std@@@std@@QEAAX_K@Z 00000001800294d4     utils.obj
 0002:000094d4       $unwind$?UnknownDispGet@@YA_NPEAUIUnknown@@PEAPEAUIDispatch@@@Z 00000001800294d4     utils.obj
 0002:000094e0       $unwind$?_Reallocate@?$vector@V?$Local@VValue@v8@@@v8@@V?$allocator@V?$Local@VValue@v8@@@v8@@@std@@@std@@IEAAX_K@Z 00000001800294e0     utils.obj
 0002:000094e0       $unwind$??0DispInfo@@QEAA@PEAUIDispatch@@AEBV?$basic_string@_WU?$char_traits@_W@std@@V?$allocator@_W@2@@std@@HPEAV?$shared_ptr@VDispInfo@@@3@@Z 00000001800294e0     utils.obj
 0002:000094f8       $unwind$?NodeCreate@DispObject@@SA?AV?$Local@VObject@v8@@@v8@@PEAVIsolate@3@PEAUIDispatch@@AEBV?$basic_string@_WU?$char_traits@_W@std@@V?$allocator@_W@2@@std@@H@Z 00000001800294f8     utils.obj
 0002:00009514       $unwind$?GetWin32ErroroMessage@@YA?AV?$Local@VString@v8@@@v8@@PEAVIsolate@2@JPEB_W11@Z 0000000180029514     utils.obj
 0002:00009534       $unwind$?Variant2Array@@YA?AV?$Local@VValue@v8@@@v8@@PEAVIsolate@2@AEBUtagVARIANT@@@Z 0000000180029534     utils.obj
 0002:00009544       $chain$1$?Variant2Array@@YA?AV?$Local@VValue@v8@@@v8@@PEAVIsolate@2@AEBUtagVARIANT@@@Z 0000000180029544     utils.obj
 0002:00009558       $chain$2$?Variant2Array@@YA?AV?$Local@VValue@v8@@@v8@@PEAVIsolate@2@AEBUtagVARIANT@@@Z 0000000180029558     utils.obj
 0002:0000956c       $chain$3$?Variant2Array@@YA?AV?$Local@VValue@v8@@@v8@@PEAVIsolate@2@AEBUtagVARIANT@@@Z 000000018002956c     utils.obj
 0002:0000957c       $chain$4$?Variant2Array@@YA?AV?$Local@VValue@v8@@@v8@@PEAVIsolate@2@AEBUtagVARIANT@@@Z 000000018002957c     utils.obj
 0002:0000958c       $unwind$?Variant2Value@@YA?AV?$Local@VValue@v8@@@v8@@PEAVIsolate@2@AEBUtagVARIANT@@_N@Z 000000018002958c     utils.obj
 0002:000095a4       $chain$0$?Variant2Value@@YA?AV?$Local@VValue@v8@@@v8@@PEAVIsolate@2@AEBUtagVARIANT@@_N@Z 00000001800295a4     utils.obj
 0002:000095b8       $chain$1$?Variant2Value@@YA?AV?$Local@VValue@v8@@@v8@@PEAVIsolate@2@AEBUtagVARIANT@@_N@Z 00000001800295b8     utils.obj
 0002:000095c8       $chain$2$?Variant2Value@@YA?AV?$Local@VValue@v8@@@v8@@PEAVIsolate@2@AEBUtagVARIANT@@_N@Z 00000001800295c8     utils.obj
 0002:000095dc       $unwind$?Variant2String@@YA?AV?$Local@VValue@v8@@@v8@@PEAVIsolate@2@AEBUtagVARIANT@@@Z 00000001800295dc     utils.obj
 0002:000095f8       $unwind$?Value2Variant@@YAXPEAVIsolate@v8@@AEAV?$Local@VValue@v8@@@2@AEAUtagVARIANT@@@Z 00000001800295f8     utils.obj
 0002:00009608       $unwind$?Invoke@DispEnumImpl@@UEAAJJAEBU_GUID@@KGPEAUtagDISPPARAMS@@PEAUtagVARIANT@@PEAUtagEXCEPINFO@@PEAI@Z 0000000180029608     utils.obj
 0002:0000961c       $unwind$?GetIDsOfNames@DispObjectImpl@@UEAAJAEBU_GUID@@PEAPEA_WIKPEAJ@Z 000000018002961c     utils.obj
 0002:00009630       $chain$2$?GetIDsOfNames@DispObjectImpl@@UEAAJAEBU_GUID@@PEAPEA_WIKPEAJ@Z 0000000180029630     utils.obj
 0002:0000964c       $chain$3$?GetIDsOfNames@DispObjectImpl@@UEAAJAEBU_GUID@@PEAPEA_WIKPEAJ@Z 000000018002964c     utils.obj
 0002:00009660       $chain$4$?GetIDsOfNames@DispObjectImpl@@UEAAJAEBU_GUID@@PEAPEA_WIKPEAJ@Z 0000000180029660     utils.obj
 0002:00009670       $chain$5$?GetIDsOfNames@DispObjectImpl@@UEAAJAEBU_GUID@@PEAPEA_WIKPEAJ@Z 0000000180029670     utils.obj
 0002:00009680       $unwind$?Invoke@DispObjectImpl@@UEAAJJAEBU_GUID@@KGPEAUtagDISPPARAMS@@PEAUtagVARIANT@@PEAUtagEXCEPINFO@@PEAI@Z 0000000180029680     utils.obj
 0002:00009694       $chain$0$?Invoke@DispObjectImpl@@UEAAJJAEBU_GUID@@KGPEAUtagDISPPARAMS@@PEAUtagVARIANT@@PEAUtagEXCEPINFO@@PEAI@Z 0000000180029694     utils.obj
 0002:000096a8       $chain$0$?resize@?$vector@V?$Local@VValue@v8@@@v8@@V?$allocator@V?$Local@VValue@v8@@@v8@@@std@@@std@@QEAAX_K@Z 00000001800296a8     utils.obj
 0002:000096bc       $chain$1$?resize@?$vector@V?$Local@VValue@v8@@@v8@@V?$allocator@V?$Local@VValue@v8@@@v8@@@std@@@std@@QEAAX_K@Z 00000001800296bc     utils.obj
 0002:000096cc       $chain$2$?resize@?$vector@V?$Local@VValue@v8@@@v8@@V?$allocator@V?$Local@VValue@v8@@@v8@@@std@@@std@@QEAAX_K@Z 00000001800296cc     utils.obj
 0002:000096e0       $unwind$?initialize_stdio_handles_nolock@@YAXXZ 00000001800296e0     libucrt:ioinit.obj
 0002:000096e0       $unwind$?assign@?$basic_string@_WU?$char_traits@_W@std@@V?$allocator@_W@2@@std@@QEAAAEAV12@AEBV12@_K1@Z 00000001800296e0     utils.obj
 0002:000096e0       $unwind$_free_osfhnd       00000001800296e0     libucrt:osfinfo.obj
 0002:000096e0       $unwind$__std_exception_copy 00000001800296e0     libvcruntime:std_exception.obj
 0002:000096e0       $unwind$??$_Insert_at@U?$pair@$$CBJV?$shared_ptr@Uname_t@DispObjectImpl@@@std@@@std@@U_Nil@2@@?$_Tree@V?$_Tmap_traits@JV?$shared_ptr@Uname_t@DispObjectImpl@@@std@@U?$less@J@2@V?$allocator@U?$pair@$$CBJV?$shared_ptr@Uname_t@DispObjectImpl@@@std@@@std@@@2@$0A@@std@@@std@@IEAA?AV?$_Tree_iterator@V?$_Tree_val@U?$_Tree_simple_types@U?$pair@$$CBJV?$shared_ptr@Uname_t@DispObjectImpl@@@std@@@std@@@std@@@std@@@1@_NPEAU?$_Tree_node@U?$pair@$$CBJV?$shared_ptr@Uname_t@DispObjectImpl@@@std@@@std@@PEAX@1@$$QEAU?$pair@$$CBJV?$shared_ptr@Uname_t@DispObjectImpl@@@std@@@1@U_Nil@1@@Z 00000001800296e0     utils.obj
 0002:000096f4       $unwind$?erase@?$_Tree@V?$_Tmap_traits@JV?$shared_ptr@Uname_t@DispObjectImpl@@@std@@U?$less@J@2@V?$allocator@U?$pair@$$CBJV?$shared_ptr@Uname_t@DispObjectImpl@@@std@@@std@@@2@$0A@@std@@@std@@QEAA?AV?$_Tree_iterator@V?$_Tree_val@U?$_Tree_simple_types@U?$pair@$$CBJV?$shared_ptr@Uname_t@DispObjectImpl@@@std@@@std@@@std@@@std@@@2@V?$_Tree_const_iterator@V?$_Tree_val@U?$_Tree_simple_types@U?$pair@$$CBJV?$shared_ptr@Uname_t@DispObjectImpl@@@std@@@std@@@std@@@std@@@2@0@Z 00000001800296f4     utils.obj
 0002:000096f4       $unwind$?erase@?$_Tree@V?$_Tmap_traits@V?$basic_string@_WU?$char_traits@_W@std@@V?$allocator@_W@2@@std@@V?$shared_ptr@Uname_t@DispObjectImpl@@@2@U?$less@V?$basic_string@_WU?$char_traits@_W@std@@V?$allocator@_W@2@@std@@@2@V?$allocator@U?$pair@$$CBV?$basic_string@_WU?$char_traits@_W@std@@V?$allocator@_W@2@@std@@V?$shared_ptr@Uname_t@DispObjectImpl@@@2@@std@@@2@$0A@@std@@@std@@QEAA?AV?$_Tree_iterator@V?$_Tree_val@U?$_Tree_simple_types@U?$pair@$$CBV?$basic_string@_WU?$char_traits@_W@std@@V?$allocator@_W@2@@std@@V?$shared_ptr@Uname_t@DispObjectImpl@@@2@@std@@@std@@@std@@@2@V?$_Tree_const_iterator@V?$_Tree_val@U?$_Tree_simple_types@U?$pair@$$CBV?$basic_string@_WU?$char_traits@_W@std@@V?$allocator@_W@2@@std@@V?$shared_ptr@Uname_t@DispObjectImpl@@@2@@std@@@std@@@std@@@2@0@Z 00000001800296f4     utils.obj
 0002:000096f4       $unwind$?erase@?$_Tree@V?$_Tmap_traits@JV?$shared_ptr@Utype_t@DispInfo@@@std@@U?$less@J@2@V?$allocator@U?$pair@$$CBJV?$shared_ptr@Utype_t@DispInfo@@@std@@@std@@@2@$0A@@std@@@std@@QEAA?AV?$_Tree_iterator@V?$_Tree_val@U?$_Tree_simple_types@U?$pair@$$CBJV?$shared_ptr@Utype_t@DispInfo@@@std@@@std@@@std@@@std@@@2@V?$_Tree_const_iterator@V?$_Tree_val@U?$_Tree_simple_types@U?$pair@$$CBJV?$shared_ptr@Utype_t@DispInfo@@@std@@@std@@@std@@@std@@@2@0@Z 00000001800296f4     utils.obj
 0002:00009700       $unwind$?erase@?$_Tree@V?$_Tmap_traits@JV?$shared_ptr@Uname_t@DispObjectImpl@@@std@@U?$less@J@2@V?$allocator@U?$pair@$$CBJV?$shared_ptr@Uname_t@DispObjectImpl@@@std@@@std@@@2@$0A@@std@@@std@@QEAA?AV?$_Tree_iterator@V?$_Tree_val@U?$_Tree_simple_types@U?$pair@$$CBJV?$shared_ptr@Uname_t@DispObjectImpl@@@std@@@std@@@std@@@std@@@2@V?$_Tree_const_iterator@V?$_Tree_val@U?$_Tree_simple_types@U?$pair@$$CBJV?$shared_ptr@Uname_t@DispObjectImpl@@@std@@@std@@@std@@@std@@@2@@Z 0000000180029700     utils.obj
 0002:00009700       $unwind$?erase@?$_Tree@V?$_Tmap_traits@JV?$shared_ptr@Utype_t@DispInfo@@@std@@U?$less@J@2@V?$allocator@U?$pair@$$CBJV?$shared_ptr@Utype_t@DispInfo@@@std@@@std@@@2@$0A@@std@@@std@@QEAA?AV?$_Tree_iterator@V?$_Tree_val@U?$_Tree_simple_types@U?$pair@$$CBJV?$shared_ptr@Utype_t@DispInfo@@@std@@@std@@@std@@@std@@@2@V?$_Tree_const_iterator@V?$_Tree_val@U?$_Tree_simple_types@U?$pair@$$CBJV?$shared_ptr@Utype_t@DispInfo@@@std@@@std@@@std@@@std@@@2@@Z 0000000180029700     utils.obj
 0002:0000970c       $chain$1$?erase@?$_Tree@V?$_Tmap_traits@JV?$shared_ptr@Utype_t@DispInfo@@@std@@U?$less@J@2@V?$allocator@U?$pair@$$CBJV?$shared_ptr@Utype_t@DispInfo@@@std@@@std@@@2@$0A@@std@@@std@@QEAA?AV?$_Tree_iterator@V?$_Tree_val@U?$_Tree_simple_types@U?$pair@$$CBJV?$shared_ptr@Utype_t@DispInfo@@@std@@@std@@@std@@@std@@@2@V?$_Tree_const_iterator@V?$_Tree_val@U?$_Tree_simple_types@U?$pair@$$CBJV?$shared_ptr@Utype_t@DispInfo@@@std@@@std@@@std@@@std@@@2@@Z 000000018002970c     utils.obj
 0002:0000970c       $chain$1$?erase@?$_Tree@V?$_Tmap_traits@JV?$shared_ptr@Uname_t@DispObjectImpl@@@std@@U?$less@J@2@V?$allocator@U?$pair@$$CBJV?$shared_ptr@Uname_t@DispObjectImpl@@@std@@@std@@@2@$0A@@std@@@std@@QEAA?AV?$_Tree_iterator@V?$_Tree_val@U?$_Tree_simple_types@U?$pair@$$CBJV?$shared_ptr@Uname_t@DispObjectImpl@@@std@@@std@@@std@@@std@@@2@V?$_Tree_const_iterator@V?$_Tree_val@U?$_Tree_simple_types@U?$pair@$$CBJV?$shared_ptr@Uname_t@DispObjectImpl@@@std@@@std@@@std@@@std@@@2@@Z 000000018002970c     utils.obj
 0002:00009724       $chain$2$?erase@?$_Tree@V?$_Tmap_traits@JV?$shared_ptr@Uname_t@DispObjectImpl@@@std@@U?$less@J@2@V?$allocator@U?$pair@$$CBJV?$shared_ptr@Uname_t@DispObjectImpl@@@std@@@std@@@2@$0A@@std@@@std@@QEAA?AV?$_Tree_iterator@V?$_Tree_val@U?$_Tree_simple_types@U?$pair@$$CBJV?$shared_ptr@Uname_t@DispObjectImpl@@@std@@@std@@@std@@@std@@@2@V?$_Tree_const_iterator@V?$_Tree_val@U?$_Tree_simple_types@U?$pair@$$CBJV?$shared_ptr@Uname_t@DispObjectImpl@@@std@@@std@@@std@@@std@@@2@@Z 0000000180029724     utils.obj
 0002:00009724       $chain$2$?erase@?$_Tree@V?$_Tmap_traits@JV?$shared_ptr@Utype_t@DispInfo@@@std@@U?$less@J@2@V?$allocator@U?$pair@$$CBJV?$shared_ptr@Utype_t@DispInfo@@@std@@@std@@@2@$0A@@std@@@std@@QEAA?AV?$_Tree_iterator@V?$_Tree_val@U?$_Tree_simple_types@U?$pair@$$CBJV?$shared_ptr@Utype_t@DispInfo@@@std@@@std@@@std@@@std@@@2@V?$_Tree_const_iterator@V?$_Tree_val@U?$_Tree_simple_types@U?$pair@$$CBJV?$shared_ptr@Utype_t@DispInfo@@@std@@@std@@@std@@@std@@@2@@Z 0000000180029724     utils.obj
 0002:00009738       $chain$3$?erase@?$_Tree@V?$_Tmap_traits@JV?$shared_ptr@Utype_t@DispInfo@@@std@@U?$less@J@2@V?$allocator@U?$pair@$$CBJV?$shared_ptr@Utype_t@DispInfo@@@std@@@std@@@2@$0A@@std@@@std@@QEAA?AV?$_Tree_iterator@V?$_Tree_val@U?$_Tree_simple_types@U?$pair@$$CBJV?$shared_ptr@Utype_t@DispInfo@@@std@@@std@@@std@@@std@@@2@V?$_Tree_const_iterator@V?$_Tree_val@U?$_Tree_simple_types@U?$pair@$$CBJV?$shared_ptr@Utype_t@DispInfo@@@std@@@std@@@std@@@std@@@2@@Z 0000000180029738     utils.obj
 0002:00009738       $chain$3$?erase@?$_Tree@V?$_Tmap_traits@JV?$shared_ptr@Uname_t@DispObjectImpl@@@std@@U?$less@J@2@V?$allocator@U?$pair@$$CBJV?$shared_ptr@Uname_t@DispObjectImpl@@@std@@@std@@@2@$0A@@std@@@std@@QEAA?AV?$_Tree_iterator@V?$_Tree_val@U?$_Tree_simple_types@U?$pair@$$CBJV?$shared_ptr@Uname_t@DispObjectImpl@@@std@@@std@@@std@@@std@@@2@V?$_Tree_const_iterator@V?$_Tree_val@U?$_Tree_simple_types@U?$pair@$$CBJV?$shared_ptr@Uname_t@DispObjectImpl@@@std@@@std@@@std@@@std@@@2@@Z 0000000180029738     utils.obj
 0002:00009748       $chain$4$?erase@?$_Tree@V?$_Tmap_traits@JV?$shared_ptr@Uname_t@DispObjectImpl@@@std@@U?$less@J@2@V?$allocator@U?$pair@$$CBJV?$shared_ptr@Uname_t@DispObjectImpl@@@std@@@std@@@2@$0A@@std@@@std@@QEAA?AV?$_Tree_iterator@V?$_Tree_val@U?$_Tree_simple_types@U?$pair@$$CBJV?$shared_ptr@Uname_t@DispObjectImpl@@@std@@@std@@@std@@@std@@@2@V?$_Tree_const_iterator@V?$_Tree_val@U?$_Tree_simple_types@U?$pair@$$CBJV?$shared_ptr@Uname_t@DispObjectImpl@@@std@@@std@@@std@@@std@@@2@@Z 0000000180029748     utils.obj
 0002:00009748       $chain$4$?erase@?$_Tree@V?$_Tmap_traits@JV?$shared_ptr@Utype_t@DispInfo@@@std@@U?$less@J@2@V?$allocator@U?$pair@$$CBJV?$shared_ptr@Utype_t@DispInfo@@@std@@@std@@@2@$0A@@std@@@std@@QEAA?AV?$_Tree_iterator@V?$_Tree_val@U?$_Tree_simple_types@U?$pair@$$CBJV?$shared_ptr@Utype_t@DispInfo@@@std@@@std@@@std@@@std@@@2@V?$_Tree_const_iterator@V?$_Tree_val@U?$_Tree_simple_types@U?$pair@$$CBJV?$shared_ptr@Utype_t@DispInfo@@@std@@@std@@@std@@@std@@@2@@Z 0000000180029748     utils.obj
 0002:00009758       $unwind$?erase@?$_Tree@V?$_Tmap_traits@V?$basic_string@_WU?$char_traits@_W@std@@V?$allocator@_W@2@@std@@V?$shared_ptr@Uname_t@DispObjectImpl@@@2@U?$less@V?$basic_string@_WU?$char_traits@_W@std@@V?$allocator@_W@2@@std@@@2@V?$allocator@U?$pair@$$CBV?$basic_string@_WU?$char_traits@_W@std@@V?$allocator@_W@2@@std@@V?$shared_ptr@Uname_t@DispObjectImpl@@@2@@std@@@2@$0A@@std@@@std@@QEAA?AV?$_Tree_iterator@V?$_Tree_val@U?$_Tree_simple_types@U?$pair@$$CBV?$basic_string@_WU?$char_traits@_W@std@@V?$allocator@_W@2@@std@@V?$shared_ptr@Uname_t@DispObjectImpl@@@2@@std@@@std@@@std@@@2@V?$_Tree_const_iterator@V?$_Tree_val@U?$_Tree_simple_types@U?$pair@$$CBV?$basic_string@_WU?$char_traits@_W@std@@V?$allocator@_W@2@@std@@V?$shared_ptr@Uname_t@DispObjectImpl@@@2@@std@@@std@@@std@@@2@@Z 0000000180029758     utils.obj
 0002:00009768       $chain$0$?erase@?$_Tree@V?$_Tmap_traits@V?$basic_string@_WU?$char_traits@_W@std@@V?$allocator@_W@2@@std@@V?$shared_ptr@Uname_t@DispObjectImpl@@@2@U?$less@V?$basic_string@_WU?$char_traits@_W@std@@V?$allocator@_W@2@@std@@@2@V?$allocator@U?$pair@$$CBV?$basic_string@_WU?$char_traits@_W@std@@V?$allocator@_W@2@@std@@V?$shared_ptr@Uname_t@DispObjectImpl@@@2@@std@@@2@$0A@@std@@@std@@QEAA?AV?$_Tree_iterator@V?$_Tree_val@U?$_Tree_simple_types@U?$pair@$$CBV?$basic_string@_WU?$char_traits@_W@std@@V?$allocator@_W@2@@std@@V?$shared_ptr@Uname_t@DispObjectImpl@@@2@@std@@@std@@@std@@@2@V?$_Tree_const_iterator@V?$_Tree_val@U?$_Tree_simple_types@U?$pair@$$CBV?$basic_string@_WU?$char_traits@_W@std@@V?$allocator@_W@2@@std@@V?$shared_ptr@Uname_t@DispObjectImpl@@@2@@std@@@std@@@std@@@2@@Z 0000000180029768     utils.obj
 0002:0000977c       $chain$1$?erase@?$_Tree@V?$_Tmap_traits@V?$basic_string@_WU?$char_traits@_W@std@@V?$allocator@_W@2@@std@@V?$shared_ptr@Uname_t@DispObjectImpl@@@2@U?$less@V?$basic_string@_WU?$char_traits@_W@std@@V?$allocator@_W@2@@std@@@2@V?$allocator@U?$pair@$$CBV?$basic_string@_WU?$char_traits@_W@std@@V?$allocator@_W@2@@std@@V?$shared_ptr@Uname_t@DispObjectImpl@@@2@@std@@@2@$0A@@std@@@std@@QEAA?AV?$_Tree_iterator@V?$_Tree_val@U?$_Tree_simple_types@U?$pair@$$CBV?$basic_string@_WU?$char_traits@_W@std@@V?$allocator@_W@2@@std@@V?$shared_ptr@Uname_t@DispObjectImpl@@@2@@std@@@std@@@std@@@2@V?$_Tree_const_iterator@V?$_Tree_val@U?$_Tree_simple_types@U?$pair@$$CBV?$basic_string@_WU?$char_traits@_W@std@@V?$allocator@_W@2@@std@@V?$shared_ptr@Uname_t@DispObjectImpl@@@2@@std@@@std@@@std@@@2@@Z 000000018002977c     utils.obj
 0002:00009790       $chain$2$?erase@?$_Tree@V?$_Tmap_traits@V?$basic_string@_WU?$char_traits@_W@std@@V?$allocator@_W@2@@std@@V?$shared_ptr@Uname_t@DispObjectImpl@@@2@U?$less@V?$basic_string@_WU?$char_traits@_W@std@@V?$allocator@_W@2@@std@@@2@V?$allocator@U?$pair@$$CBV?$basic_string@_WU?$char_traits@_W@std@@V?$allocator@_W@2@@std@@V?$shared_ptr@Uname_t@DispObjectImpl@@@2@@std@@@2@$0A@@std@@@std@@QEAA?AV?$_Tree_iterator@V?$_Tree_val@U?$_Tree_simple_types@U?$pair@$$CBV?$basic_string@_WU?$char_traits@_W@std@@V?$allocator@_W@2@@std@@V?$shared_ptr@Uname_t@DispObjectImpl@@@2@@std@@@std@@@std@@@2@V?$_Tree_const_iterator@V?$_Tree_val@U?$_Tree_simple_types@U?$pair@$$CBV?$basic_string@_WU?$char_traits@_W@std@@V?$allocator@_W@2@@std@@V?$shared_ptr@Uname_t@DispObjectImpl@@@2@@std@@@std@@@std@@@2@@Z 0000000180029790     utils.obj
 0002:000097a0       $chain$3$?erase@?$_Tree@V?$_Tmap_traits@V?$basic_string@_WU?$char_traits@_W@std@@V?$allocator@_W@2@@std@@V?$shared_ptr@Uname_t@DispObjectImpl@@@2@U?$less@V?$basic_string@_WU?$char_traits@_W@std@@V?$allocator@_W@2@@std@@@2@V?$allocator@U?$pair@$$CBV?$basic_string@_WU?$char_traits@_W@std@@V?$allocator@_W@2@@std@@V?$shared_ptr@Uname_t@DispObjectImpl@@@2@@std@@@2@$0A@@std@@@std@@QEAA?AV?$_Tree_iterator@V?$_Tree_val@U?$_Tree_simple_types@U?$pair@$$CBV?$basic_string@_WU?$char_traits@_W@std@@V?$allocator@_W@2@@std@@V?$shared_ptr@Uname_t@DispObjectImpl@@@2@@std@@@std@@@std@@@2@V?$_Tree_const_iterator@V?$_Tree_val@U?$_Tree_simple_types@U?$pair@$$CBV?$basic_string@_WU?$char_traits@_W@std@@V?$allocator@_W@2@@std@@V?$shared_ptr@Uname_t@DispObjectImpl@@@2@@std@@@std@@@std@@@2@@Z 00000001800297a0     utils.obj
 0002:000097b0       $unwind$?_Copy@?$basic_string@_WU?$char_traits@_W@std@@V?$allocator@_W@2@@std@@QEAAX_K0@Z 00000001800297b0     utils.obj
 0002:000097c8       $unwind$?_Erase@?$_Tree@V?$_Tmap_traits@JV?$shared_ptr@Uname_t@DispObjectImpl@@@std@@U?$less@J@2@V?$allocator@U?$pair@$$CBJV?$shared_ptr@Uname_t@DispObjectImpl@@@std@@@std@@@2@$0A@@std@@@std@@IEAAXPEAU?$_Tree_node@U?$pair@$$CBJV?$shared_ptr@Uname_t@DispObjectImpl@@@std@@@std@@PEAX@2@@Z 00000001800297c8     utils.obj
 0002:000097c8       $unwind$?_Erase@?$_Tree@V?$_Tmap_traits@JV?$shared_ptr@Utype_t@DispInfo@@@std@@U?$less@J@2@V?$allocator@U?$pair@$$CBJV?$shared_ptr@Utype_t@DispInfo@@@std@@@std@@@2@$0A@@std@@@std@@IEAAXPEAU?$_Tree_node@U?$pair@$$CBJV?$shared_ptr@Utype_t@DispInfo@@@std@@@std@@PEAX@2@@Z 00000001800297c8     utils.obj
 0002:000097d8       $chain$0$?_Erase@?$_Tree@V?$_Tmap_traits@JV?$shared_ptr@Uname_t@DispObjectImpl@@@std@@U?$less@J@2@V?$allocator@U?$pair@$$CBJV?$shared_ptr@Uname_t@DispObjectImpl@@@std@@@std@@@2@$0A@@std@@@std@@IEAAXPEAU?$_Tree_node@U?$pair@$$CBJV?$shared_ptr@Uname_t@DispObjectImpl@@@std@@@std@@PEAX@2@@Z 00000001800297d8     utils.obj
 0002:000097d8       $chain$0$?_Erase@?$_Tree@V?$_Tmap_traits@JV?$shared_ptr@Utype_t@DispInfo@@@std@@U?$less@J@2@V?$allocator@U?$pair@$$CBJV?$shared_ptr@Utype_t@DispInfo@@@std@@@std@@@2@$0A@@std@@@std@@IEAAXPEAU?$_Tree_node@U?$pair@$$CBJV?$shared_ptr@Utype_t@DispInfo@@@std@@@std@@PEAX@2@@Z 00000001800297d8     utils.obj
 0002:000097ec       $chain$1$?_Erase@?$_Tree@V?$_Tmap_traits@JV?$shared_ptr@Uname_t@DispObjectImpl@@@std@@U?$less@J@2@V?$allocator@U?$pair@$$CBJV?$shared_ptr@Uname_t@DispObjectImpl@@@std@@@std@@@2@$0A@@std@@@std@@IEAAXPEAU?$_Tree_node@U?$pair@$$CBJV?$shared_ptr@Uname_t@DispObjectImpl@@@std@@@std@@PEAX@2@@Z 00000001800297ec     utils.obj
 0002:000097ec       $chain$1$?_Erase@?$_Tree@V?$_Tmap_traits@JV?$shared_ptr@Utype_t@DispInfo@@@std@@U?$less@J@2@V?$allocator@U?$pair@$$CBJV?$shared_ptr@Utype_t@DispInfo@@@std@@@std@@@2@$0A@@std@@@std@@IEAAXPEAU?$_Tree_node@U?$pair@$$CBJV?$shared_ptr@Utype_t@DispInfo@@@std@@@std@@PEAX@2@@Z 00000001800297ec     utils.obj
 0002:000097fc       $unwind$?_Erase@?$_Tree@V?$_Tmap_traits@V?$basic_string@_WU?$char_traits@_W@std@@V?$allocator@_W@2@@std@@V?$shared_ptr@Uname_t@DispObjectImpl@@@2@U?$less@V?$basic_string@_WU?$char_traits@_W@std@@V?$allocator@_W@2@@std@@@2@V?$allocator@U?$pair@$$CBV?$basic_string@_WU?$char_traits@_W@std@@V?$allocator@_W@2@@std@@V?$shared_ptr@Uname_t@DispObjectImpl@@@2@@std@@@2@$0A@@std@@@std@@IEAAXPEAU?$_Tree_node@U?$pair@$$CBV?$basic_string@_WU?$char_traits@_W@std@@V?$allocator@_W@2@@std@@V?$shared_ptr@Uname_t@DispObjectImpl@@@2@@std@@PEAX@2@@Z 00000001800297fc     utils.obj
 0002:00009808       $chain$1$?_Erase@?$_Tree@V?$_Tmap_traits@V?$basic_string@_WU?$char_traits@_W@std@@V?$allocator@_W@2@@std@@V?$shared_ptr@Uname_t@DispObjectImpl@@@2@U?$less@V?$basic_string@_WU?$char_traits@_W@std@@V?$allocator@_W@2@@std@@@2@V?$allocator@U?$pair@$$CBV?$basic_string@_WU?$char_traits@_W@std@@V?$allocator@_W@2@@std@@V?$shared_ptr@Uname_t@DispObjectImpl@@@2@@std@@@2@$0A@@std@@@std@@IEAAXPEAU?$_Tree_node@U?$pair@$$CBV?$basic_string@_WU?$char_traits@_W@std@@V?$allocator@_W@2@@std@@V?$shared_ptr@Uname_t@DispObjectImpl@@@2@@std@@PEAX@2@@Z 0000000180029808     utils.obj
 0002:00009820       $chain$2$?_Erase@?$_Tree@V?$_Tmap_traits@V?$basic_string@_WU?$char_traits@_W@std@@V?$allocator@_W@2@@std@@V?$shared_ptr@Uname_t@DispObjectImpl@@@2@U?$less@V?$basic_string@_WU?$char_traits@_W@std@@V?$allocator@_W@2@@std@@@2@V?$allocator@U?$pair@$$CBV?$basic_string@_WU?$char_traits@_W@std@@V?$allocator@_W@2@@std@@V?$shared_ptr@Uname_t@DispObjectImpl@@@2@@std@@@2@$0A@@std@@@std@@IEAAXPEAU?$_Tree_node@U?$pair@$$CBV?$basic_string@_WU?$char_traits@_W@std@@V?$allocator@_W@2@@std@@V?$shared_ptr@Uname_t@DispObjectImpl@@@2@@std@@PEAX@2@@Z 0000000180029820     utils.obj
 0002:00009830       $chain$3$?_Erase@?$_Tree@V?$_Tmap_traits@V?$basic_string@_WU?$char_traits@_W@std@@V?$allocator@_W@2@@std@@V?$shared_ptr@Uname_t@DispObjectImpl@@@2@U?$less@V?$basic_string@_WU?$char_traits@_W@std@@V?$allocator@_W@2@@std@@@2@V?$allocator@U?$pair@$$CBV?$basic_string@_WU?$char_traits@_W@std@@V?$allocator@_W@2@@std@@V?$shared_ptr@Uname_t@DispObjectImpl@@@2@@std@@@2@$0A@@std@@@std@@IEAAXPEAU?$_Tree_node@U?$pair@$$CBV?$basic_string@_WU?$char_traits@_W@std@@V?$allocator@_W@2@@std@@V?$shared_ptr@Uname_t@DispObjectImpl@@@2@@std@@PEAX@2@@Z 0000000180029830     utils.obj
 0002:00009848       $unwind$??$Enumerate@V<lambda_8d358ac099d63a162fde4e1faf93afcd>@@@DispInfo@@QEAA_NV<lambda_8d358ac099d63a162fde4e1faf93afcd>@@@Z 0000000180029848     utils.obj
 0002:00009854       $unwind$fwprintf           0000000180029854     libucrt:assert.obj
 0002:00009854       $unwind$??$sprintf_s@$0BAA@@@YAHAEAY0BAA@DPEBDZZ 0000000180029854     utils.obj
 0002:00009860       $unwind$??$Variant2Int@K@@YAKAEBUtagVARIANT@@K@Z 0000000180029860     utils.obj
 0002:00009860       $unwind$isdigit            0000000180029860     libucrt:_ctype.obj
 0002:00009860       $unwind$_isleadbyte_l      0000000180029860     libucrt:_wctype.obj
 0002:00009860       $unwind$?getSystemCP@@YAHH@Z 0000000180029860     libucrt:mbctype.obj
 0002:00009860       $unwind$??$Variant2Int@J@@YAJAEBUtagVARIANT@@J@Z 0000000180029860     utils.obj
 0002:00009868       $unwind$??$reset@Uname_t@DispObjectImpl@@@?$shared_ptr@Uname_t@DispObjectImpl@@@std@@QEAAXPEAUname_t@DispObjectImpl@@@Z 0000000180029868     utils.obj
 0002:00009868       $unwind$__stdio_common_vswprintf_s 0000000180029868     libucrt:output.obj
 0002:00009868       $unwind$??$reset@VDispInfo@@@?$shared_ptr@VDispInfo@@@std@@QEAAXPEAVDispInfo@@@Z 0000000180029868     disp.obj
 0002:00009874       $unwind$??$PrepareType@V<lambda_8d358ac099d63a162fde4e1faf93afcd>@@@DispInfo@@QEAA_NPEAUITypeInfo@@V<lambda_8d358ac099d63a162fde4e1faf93afcd>@@@Z 0000000180029874     utils.obj
 0002:0000988c       $unwind$??$_Insert_nohint@U?$pair@$$CBJV?$shared_ptr@Uname_t@DispObjectImpl@@@std@@@std@@U_Nil@2@@?$_Tree@V?$_Tmap_traits@JV?$shared_ptr@Uname_t@DispObjectImpl@@@std@@U?$less@J@2@V?$allocator@U?$pair@$$CBJV?$shared_ptr@Uname_t@DispObjectImpl@@@std@@@std@@@2@$0A@@std@@@std@@IEAA?AU?$pair@V?$_Tree_iterator@V?$_Tree_val@U?$_Tree_simple_types@U?$pair@$$CBJV?$shared_ptr@Uname_t@DispObjectImpl@@@std@@@std@@@std@@@std@@@std@@_N@1@_N$$QEAU?$pair@$$CBJV?$shared_ptr@Uname_t@DispObjectImpl@@@std@@@1@U_Nil@1@@Z 000000018002988c     utils.obj
 0002:0000988c       $unwind$??$_Insert_nohint@AEAU?$pair@$$CBJV?$shared_ptr@Utype_t@DispInfo@@@std@@@std@@PEAU?$_Tree_node@U?$pair@$$CBJV?$shared_ptr@Utype_t@DispInfo@@@std@@@std@@PEAX@2@@?$_Tree@V?$_Tmap_traits@JV?$shared_ptr@Utype_t@DispInfo@@@std@@U?$less@J@2@V?$allocator@U?$pair@$$CBJV?$shared_ptr@Utype_t@DispInfo@@@std@@@std@@@2@$0A@@std@@@std@@IEAA?AU?$pair@V?$_Tree_iterator@V?$_Tree_val@U?$_Tree_simple_types@U?$pair@$$CBJV?$shared_ptr@Utype_t@DispInfo@@@std@@@std@@@std@@@std@@@std@@_N@1@_NAEAU?$pair@$$CBJV?$shared_ptr@Utype_t@DispInfo@@@std@@@1@PEAU?$_Tree_node@U?$pair@$$CBJV?$shared_ptr@Utype_t@DispInfo@@@std@@@std@@PEAX@1@@Z 000000018002988c     utils.obj
 0002:00009898       $unwind$??$_Try_emplace@AEBV?$basic_string@_WU?$char_traits@_W@std@@V?$allocator@_W@2@@std@@$$V@?$map@V?$basic_string@_WU?$char_traits@_W@std@@V?$allocator@_W@2@@std@@V?$shared_ptr@Uname_t@DispObjectImpl@@@2@U?$less@V?$basic_string@_WU?$char_traits@_W@std@@V?$allocator@_W@2@@std@@@2@V?$allocator@U?$pair@$$CBV?$basic_string@_WU?$char_traits@_W@std@@V?$allocator@_W@2@@std@@V?$shared_ptr@Uname_t@DispObjectImpl@@@2@@std@@@2@@std@@QEAA?AU?$pair@V?$_Tree_iterator@V?$_Tree_val@U?$_Tree_simple_types@U?$pair@$$CBV?$basic_string@_WU?$char_traits@_W@std@@V?$allocator@_W@2@@std@@V?$shared_ptr@Uname_t@DispObjectImpl@@@2@@std@@@std@@@std@@@std@@_N@1@AEBV?$basic_string@_WU?$char_traits@_W@std@@V?$allocator@_W@2@@1@@Z 0000000180029898     utils.obj
 0002:000098b0       $chain$2$??$_Try_emplace@AEBV?$basic_string@_WU?$char_traits@_W@std@@V?$allocator@_W@2@@std@@$$V@?$map@V?$basic_string@_WU?$char_traits@_W@std@@V?$allocator@_W@2@@std@@V?$shared_ptr@Uname_t@DispObjectImpl@@@2@U?$less@V?$basic_string@_WU?$char_traits@_W@std@@V?$allocator@_W@2@@std@@@2@V?$allocator@U?$pair@$$CBV?$basic_string@_WU?$char_traits@_W@std@@V?$allocator@_W@2@@std@@V?$shared_ptr@Uname_t@DispObjectImpl@@@2@@std@@@2@@std@@QEAA?AU?$pair@V?$_Tree_iterator@V?$_Tree_val@U?$_Tree_simple_types@U?$pair@$$CBV?$basic_string@_WU?$char_traits@_W@std@@V?$allocator@_W@2@@std@@V?$shared_ptr@Uname_t@DispObjectImpl@@@2@@std@@@std@@@std@@@std@@_N@1@AEBV?$basic_string@_WU?$char_traits@_W@std@@V?$allocator@_W@2@@1@@Z 00000001800298b0     utils.obj
 0002:000098c4       $chain$3$??$_Try_emplace@AEBV?$basic_string@_WU?$char_traits@_W@std@@V?$allocator@_W@2@@std@@$$V@?$map@V?$basic_string@_WU?$char_traits@_W@std@@V?$allocator@_W@2@@std@@V?$shared_ptr@Uname_t@DispObjectImpl@@@2@U?$less@V?$basic_string@_WU?$char_traits@_W@std@@V?$allocator@_W@2@@std@@@2@V?$allocator@U?$pair@$$CBV?$basic_string@_WU?$char_traits@_W@std@@V?$allocator@_W@2@@std@@V?$shared_ptr@Uname_t@DispObjectImpl@@@2@@std@@@2@@std@@QEAA?AU?$pair@V?$_Tree_iterator@V?$_Tree_val@U?$_Tree_simple_types@U?$pair@$$CBV?$basic_string@_WU?$char_traits@_W@std@@V?$allocator@_W@2@@std@@V?$shared_ptr@Uname_t@DispObjectImpl@@@2@@std@@@std@@@std@@@std@@_N@1@AEBV?$basic_string@_WU?$char_traits@_W@std@@V?$allocator@_W@2@@1@@Z 00000001800298c4     utils.obj
 0002:000098d4       $unwind$?_Reset0@?$_Ptr_base@VDispInfo@@@std@@QEAAXPEAVDispInfo@@PEAV_Ref_count_base@2@@Z 00000001800298d4     utils.obj
 0002:000098d4       $unwind$?parse_int_from_format_string@?$output_processor@_WV?$string_output_adapter@_W@__crt_stdio_output@@V?$standard_base@_WV?$string_output_adapter@_W@__crt_stdio_output@@@2@@__crt_stdio_output@@AEAA_NQEAH@Z 00000001800298d4     libucrt:output.obj
 0002:000098d4       $unwind$?parse_int_from_format_string@?$output_processor@_WV?$stream_output_adapter@_W@__crt_stdio_output@@V?$standard_base@_WV?$stream_output_adapter@_W@__crt_stdio_output@@@2@@__crt_stdio_output@@AEAA_NQEAH@Z 00000001800298d4     libucrt:output.obj
 0002:000098d4       $unwind$?parse_int_from_format_string@?$output_processor@_WV?$string_output_adapter@_W@__crt_stdio_output@@V?$format_validation_base@_WV?$string_output_adapter@_W@__crt_stdio_output@@@2@@__crt_stdio_output@@AEAA_NQEAH@Z 00000001800298d4     libucrt:output.obj
 0002:000098d4       $unwind$?_Reset0@?$_Ptr_base@Uname_t@DispObjectImpl@@@std@@QEAAXPEAUname_t@DispObjectImpl@@PEAV_Ref_count_base@2@@Z 00000001800298d4     utils.obj
 0002:000098e8       $chain$0$?_Reset0@?$_Ptr_base@VDispInfo@@@std@@QEAAXPEAVDispInfo@@PEAV_Ref_count_base@2@@Z 00000001800298e8     utils.obj
 0002:000098e8       $chain$0$?_Reset0@?$_Ptr_base@Uname_t@DispObjectImpl@@@std@@QEAAXPEAUname_t@DispObjectImpl@@PEAV_Ref_count_base@2@@Z 00000001800298e8     utils.obj
 0002:000098fc       $chain$3$?_Reset0@?$_Ptr_base@Uname_t@DispObjectImpl@@@std@@QEAAXPEAUname_t@DispObjectImpl@@PEAV_Ref_count_base@2@@Z 00000001800298fc     utils.obj
 0002:000098fc       $chain$1$?_Reset0@?$_Ptr_base@VDispInfo@@@std@@QEAAXPEAVDispInfo@@PEAV_Ref_count_base@2@@Z 00000001800298fc     utils.obj
 0002:000098fc       $chain$1$?_Reset0@?$_Ptr_base@Uname_t@DispObjectImpl@@@std@@QEAAXPEAUname_t@DispObjectImpl@@PEAV_Ref_count_base@2@@Z 00000001800298fc     utils.obj
 0002:000098fc       $chain$3$?_Reset0@?$_Ptr_base@VDispInfo@@@std@@QEAAXPEAVDispInfo@@PEAV_Ref_count_base@2@@Z 00000001800298fc     utils.obj
 0002:0000990c       $chain$2$?_Reset0@?$_Ptr_base@VDispInfo@@@std@@QEAAXPEAVDispInfo@@PEAV_Ref_count_base@2@@Z 000000018002990c     utils.obj
 0002:0000990c       $chain$2$?_Reset0@?$_Ptr_base@Uname_t@DispObjectImpl@@@std@@QEAAXPEAUname_t@DispObjectImpl@@PEAV_Ref_count_base@2@@Z 000000018002990c     utils.obj
 0002:00009920       $unwind$??$_Lbound@V?$basic_string@_WU?$char_traits@_W@std@@V?$allocator@_W@2@@std@@@?$_Tree@V?$_Tmap_traits@V?$basic_string@_WU?$char_traits@_W@std@@V?$allocator@_W@2@@std@@V?$shared_ptr@Uname_t@DispObjectImpl@@@2@U?$less@V?$basic_string@_WU?$char_traits@_W@std@@V?$allocator@_W@2@@std@@@2@V?$allocator@U?$pair@$$CBV?$basic_string@_WU?$char_traits@_W@std@@V?$allocator@_W@2@@std@@V?$shared_ptr@Uname_t@DispObjectImpl@@@2@@std@@@2@$0A@@std@@@std@@IEBAPEAU?$_Tree_node@U?$pair@$$CBV?$basic_string@_WU?$char_traits@_W@std@@V?$allocator@_W@2@@std@@V?$shared_ptr@Uname_t@DispObjectImpl@@@2@@std@@PEAX@1@AEBV?$basic_string@_WU?$char_traits@_W@std@@V?$allocator@_W@2@@1@@Z 0000000180029920     utils.obj
 0002:00009920       $unwind$__GSHandlerCheckCommon 0000000180029920     LIBCMT:_gshandler_.obj
 0002:00009928       $chain$2$??$_Lbound@V?$basic_string@_WU?$char_traits@_W@std@@V?$allocator@_W@2@@std@@@?$_Tree@V?$_Tmap_traits@V?$basic_string@_WU?$char_traits@_W@std@@V?$allocator@_W@2@@std@@V?$shared_ptr@Uname_t@DispObjectImpl@@@2@U?$less@V?$basic_string@_WU?$char_traits@_W@std@@V?$allocator@_W@2@@std@@@2@V?$allocator@U?$pair@$$CBV?$basic_string@_WU?$char_traits@_W@std@@V?$allocator@_W@2@@std@@V?$shared_ptr@Uname_t@DispObjectImpl@@@2@@std@@@2@$0A@@std@@@std@@IEBAPEAU?$_Tree_node@U?$pair@$$CBV?$basic_string@_WU?$char_traits@_W@std@@V?$allocator@_W@2@@std@@V?$shared_ptr@Uname_t@DispObjectImpl@@@2@@std@@PEAX@1@AEBV?$basic_string@_WU?$char_traits@_W@std@@V?$allocator@_W@2@@1@@Z 0000000180029928     utils.obj
 0002:00009944       $chain$3$??$_Lbound@V?$basic_string@_WU?$char_traits@_W@std@@V?$allocator@_W@2@@std@@@?$_Tree@V?$_Tmap_traits@V?$basic_string@_WU?$char_traits@_W@std@@V?$allocator@_W@2@@std@@V?$shared_ptr@Uname_t@DispObjectImpl@@@2@U?$less@V?$basic_string@_WU?$char_traits@_W@std@@V?$allocator@_W@2@@std@@@2@V?$allocator@U?$pair@$$CBV?$basic_string@_WU?$char_traits@_W@std@@V?$allocator@_W@2@@std@@V?$shared_ptr@Uname_t@DispObjectImpl@@@2@@std@@@2@$0A@@std@@@std@@IEBAPEAU?$_Tree_node@U?$pair@$$CBV?$basic_string@_WU?$char_traits@_W@std@@V?$allocator@_W@2@@std@@V?$shared_ptr@Uname_t@DispObjectImpl@@@2@@std@@PEAX@1@AEBV?$basic_string@_WU?$char_traits@_W@std@@V?$allocator@_W@2@@1@@Z 0000000180029944     utils.obj
 0002:00009954       $chain$4$??$_Lbound@V?$basic_string@_WU?$char_traits@_W@std@@V?$allocator@_W@2@@std@@@?$_Tree@V?$_Tmap_traits@V?$basic_string@_WU?$char_traits@_W@std@@V?$allocator@_W@2@@std@@V?$shared_ptr@Uname_t@DispObjectImpl@@@2@U?$less@V?$basic_string@_WU?$char_traits@_W@std@@V?$allocator@_W@2@@std@@@2@V?$allocator@U?$pair@$$CBV?$basic_string@_WU?$char_traits@_W@std@@V?$allocator@_W@2@@std@@V?$shared_ptr@Uname_t@DispObjectImpl@@@2@@std@@@2@$0A@@std@@@std@@IEBAPEAU?$_Tree_node@U?$pair@$$CBV?$basic_string@_WU?$char_traits@_W@std@@V?$allocator@_W@2@@std@@V?$shared_ptr@Uname_t@DispObjectImpl@@@2@@std@@PEAX@1@AEBV?$basic_string@_WU?$char_traits@_W@std@@V?$allocator@_W@2@@1@@Z 0000000180029954     utils.obj
 0002:00009970       $unwind$?_Traits_compare@?$basic_string@_WU?$char_traits@_W@std@@V?$allocator@_W@2@@std@@SAHQEB_W_K01@Z 0000000180029970     utils.obj
 0002:0000997c       $unwind$??$_Insert_hint@AEAU?$pair@$$CBJV?$shared_ptr@Utype_t@DispInfo@@@std@@@std@@PEAU?$_Tree_node@U?$pair@$$CBJV?$shared_ptr@Utype_t@DispInfo@@@std@@@std@@PEAX@2@@?$_Tree@V?$_Tmap_traits@JV?$shared_ptr@Utype_t@DispInfo@@@std@@U?$less@J@2@V?$allocator@U?$pair@$$CBJV?$shared_ptr@Utype_t@DispInfo@@@std@@@std@@@2@$0A@@std@@@std@@IEAA?AV?$_Tree_iterator@V?$_Tree_val@U?$_Tree_simple_types@U?$pair@$$CBJV?$shared_ptr@Utype_t@DispInfo@@@std@@@std@@@std@@@std@@@1@V?$_Tree_const_iterator@V?$_Tree_val@U?$_Tree_simple_types@U?$pair@$$CBJV?$shared_ptr@Utype_t@DispInfo@@@std@@@std@@@std@@@std@@@1@AEAU?$pair@$$CBJV?$shared_ptr@Utype_t@DispInfo@@@std@@@1@PEAU?$_Tree_node@U?$pair@$$CBJV?$shared_ptr@Utype_t@DispInfo@@@std@@@std@@PEAX@1@@Z 000000018002997c     utils.obj
 0002:00009988       $chain$0$??$_Insert_hint@AEAU?$pair@$$CBJV?$shared_ptr@Utype_t@DispInfo@@@std@@@std@@PEAU?$_Tree_node@U?$pair@$$CBJV?$shared_ptr@Utype_t@DispInfo@@@std@@@std@@PEAX@2@@?$_Tree@V?$_Tmap_traits@JV?$shared_ptr@Utype_t@DispInfo@@@std@@U?$less@J@2@V?$allocator@U?$pair@$$CBJV?$shared_ptr@Utype_t@DispInfo@@@std@@@std@@@2@$0A@@std@@@std@@IEAA?AV?$_Tree_iterator@V?$_Tree_val@U?$_Tree_simple_types@U?$pair@$$CBJV?$shared_ptr@Utype_t@DispInfo@@@std@@@std@@@std@@@std@@@1@V?$_Tree_const_iterator@V?$_Tree_val@U?$_Tree_simple_types@U?$pair@$$CBJV?$shared_ptr@Utype_t@DispInfo@@@std@@@std@@@std@@@std@@@1@AEAU?$pair@$$CBJV?$shared_ptr@Utype_t@DispInfo@@@std@@@1@PEAU?$_Tree_node@U?$pair@$$CBJV?$shared_ptr@Utype_t@DispInfo@@@std@@@std@@PEAX@1@@Z 0000000180029988     utils.obj
 0002:0000999c       $chain$4$??$_Insert_hint@AEAU?$pair@$$CBJV?$shared_ptr@Utype_t@DispInfo@@@std@@@std@@PEAU?$_Tree_node@U?$pair@$$CBJV?$shared_ptr@Utype_t@DispInfo@@@std@@@std@@PEAX@2@@?$_Tree@V?$_Tmap_traits@JV?$shared_ptr@Utype_t@DispInfo@@@std@@U?$less@J@2@V?$allocator@U?$pair@$$CBJV?$shared_ptr@Utype_t@DispInfo@@@std@@@std@@@2@$0A@@std@@@std@@IEAA?AV?$_Tree_iterator@V?$_Tree_val@U?$_Tree_simple_types@U?$pair@$$CBJV?$shared_ptr@Utype_t@DispInfo@@@std@@@std@@@std@@@std@@@1@V?$_Tree_const_iterator@V?$_Tree_val@U?$_Tree_simple_types@U?$pair@$$CBJV?$shared_ptr@Utype_t@DispInfo@@@std@@@std@@@std@@@std@@@1@AEAU?$pair@$$CBJV?$shared_ptr@Utype_t@DispInfo@@@std@@@1@PEAU?$_Tree_node@U?$pair@$$CBJV?$shared_ptr@Utype_t@DispInfo@@@std@@@std@@PEAX@1@@Z 000000018002999c     utils.obj
 0002:0000999c       $chain$2$??$_Insert_hint@AEAU?$pair@$$CBJV?$shared_ptr@Utype_t@DispInfo@@@std@@@std@@PEAU?$_Tree_node@U?$pair@$$CBJV?$shared_ptr@Utype_t@DispInfo@@@std@@@std@@PEAX@2@@?$_Tree@V?$_Tmap_traits@JV?$shared_ptr@Utype_t@DispInfo@@@std@@U?$less@J@2@V?$allocator@U?$pair@$$CBJV?$shared_ptr@Utype_t@DispInfo@@@std@@@std@@@2@$0A@@std@@@std@@IEAA?AV?$_Tree_iterator@V?$_Tree_val@U?$_Tree_simple_types@U?$pair@$$CBJV?$shared_ptr@Utype_t@DispInfo@@@std@@@std@@@std@@@std@@@1@V?$_Tree_const_iterator@V?$_Tree_val@U?$_Tree_simple_types@U?$pair@$$CBJV?$shared_ptr@Utype_t@DispInfo@@@std@@@std@@@std@@@std@@@1@AEAU?$pair@$$CBJV?$shared_ptr@Utype_t@DispInfo@@@std@@@1@PEAU?$_Tree_node@U?$pair@$$CBJV?$shared_ptr@Utype_t@DispInfo@@@std@@@std@@PEAX@1@@Z 000000018002999c     utils.obj
 0002:0000999c       $chain$6$??$_Insert_hint@AEAU?$pair@$$CBJV?$shared_ptr@Utype_t@DispInfo@@@std@@@std@@PEAU?$_Tree_node@U?$pair@$$CBJV?$shared_ptr@Utype_t@DispInfo@@@std@@@std@@PEAX@2@@?$_Tree@V?$_Tmap_traits@JV?$shared_ptr@Utype_t@DispInfo@@@std@@U?$less@J@2@V?$allocator@U?$pair@$$CBJV?$shared_ptr@Utype_t@DispInfo@@@std@@@std@@@2@$0A@@std@@@std@@IEAA?AV?$_Tree_iterator@V?$_Tree_val@U?$_Tree_simple_types@U?$pair@$$CBJV?$shared_ptr@Utype_t@DispInfo@@@std@@@std@@@std@@@std@@@1@V?$_Tree_const_iterator@V?$_Tree_val@U?$_Tree_simple_types@U?$pair@$$CBJV?$shared_ptr@Utype_t@DispInfo@@@std@@@std@@@std@@@std@@@1@AEAU?$pair@$$CBJV?$shared_ptr@Utype_t@DispInfo@@@std@@@1@PEAU?$_Tree_node@U?$pair@$$CBJV?$shared_ptr@Utype_t@DispInfo@@@std@@@std@@PEAX@1@@Z 000000018002999c     utils.obj
 0002:0000999c       $chain$8$??$_Insert_hint@AEAU?$pair@$$CBJV?$shared_ptr@Utype_t@DispInfo@@@std@@@std@@PEAU?$_Tree_node@U?$pair@$$CBJV?$shared_ptr@Utype_t@DispInfo@@@std@@@std@@PEAX@2@@?$_Tree@V?$_Tmap_traits@JV?$shared_ptr@Utype_t@DispInfo@@@std@@U?$less@J@2@V?$allocator@U?$pair@$$CBJV?$shared_ptr@Utype_t@DispInfo@@@std@@@std@@@2@$0A@@std@@@std@@IEAA?AV?$_Tree_iterator@V?$_Tree_val@U?$_Tree_simple_types@U?$pair@$$CBJV?$shared_ptr@Utype_t@DispInfo@@@std@@@std@@@std@@@std@@@1@V?$_Tree_const_iterator@V?$_Tree_val@U?$_Tree_simple_types@U?$pair@$$CBJV?$shared_ptr@Utype_t@DispInfo@@@std@@@std@@@std@@@std@@@1@AEAU?$pair@$$CBJV?$shared_ptr@Utype_t@DispInfo@@@std@@@1@PEAU?$_Tree_node@U?$pair@$$CBJV?$shared_ptr@Utype_t@DispInfo@@@std@@@std@@PEAX@1@@Z 000000018002999c     utils.obj
 0002:000099b0       $unwind$??$_Insert_hint@AEAU?$pair@$$CBV?$basic_string@_WU?$char_traits@_W@std@@V?$allocator@_W@2@@std@@V?$shared_ptr@Uname_t@DispObjectImpl@@@2@@std@@PEAU?$_Tree_node@U?$pair@$$CBV?$basic_string@_WU?$char_traits@_W@std@@V?$allocator@_W@2@@std@@V?$shared_ptr@Uname_t@DispObjectImpl@@@2@@std@@PEAX@2@@?$_Tree@V?$_Tmap_traits@V?$basic_string@_WU?$char_traits@_W@std@@V?$allocator@_W@2@@std@@V?$shared_ptr@Uname_t@DispObjectImpl@@@2@U?$less@V?$basic_string@_WU?$char_traits@_W@std@@V?$allocator@_W@2@@std@@@2@V?$allocator@U?$pair@$$CBV?$basic_string@_WU?$char_traits@_W@std@@V?$allocator@_W@2@@std@@V?$shared_ptr@Uname_t@DispObjectImpl@@@2@@std@@@2@$0A@@std@@@std@@IEAA?AV?$_Tree_iterator@V?$_Tree_val@U?$_Tree_simple_types@U?$pair@$$CBV?$basic_string@_WU?$char_traits@_W@std@@V?$allocator@_W@2@@std@@V?$shared_ptr@Uname_t@DispObjectImpl@@@2@@std@@@std@@@std@@@1@V?$_Tree_const_iterator@V?$_Tree_val@U?$_Tree_simple_types@U?$pair@$$CBV?$basic_string@_WU?$char_traits@_W@std@@V?$allocator@_W@2@@std@@V?$shared_ptr@Uname_t@DispObjectImpl@@@2@@std@@@std@@@std@@@1@AEAU?$pair@$$CBV?$basic_string@_WU?$char_traits@_W@std@@V?$allocator@_W@2@@std@@V?$shared_ptr@Uname_t@DispObjectImpl@@@2@@1@PEAU?$_Tree_node@U?$pair@$$CBV?$basic_string@_WU?$char_traits@_W@std@@V?$allocator@_W@2@@std@@V?$shared_ptr@Uname_t@DispObjectImpl@@@2@@std@@PEAX@1@@Z 00000001800299b0     utils.obj
 0002:000099c8       $unwind$?_Tidy@?$vector@VCComVariant@@V?$allocator@VCComVariant@@@std@@@std@@IEAAXXZ 00000001800299c8     disp.obj
 0002:000099c8       $unwind$?_Destroy_if_not_nil@?$_Tree@V?$_Tmap_traits@JV?$shared_ptr@Utype_t@DispInfo@@@std@@U?$less@J@2@V?$allocator@U?$pair@$$CBJV?$shared_ptr@Utype_t@DispInfo@@@std@@@std@@@2@$0A@@std@@@std@@IEAAXPEAU?$_Tree_node@U?$pair@$$CBJV?$shared_ptr@Utype_t@DispInfo@@@std@@@std@@PEAX@2@@Z 00000001800299c8     utils.obj
 0002:000099d4       $chain$0$?_Destroy_if_not_nil@?$_Tree@V?$_Tmap_traits@JV?$shared_ptr@Utype_t@DispInfo@@@std@@U?$less@J@2@V?$allocator@U?$pair@$$CBJV?$shared_ptr@Utype_t@DispInfo@@@std@@@std@@@2@$0A@@std@@@std@@IEAAXPEAU?$_Tree_node@U?$pair@$$CBJV?$shared_ptr@Utype_t@DispInfo@@@std@@@std@@PEAX@2@@Z 00000001800299d4     utils.obj
 0002:000099e8       $chain$1$?_Destroy_if_not_nil@?$_Tree@V?$_Tmap_traits@JV?$shared_ptr@Utype_t@DispInfo@@@std@@U?$less@J@2@V?$allocator@U?$pair@$$CBJV?$shared_ptr@Utype_t@DispInfo@@@std@@@std@@@2@$0A@@std@@@std@@IEAAXPEAU?$_Tree_node@U?$pair@$$CBJV?$shared_ptr@Utype_t@DispInfo@@@std@@@std@@PEAX@2@@Z 00000001800299e8     utils.obj
 0002:000099f8       $unwind$?_Destroy_if_not_nil@?$_Tree@V?$_Tmap_traits@V?$basic_string@_WU?$char_traits@_W@std@@V?$allocator@_W@2@@std@@V?$shared_ptr@Uname_t@DispObjectImpl@@@2@U?$less@V?$basic_string@_WU?$char_traits@_W@std@@V?$allocator@_W@2@@std@@@2@V?$allocator@U?$pair@$$CBV?$basic_string@_WU?$char_traits@_W@std@@V?$allocator@_W@2@@std@@V?$shared_ptr@Uname_t@DispObjectImpl@@@2@@std@@@2@$0A@@std@@@std@@IEAAXPEAU?$_Tree_node@U?$pair@$$CBV?$basic_string@_WU?$char_traits@_W@std@@V?$allocator@_W@2@@std@@V?$shared_ptr@Uname_t@DispObjectImpl@@@2@@std@@PEAX@2@@Z 00000001800299f8     utils.obj
 0002:00009a08       $chain$0$?_Destroy_if_not_nil@?$_Tree@V?$_Tmap_traits@V?$basic_string@_WU?$char_traits@_W@std@@V?$allocator@_W@2@@std@@V?$shared_ptr@Uname_t@DispObjectImpl@@@2@U?$less@V?$basic_string@_WU?$char_traits@_W@std@@V?$allocator@_W@2@@std@@@2@V?$allocator@U?$pair@$$CBV?$basic_string@_WU?$char_traits@_W@std@@V?$allocator@_W@2@@std@@V?$shared_ptr@Uname_t@DispObjectImpl@@@2@@std@@@2@$0A@@std@@@std@@IEAAXPEAU?$_Tree_node@U?$pair@$$CBV?$basic_string@_WU?$char_traits@_W@std@@V?$allocator@_W@2@@std@@V?$shared_ptr@Uname_t@DispObjectImpl@@@2@@std@@PEAX@2@@Z 0000000180029a08     utils.obj
 0002:00009a1c       $chain$1$?_Destroy_if_not_nil@?$_Tree@V?$_Tmap_traits@V?$basic_string@_WU?$char_traits@_W@std@@V?$allocator@_W@2@@std@@V?$shared_ptr@Uname_t@DispObjectImpl@@@2@U?$less@V?$basic_string@_WU?$char_traits@_W@std@@V?$allocator@_W@2@@std@@@2@V?$allocator@U?$pair@$$CBV?$basic_string@_WU?$char_traits@_W@std@@V?$allocator@_W@2@@std@@V?$shared_ptr@Uname_t@DispObjectImpl@@@2@@std@@@2@$0A@@std@@@std@@IEAAXPEAU?$_Tree_node@U?$pair@$$CBV?$basic_string@_WU?$char_traits@_W@std@@V?$allocator@_W@2@@std@@V?$shared_ptr@Uname_t@DispObjectImpl@@@2@@std@@PEAX@2@@Z 0000000180029a1c     utils.obj
 0002:00009a2c       $chain$1$??$_Insert_at@AEAU?$pair@$$CBJV?$shared_ptr@Utype_t@DispInfo@@@std@@@std@@PEAU?$_Tree_node@U?$pair@$$CBJV?$shared_ptr@Utype_t@DispInfo@@@std@@@std@@PEAX@2@@?$_Tree@V?$_Tmap_traits@JV?$shared_ptr@Utype_t@DispInfo@@@std@@U?$less@J@2@V?$allocator@U?$pair@$$CBJV?$shared_ptr@Utype_t@DispInfo@@@std@@@std@@@2@$0A@@std@@@std@@IEAA?AV?$_Tree_iterator@V?$_Tree_val@U?$_Tree_simple_types@U?$pair@$$CBJV?$shared_ptr@Utype_t@DispInfo@@@std@@@std@@@std@@@std@@@1@_NPEAU?$_Tree_node@U?$pair@$$CBJV?$shared_ptr@Utype_t@DispInfo@@@std@@@std@@PEAX@1@AEAU?$pair@$$CBJV?$shared_ptr@Utype_t@DispInfo@@@std@@@1@1@Z 0000000180029a2c     utils.obj
 0002:00009a44       $chain$2$??$_Insert_at@AEAU?$pair@$$CBJV?$shared_ptr@Utype_t@DispInfo@@@std@@@std@@PEAU?$_Tree_node@U?$pair@$$CBJV?$shared_ptr@Utype_t@DispInfo@@@std@@@std@@PEAX@2@@?$_Tree@V?$_Tmap_traits@JV?$shared_ptr@Utype_t@DispInfo@@@std@@U?$less@J@2@V?$allocator@U?$pair@$$CBJV?$shared_ptr@Utype_t@DispInfo@@@std@@@std@@@2@$0A@@std@@@std@@IEAA?AV?$_Tree_iterator@V?$_Tree_val@U?$_Tree_simple_types@U?$pair@$$CBJV?$shared_ptr@Utype_t@DispInfo@@@std@@@std@@@std@@@std@@@1@_NPEAU?$_Tree_node@U?$pair@$$CBJV?$shared_ptr@Utype_t@DispInfo@@@std@@@std@@PEAX@1@AEAU?$pair@$$CBJV?$shared_ptr@Utype_t@DispInfo@@@std@@@1@1@Z 0000000180029a44     utils.obj
 0002:00009a54       $chain$3$??$_Insert_at@AEAU?$pair@$$CBJV?$shared_ptr@Utype_t@DispInfo@@@std@@@std@@PEAU?$_Tree_node@U?$pair@$$CBJV?$shared_ptr@Utype_t@DispInfo@@@std@@@std@@PEAX@2@@?$_Tree@V?$_Tmap_traits@JV?$shared_ptr@Utype_t@DispInfo@@@std@@U?$less@J@2@V?$allocator@U?$pair@$$CBJV?$shared_ptr@Utype_t@DispInfo@@@std@@@std@@@2@$0A@@std@@@std@@IEAA?AV?$_Tree_iterator@V?$_Tree_val@U?$_Tree_simple_types@U?$pair@$$CBJV?$shared_ptr@Utype_t@DispInfo@@@std@@@std@@@std@@@std@@@1@_NPEAU?$_Tree_node@U?$pair@$$CBJV?$shared_ptr@Utype_t@DispInfo@@@std@@@std@@PEAX@1@AEAU?$pair@$$CBJV?$shared_ptr@Utype_t@DispInfo@@@std@@@1@1@Z 0000000180029a54     utils.obj
 0002:00009a6c       $chain$4$??$_Insert_at@AEAU?$pair@$$CBJV?$shared_ptr@Utype_t@DispInfo@@@std@@@std@@PEAU?$_Tree_node@U?$pair@$$CBJV?$shared_ptr@Utype_t@DispInfo@@@std@@@std@@PEAX@2@@?$_Tree@V?$_Tmap_traits@JV?$shared_ptr@Utype_t@DispInfo@@@std@@U?$less@J@2@V?$allocator@U?$pair@$$CBJV?$shared_ptr@Utype_t@DispInfo@@@std@@@std@@@2@$0A@@std@@@std@@IEAA?AV?$_Tree_iterator@V?$_Tree_val@U?$_Tree_simple_types@U?$pair@$$CBJV?$shared_ptr@Utype_t@DispInfo@@@std@@@std@@@std@@@std@@@1@_NPEAU?$_Tree_node@U?$pair@$$CBJV?$shared_ptr@Utype_t@DispInfo@@@std@@@std@@PEAX@1@AEAU?$pair@$$CBJV?$shared_ptr@Utype_t@DispInfo@@@std@@@1@1@Z 0000000180029a6c     utils.obj
 0002:00009a80       $chain$2$??$_Insert_at@AEAU?$pair@$$CBV?$basic_string@_WU?$char_traits@_W@std@@V?$allocator@_W@2@@std@@V?$shared_ptr@Uname_t@DispObjectImpl@@@2@@std@@PEAU?$_Tree_node@U?$pair@$$CBV?$basic_string@_WU?$char_traits@_W@std@@V?$allocator@_W@2@@std@@V?$shared_ptr@Uname_t@DispObjectImpl@@@2@@std@@PEAX@2@@?$_Tree@V?$_Tmap_traits@V?$basic_string@_WU?$char_traits@_W@std@@V?$allocator@_W@2@@std@@V?$shared_ptr@Uname_t@DispObjectImpl@@@2@U?$less@V?$basic_string@_WU?$char_traits@_W@std@@V?$allocator@_W@2@@std@@@2@V?$allocator@U?$pair@$$CBV?$basic_string@_WU?$char_traits@_W@std@@V?$allocator@_W@2@@std@@V?$shared_ptr@Uname_t@DispObjectImpl@@@2@@std@@@2@$0A@@std@@@std@@IEAA?AV?$_Tree_iterator@V?$_Tree_val@U?$_Tree_simple_types@U?$pair@$$CBV?$basic_string@_WU?$char_traits@_W@std@@V?$allocator@_W@2@@std@@V?$shared_ptr@Uname_t@DispObjectImpl@@@2@@std@@@std@@@std@@@1@_NPEAU?$_Tree_node@U?$pair@$$CBV?$basic_string@_WU?$char_traits@_W@std@@V?$allocator@_W@2@@std@@V?$shared_ptr@Uname_t@DispObjectImpl@@@2@@std@@PEAX@1@AEAU?$pair@$$CBV?$basic_string@_WU?$char_traits@_W@std@@V?$allocator@_W@2@@std@@V?$shared_ptr@Uname_t@DispObjectImpl@@@2@@1@1@Z 0000000180029a80     utils.obj
 0002:00009a9c       $chain$3$??$_Insert_at@AEAU?$pair@$$CBV?$basic_string@_WU?$char_traits@_W@std@@V?$allocator@_W@2@@std@@V?$shared_ptr@Uname_t@DispObjectImpl@@@2@@std@@PEAU?$_Tree_node@U?$pair@$$CBV?$basic_string@_WU?$char_traits@_W@std@@V?$allocator@_W@2@@std@@V?$shared_ptr@Uname_t@DispObjectImpl@@@2@@std@@PEAX@2@@?$_Tree@V?$_Tmap_traits@V?$basic_string@_WU?$char_traits@_W@std@@V?$allocator@_W@2@@std@@V?$shared_ptr@Uname_t@DispObjectImpl@@@2@U?$less@V?$basic_string@_WU?$char_traits@_W@std@@V?$allocator@_W@2@@std@@@2@V?$allocator@U?$pair@$$CBV?$basic_string@_WU?$char_traits@_W@std@@V?$allocator@_W@2@@std@@V?$shared_ptr@Uname_t@DispObjectImpl@@@2@@std@@@2@$0A@@std@@@std@@IEAA?AV?$_Tree_iterator@V?$_Tree_val@U?$_Tree_simple_types@U?$pair@$$CBV?$basic_string@_WU?$char_traits@_W@std@@V?$allocator@_W@2@@std@@V?$shared_ptr@Uname_t@DispObjectImpl@@@2@@std@@@std@@@std@@@1@_NPEAU?$_Tree_node@U?$pair@$$CBV?$basic_string@_WU?$char_traits@_W@std@@V?$allocator@_W@2@@std@@V?$shared_ptr@Uname_t@DispObjectImpl@@@2@@std@@PEAX@1@AEAU?$pair@$$CBV?$basic_string@_WU?$char_traits@_W@std@@V?$allocator@_W@2@@std@@V?$shared_ptr@Uname_t@DispObjectImpl@@@2@@1@1@Z 0000000180029a9c     utils.obj
 0002:00009aac       $chain$4$??$_Insert_at@AEAU?$pair@$$CBV?$basic_string@_WU?$char_traits@_W@std@@V?$allocator@_W@2@@std@@V?$shared_ptr@Uname_t@DispObjectImpl@@@2@@std@@PEAU?$_Tree_node@U?$pair@$$CBV?$basic_string@_WU?$char_traits@_W@std@@V?$allocator@_W@2@@std@@V?$shared_ptr@Uname_t@DispObjectImpl@@@2@@std@@PEAX@2@@?$_Tree@V?$_Tmap_traits@V?$basic_string@_WU?$char_traits@_W@std@@V?$allocator@_W@2@@std@@V?$shared_ptr@Uname_t@DispObjectImpl@@@2@U?$less@V?$basic_string@_WU?$char_traits@_W@std@@V?$allocator@_W@2@@std@@@2@V?$allocator@U?$pair@$$CBV?$basic_string@_WU?$char_traits@_W@std@@V?$allocator@_W@2@@std@@V?$shared_ptr@Uname_t@DispObjectImpl@@@2@@std@@@2@$0A@@std@@@std@@IEAA?AV?$_Tree_iterator@V?$_Tree_val@U?$_Tree_simple_types@U?$pair@$$CBV?$basic_string@_WU?$char_traits@_W@std@@V?$allocator@_W@2@@std@@V?$shared_ptr@Uname_t@DispObjectImpl@@@2@@std@@@std@@@std@@@1@_NPEAU?$_Tree_node@U?$pair@$$CBV?$basic_string@_WU?$char_traits@_W@std@@V?$allocator@_W@2@@std@@V?$shared_ptr@Uname_t@DispObjectImpl@@@2@@std@@PEAX@1@AEAU?$pair@$$CBV?$basic_string@_WU?$char_traits@_W@std@@V?$allocator@_W@2@@std@@V?$shared_ptr@Uname_t@DispObjectImpl@@@2@@1@1@Z 0000000180029aac     utils.obj
 0002:00009ac8       $chain$5$??$_Insert_at@AEAU?$pair@$$CBV?$basic_string@_WU?$char_traits@_W@std@@V?$allocator@_W@2@@std@@V?$shared_ptr@Uname_t@DispObjectImpl@@@2@@std@@PEAU?$_Tree_node@U?$pair@$$CBV?$basic_string@_WU?$char_traits@_W@std@@V?$allocator@_W@2@@std@@V?$shared_ptr@Uname_t@DispObjectImpl@@@2@@std@@PEAX@2@@?$_Tree@V?$_Tmap_traits@V?$basic_string@_WU?$char_traits@_W@std@@V?$allocator@_W@2@@std@@V?$shared_ptr@Uname_t@DispObjectImpl@@@2@U?$less@V?$basic_string@_WU?$char_traits@_W@std@@V?$allocator@_W@2@@std@@@2@V?$allocator@U?$pair@$$CBV?$basic_string@_WU?$char_traits@_W@std@@V?$allocator@_W@2@@std@@V?$shared_ptr@Uname_t@DispObjectImpl@@@2@@std@@@2@$0A@@std@@@std@@IEAA?AV?$_Tree_iterator@V?$_Tree_val@U?$_Tree_simple_types@U?$pair@$$CBV?$basic_string@_WU?$char_traits@_W@std@@V?$allocator@_W@2@@std@@V?$shared_ptr@Uname_t@DispObjectImpl@@@2@@std@@@std@@@std@@@1@_NPEAU?$_Tree_node@U?$pair@$$CBV?$basic_string@_WU?$char_traits@_W@std@@V?$allocator@_W@2@@std@@V?$shared_ptr@Uname_t@DispObjectImpl@@@2@@std@@PEAX@1@AEAU?$pair@$$CBV?$basic_string@_WU?$char_traits@_W@std@@V?$allocator@_W@2@@std@@V?$shared_ptr@Uname_t@DispObjectImpl@@@2@@1@1@Z 0000000180029ac8     utils.obj
 0002:00009ae0       $unwind$??$_Insert_nohint@AEAU?$pair@$$CBV?$basic_string@_WU?$char_traits@_W@std@@V?$allocator@_W@2@@std@@V?$shared_ptr@Uname_t@DispObjectImpl@@@2@@std@@PEAU?$_Tree_node@U?$pair@$$CBV?$basic_string@_WU?$char_traits@_W@std@@V?$allocator@_W@2@@std@@V?$shared_ptr@Uname_t@DispObjectImpl@@@2@@std@@PEAX@2@@?$_Tree@V?$_Tmap_traits@V?$basic_string@_WU?$char_traits@_W@std@@V?$allocator@_W@2@@std@@V?$shared_ptr@Uname_t@DispObjectImpl@@@2@U?$less@V?$basic_string@_WU?$char_traits@_W@std@@V?$allocator@_W@2@@std@@@2@V?$allocator@U?$pair@$$CBV?$basic_string@_WU?$char_traits@_W@std@@V?$allocator@_W@2@@std@@V?$shared_ptr@Uname_t@DispObjectImpl@@@2@@std@@@2@$0A@@std@@@std@@IEAA?AU?$pair@V?$_Tree_iterator@V?$_Tree_val@U?$_Tree_simple_types@U?$pair@$$CBV?$basic_string@_WU?$char_traits@_W@std@@V?$allocator@_W@2@@std@@V?$shared_ptr@Uname_t@DispObjectImpl@@@2@@std@@@std@@@std@@@std@@_N@1@_NAEAU?$pair@$$CBV?$basic_string@_WU?$char_traits@_W@std@@V?$allocator@_W@2@@std@@V?$shared_ptr@Uname_t@DispObjectImpl@@@2@@1@PEAU?$_Tree_node@U?$pair@$$CBV?$basic_string@_WU?$char_traits@_W@std@@V?$allocator@_W@2@@std@@V?$shared_ptr@Uname_t@DispObjectImpl@@@2@@std@@PEAX@1@@Z 0000000180029ae0     utils.obj
 0002:00009af8       $chain$0$??$_Insert_nohint@AEAU?$pair@$$CBV?$basic_string@_WU?$char_traits@_W@std@@V?$allocator@_W@2@@std@@V?$shared_ptr@Uname_t@DispObjectImpl@@@2@@std@@PEAU?$_Tree_node@U?$pair@$$CBV?$basic_string@_WU?$char_traits@_W@std@@V?$allocator@_W@2@@std@@V?$shared_ptr@Uname_t@DispObjectImpl@@@2@@std@@PEAX@2@@?$_Tree@V?$_Tmap_traits@V?$basic_string@_WU?$char_traits@_W@std@@V?$allocator@_W@2@@std@@V?$shared_ptr@Uname_t@DispObjectImpl@@@2@U?$less@V?$basic_string@_WU?$char_traits@_W@std@@V?$allocator@_W@2@@std@@@2@V?$allocator@U?$pair@$$CBV?$basic_string@_WU?$char_traits@_W@std@@V?$allocator@_W@2@@std@@V?$shared_ptr@Uname_t@DispObjectImpl@@@2@@std@@@2@$0A@@std@@@std@@IEAA?AU?$pair@V?$_Tree_iterator@V?$_Tree_val@U?$_Tree_simple_types@U?$pair@$$CBV?$basic_string@_WU?$char_traits@_W@std@@V?$allocator@_W@2@@std@@V?$shared_ptr@Uname_t@DispObjectImpl@@@2@@std@@@std@@@std@@@std@@_N@1@_NAEAU?$pair@$$CBV?$basic_string@_WU?$char_traits@_W@std@@V?$allocator@_W@2@@std@@V?$shared_ptr@Uname_t@DispObjectImpl@@@2@@1@PEAU?$_Tree_node@U?$pair@$$CBV?$basic_string@_WU?$char_traits@_W@std@@V?$allocator@_W@2@@std@@V?$shared_ptr@Uname_t@DispObjectImpl@@@2@@std@@PEAX@1@@Z 0000000180029af8     utils.obj
 0002:00009b0c       $chain$1$??$_Insert_nohint@AEAU?$pair@$$CBV?$basic_string@_WU?$char_traits@_W@std@@V?$allocator@_W@2@@std@@V?$shared_ptr@Uname_t@DispObjectImpl@@@2@@std@@PEAU?$_Tree_node@U?$pair@$$CBV?$basic_string@_WU?$char_traits@_W@std@@V?$allocator@_W@2@@std@@V?$shared_ptr@Uname_t@DispObjectImpl@@@2@@std@@PEAX@2@@?$_Tree@V?$_Tmap_traits@V?$basic_string@_WU?$char_traits@_W@std@@V?$allocator@_W@2@@std@@V?$shared_ptr@Uname_t@DispObjectImpl@@@2@U?$less@V?$basic_string@_WU?$char_traits@_W@std@@V?$allocator@_W@2@@std@@@2@V?$allocator@U?$pair@$$CBV?$basic_string@_WU?$char_traits@_W@std@@V?$allocator@_W@2@@std@@V?$shared_ptr@Uname_t@DispObjectImpl@@@2@@std@@@2@$0A@@std@@@std@@IEAA?AU?$pair@V?$_Tree_iterator@V?$_Tree_val@U?$_Tree_simple_types@U?$pair@$$CBV?$basic_string@_WU?$char_traits@_W@std@@V?$allocator@_W@2@@std@@V?$shared_ptr@Uname_t@DispObjectImpl@@@2@@std@@@std@@@std@@@std@@_N@1@_NAEAU?$pair@$$CBV?$basic_string@_WU?$char_traits@_W@std@@V?$allocator@_W@2@@std@@V?$shared_ptr@Uname_t@DispObjectImpl@@@2@@1@PEAU?$_Tree_node@U?$pair@$$CBV?$basic_string@_WU?$char_traits@_W@std@@V?$allocator@_W@2@@std@@V?$shared_ptr@Uname_t@DispObjectImpl@@@2@@std@@PEAX@1@@Z 0000000180029b0c     utils.obj
 0002:00009b1c       $unwind$??$free_environment@D@@YAXQEAPEAD@Z 0000000180029b1c     libucrt:environment_initialization.obj
 0002:00009b1c       $unwind$?Wrap@ObjectWrap@node@@IEAAXV?$Local@VObject@v8@@@v8@@@Z 0000000180029b1c     disp.obj
 0002:00009b1c       $unwind$??$free_environment@_W@@YAXQEAPEA_W@Z 0000000180029b1c     libucrt:environment_initialization.obj
 0002:00009b28       $unwind$?DispError@@YA?AV?$Local@VValue@v8@@@v8@@PEAVIsolate@2@JPEB_W1@Z 0000000180029b28     disp.obj
 0002:00009b3c       $unwind$?DispInvoke@@YAJPEAUIDispatch@@JIPEAUtagVARIANT@@1G@Z 0000000180029b3c     disp.obj
 0002:00009b44       $unwind$?GetProperty@DispInfo@@QEAAJJJPEAUtagVARIANT@@@Z 0000000180029b44     disp.obj
 0002:00009b4c       $chain$0$??1DispObject@@UEAA@XZ 0000000180029b4c     disp.obj
 0002:00009b60       $chain$1$??1DispObject@@UEAA@XZ 0000000180029b60     disp.obj
 0002:00009b74       $chain$2$??1DispObject@@UEAA@XZ 0000000180029b74     disp.obj
 0002:00009b84       $chain$3$??1DispObject@@UEAA@XZ 0000000180029b84     disp.obj
 0002:00009b94       $unwind$?prepare@DispObject@@AEAAJXZ 0000000180029b94     disp.obj
 0002:00009b9c       $chain$1$?prepare@DispObject@@AEAAJXZ 0000000180029b9c     disp.obj
 0002:00009bb4       $chain$2$?prepare@DispObject@@AEAAJXZ 0000000180029bb4     disp.obj
 0002:00009bc4       $chain$3$?prepare@DispObject@@AEAAJXZ 0000000180029bc4     disp.obj
 0002:00009bdc       $unwind$?get@DispObject@@IEAA_NPEA_WJAEBV?$PropertyCallbackInfo@VValue@v8@@@v8@@@Z 0000000180029bdc     disp.obj
 0002:00009bfc       $chain$1$?get@DispObject@@IEAA_NPEA_WJAEBV?$PropertyCallbackInfo@VValue@v8@@@v8@@@Z 0000000180029bfc     disp.obj
 0002:00009c10       $chain$2$?get@DispObject@@IEAA_NPEA_WJAEBV?$PropertyCallbackInfo@VValue@v8@@@v8@@@Z 0000000180029c10     disp.obj
 0002:00009c20       $chain$3$?get@DispObject@@IEAA_NPEA_WJAEBV?$PropertyCallbackInfo@VValue@v8@@@v8@@@Z 0000000180029c20     disp.obj
 0002:00009c34       $unwind$?set@DispObject@@IEAA_NPEA_WJAEBV?$Local@VValue@v8@@@v8@@AEBV?$PropertyCallbackInfo@VValue@v8@@@3@@Z 0000000180029c34     disp.obj
 0002:00009c58       $unwind$?call@DispObject@@IEAAXPEAVIsolate@v8@@AEBV?$FunctionCallbackInfo@VValue@v8@@@3@@Z 0000000180029c58     disp.obj
 0002:00009c74       $chain$1$?call@DispObject@@IEAAXPEAVIsolate@v8@@AEBV?$FunctionCallbackInfo@VValue@v8@@@3@@Z 0000000180029c74     disp.obj
 0002:00009c8c       $chain$2$?call@DispObject@@IEAAXPEAVIsolate@v8@@AEBV?$FunctionCallbackInfo@VValue@v8@@@3@@Z 0000000180029c8c     disp.obj
 0002:00009c9c       $chain$3$?call@DispObject@@IEAAXPEAVIsolate@v8@@AEBV?$FunctionCallbackInfo@VValue@v8@@@3@@Z 0000000180029c9c     disp.obj
 0002:00009cb4       $unwind$?valueOf@DispObject@@IEAAJPEAVIsolate@v8@@AEBV?$Local@VObject@v8@@@3@AEAV?$Local@VValue@v8@@@3@@Z 0000000180029cb4     disp.obj
 0002:00009cc8       $chain$0$?valueOf@DispObject@@IEAAJPEAVIsolate@v8@@AEBV?$Local@VObject@v8@@@3@AEAV?$Local@VValue@v8@@@3@@Z 0000000180029cc8     disp.obj
 0002:00009cdc       $chain$1$?valueOf@DispObject@@IEAAJPEAVIsolate@v8@@AEBV?$Local@VObject@v8@@@3@AEAV?$Local@VValue@v8@@@3@@Z 0000000180029cdc     disp.obj
 0002:00009cf0       $chain$2$?valueOf@DispObject@@IEAAJPEAVIsolate@v8@@AEBV?$Local@VObject@v8@@@3@AEAV?$Local@VValue@v8@@@3@@Z 0000000180029cf0     disp.obj
 0002:00009d00       $chain$3$?valueOf@DispObject@@IEAAJPEAVIsolate@v8@@AEBV?$Local@VObject@v8@@@3@AEAV?$Local@VValue@v8@@@3@@Z 0000000180029d00     disp.obj
 0002:00009d10       $unwind$?toString@DispObject@@IEAAXAEBV?$FunctionCallbackInfo@VValue@v8@@@v8@@@Z 0000000180029d10     disp.obj
 0002:00009d18       $chain$3$?toString@DispObject@@IEAAXAEBV?$FunctionCallbackInfo@VValue@v8@@@v8@@@Z 0000000180029d18     disp.obj
 0002:00009d38       $chain$4$?toString@DispObject@@IEAAXAEBV?$FunctionCallbackInfo@VValue@v8@@@v8@@@Z 0000000180029d38     disp.obj
 0002:00009d48       $chain$5$?toString@DispObject@@IEAAXAEBV?$FunctionCallbackInfo@VValue@v8@@@v8@@@Z 0000000180029d48     disp.obj
 0002:00009d68       $unwind$?getIdentity@DispObject@@IEAA?AV?$Local@VValue@v8@@@v8@@PEAVIsolate@3@@Z 0000000180029d68     disp.obj
 0002:00009d88       $unwind$?NodeGetByIndex@DispObject@@CAXIAEBV?$PropertyCallbackInfo@VValue@v8@@@v8@@@Z 0000000180029d88     disp.obj
 0002:00009d88       $unwind$??R<lambda_898e84f45c2b961b8b7afcc5a4be41f0>@@QEBAXPEAUITypeInfo@@PEAUtagFUNCDESC@@@Z 0000000180029d88     disp.obj
 0002:00009d94       $unwind$?NodeInit@DispObject@@SAXAEBV?$Local@VObject@v8@@@v8@@@Z 0000000180029d94     disp.obj
 0002:00009da8       $unwind$?NodeCreate@DispObject@@CAXAEBV?$FunctionCallbackInfo@VValue@v8@@@v8@@@Z 0000000180029da8     disp.obj
 0002:00009dc0       $chain$1$?NodeCreate@DispObject@@CAXAEBV?$FunctionCallbackInfo@VValue@v8@@@v8@@@Z 0000000180029dc0     disp.obj
 0002:00009dd8       $chain$2$?NodeCreate@DispObject@@CAXAEBV?$FunctionCallbackInfo@VValue@v8@@@v8@@@Z 0000000180029dd8     disp.obj
 0002:00009dec       $chain$3$?NodeCreate@DispObject@@CAXAEBV?$FunctionCallbackInfo@VValue@v8@@@v8@@@Z 0000000180029dec     disp.obj
 0002:00009e00       $chain$4$?NodeCreate@DispObject@@CAXAEBV?$FunctionCallbackInfo@VValue@v8@@@v8@@@Z 0000000180029e00     disp.obj
 0002:00009e10       $chain$5$?NodeCreate@DispObject@@CAXAEBV?$FunctionCallbackInfo@VValue@v8@@@v8@@@Z 0000000180029e10     disp.obj
 0002:00009e20       $chain$6$?NodeCreate@DispObject@@CAXAEBV?$FunctionCallbackInfo@VValue@v8@@@v8@@@Z 0000000180029e20     disp.obj
 0002:00009e30       $chain$7$?NodeCreate@DispObject@@CAXAEBV?$FunctionCallbackInfo@VValue@v8@@@v8@@@Z 0000000180029e30     disp.obj
 0002:00009e50       $chain$8$?NodeCreate@DispObject@@CAXAEBV?$FunctionCallbackInfo@VValue@v8@@@v8@@@Z 0000000180029e50     disp.obj
 0002:00009e6c       $chain$9$?NodeCreate@DispObject@@CAXAEBV?$FunctionCallbackInfo@VValue@v8@@@v8@@@Z 0000000180029e6c     disp.obj
 0002:00009e84       $unwind$?NodeGet@DispObject@@CAXV?$Local@VString@v8@@@v8@@AEBV?$PropertyCallbackInfo@VValue@v8@@@3@@Z 0000000180029e84     disp.obj
 0002:00009e98       $unwind$?NodeSet@DispObject@@CAXV?$Local@VString@v8@@@v8@@V?$Local@VValue@v8@@@3@AEBV?$PropertyCallbackInfo@VValue@v8@@@3@@Z 0000000180029e98     disp.obj
 0002:00009ea4       $unwind$?NodeSetByIndex@DispObject@@CAXIV?$Local@VValue@v8@@@v8@@AEBV?$PropertyCallbackInfo@VValue@v8@@@3@@Z 0000000180029ea4     disp.obj
 0002:00009eb0       $unwind$?NodeToString@DispObject@@CAXAEBV?$FunctionCallbackInfo@VValue@v8@@@v8@@@Z 0000000180029eb0     disp.obj
 0002:00009eb0       $unwind$?NodeCall@DispObject@@CAXAEBV?$FunctionCallbackInfo@VValue@v8@@@v8@@@Z 0000000180029eb0     disp.obj
 0002:00009eb0       $unwind$?NodeValueOf@DispObject@@CAXAEBV?$FunctionCallbackInfo@VValue@v8@@@v8@@@Z 0000000180029eb0     disp.obj
 0002:00009ebc       $unwind$?NodeRelease@DispObject@@CAXAEBV?$FunctionCallbackInfo@VValue@v8@@@v8@@@Z 0000000180029ebc     disp.obj
 0002:00009ed8       $chain$4$?NodeRelease@DispObject@@CAXAEBV?$FunctionCallbackInfo@VValue@v8@@@v8@@@Z 0000000180029ed8     disp.obj
 0002:00009eec       $chain$5$?NodeRelease@DispObject@@CAXAEBV?$FunctionCallbackInfo@VValue@v8@@@v8@@@Z 0000000180029eec     disp.obj
 0002:00009efc       $unwind$_seh_filter_exe    0000000180029efc     libucrt:exception_filter.obj
 0002:00009efc       $unwind$__acrt_free_locale 0000000180029efc     libucrt:locale_refcounting.obj
 0002:00009efc       $unwind$_wassert           0000000180029efc     libucrt:assert.obj
 0002:00009efc       $unwind$__acrt_lowio_create_handle_array 0000000180029efc     libucrt:osfinfo.obj
 0002:00009efc       $unwind$?dllmain_raw@@YAHQEAUHINSTANCE__@@KQEAX@Z 0000000180029efc     LIBCMT:dll_dllmain.obj
 0002:00009efc       $unwind$?resize@?$vector@VCComVariant@@V?$allocator@VCComVariant@@@std@@@std@@QEAAX_K@Z 0000000180029efc     disp.obj
 0002:00009efc       $unwind$_recalloc_base     0000000180029efc     libucrt:recalloc.obj
 0002:00009efc       $unwind$?setSBCS@@YAXPEAU__crt_multibyte_data@@@Z 0000000180029efc     libucrt:mbctype.obj
 0002:00009efc       $unwind$__acrt_InitializeCriticalSectionEx 0000000180029efc     libucrt:winapi_thunks.obj
 0002:00009efc       $unwind$__acrt_execute_initializers 0000000180029efc     libucrt:shared_initialization.obj
 0002:00009efc       $unwind$?expand_if_necessary@?$argument_list@D@?A0xca0879c4@@AEAAHXZ 0000000180029efc     libucrt:argv_wildcards.obj
 0002:00009efc       $unwind$__vcrt_InitializeCriticalSectionEx 0000000180029efc     libvcruntime:winapi_downlevel.obj
 0002:00009efc       $unwind$??$ensure_buffer_is_big_enough@D@formatting_buffer@__crt_stdio_output@@QEAA_N_K@Z 0000000180029efc     libucrt:output.obj
 0002:00009efc       $unwind$?process@?$output_processor@DV?$string_output_adapter@D@__crt_stdio_output@@V?$format_validation_base@DV?$string_output_adapter@D@__crt_stdio_output@@@2@@__crt_stdio_output@@QEAAHXZ 0000000180029efc     libucrt:output.obj
 0002:00009efc       $unwind$__scrt_dllmain_exception_filter 0000000180029efc     LIBCMT:utility.obj
 0002:00009f10       $chain$0$?reserve@?$basic_string@_WU?$char_traits@_W@std@@V?$allocator@_W@2@@std@@QEAAX_K@Z 0000000180029f10     disp.obj
 0002:00009f24       $chain$1$?reserve@?$basic_string@_WU?$char_traits@_W@std@@V?$allocator@_W@2@@std@@QEAAX_K@Z 0000000180029f24     disp.obj
 0002:00009f34       $chain$4$?reserve@?$basic_string@_WU?$char_traits@_W@std@@V?$allocator@_W@2@@std@@QEAAX_K@Z 0000000180029f34     disp.obj
 0002:00009f34       $chain$2$?reserve@?$basic_string@_WU?$char_traits@_W@std@@V?$allocator@_W@2@@std@@QEAAX_K@Z 0000000180029f34     disp.obj
 0002:00009f48       $chain$0$?_Tidy@?$vector@VCComVariant@@V?$allocator@VCComVariant@@@std@@@std@@IEAAXXZ 0000000180029f48     disp.obj
 0002:00009f5c       $chain$1$?_Tidy@?$vector@VCComVariant@@V?$allocator@VCComVariant@@@std@@@std@@IEAAXXZ 0000000180029f5c     disp.obj
 0002:00009f6c       $unwind$?_Reserve@?$vector@VCComVariant@@V?$allocator@VCComVariant@@@std@@@std@@IEAAX_K@Z 0000000180029f6c     disp.obj
 0002:00009f74       $unwind$?insert@?$basic_string@_WU?$char_traits@_W@std@@V?$allocator@_W@2@@std@@QEAAAEAV12@_KPEB_W0@Z 0000000180029f74     disp.obj
 0002:00009f84       $chain$0$?insert@?$basic_string@_WU?$char_traits@_W@std@@V?$allocator@_W@2@@std@@QEAAAEAV12@_KPEB_W0@Z 0000000180029f84     disp.obj
 0002:00009f98       $chain$1$?insert@?$basic_string@_WU?$char_traits@_W@std@@V?$allocator@_W@2@@std@@QEAAAEAV12@_KPEB_W0@Z 0000000180029f98     disp.obj
 0002:00009fa8       $chain$2$?insert@?$basic_string@_WU?$char_traits@_W@std@@V?$allocator@_W@2@@std@@QEAAAEAV12@_KPEB_W0@Z 0000000180029fa8     disp.obj
 0002:00009fbc       $unwind$?insert@?$basic_string@_WU?$char_traits@_W@std@@V?$allocator@_W@2@@std@@QEAAAEAV12@_KAEBV12@00@Z 0000000180029fbc     disp.obj
 0002:00009fcc       $chain$0$?insert@?$basic_string@_WU?$char_traits@_W@std@@V?$allocator@_W@2@@std@@QEAAAEAV12@_KAEBV12@00@Z 0000000180029fcc     disp.obj
 0002:00009fe0       $chain$1$?insert@?$basic_string@_WU?$char_traits@_W@std@@V?$allocator@_W@2@@std@@QEAAAEAV12@_KAEBV12@00@Z 0000000180029fe0     disp.obj
 0002:00009ff4       $chain$3$?insert@?$basic_string@_WU?$char_traits@_W@std@@V?$allocator@_W@2@@std@@QEAAAEAV12@_KAEBV12@00@Z 0000000180029ff4     disp.obj
 0002:0000a004       $chain$4$?insert@?$basic_string@_WU?$char_traits@_W@std@@V?$allocator@_W@2@@std@@QEAAAEAV12@_KAEBV12@00@Z 000000018002a004     disp.obj
 0002:0000a018       $chain$5$?insert@?$basic_string@_WU?$char_traits@_W@std@@V?$allocator@_W@2@@std@@QEAAAEAV12@_KAEBV12@00@Z 000000018002a018     disp.obj
 0002:0000a030       $unwind$?_Reallocate@?$vector@VCComVariant@@V?$allocator@VCComVariant@@@std@@@std@@IEAAX_K@Z 000000018002a030     disp.obj
 0002:0000a040       $chain$3$?_Reallocate@?$vector@VCComVariant@@V?$allocator@VCComVariant@@@std@@@std@@IEAAX_K@Z 000000018002a040     disp.obj
 0002:0000a060       $chain$4$?_Reallocate@?$vector@VCComVariant@@V?$allocator@VCComVariant@@@std@@@std@@IEAAX_K@Z 000000018002a060     disp.obj
 0002:0000a070       $chain$5$?_Reallocate@?$vector@VCComVariant@@V?$allocator@VCComVariant@@@std@@@std@@IEAAX_K@Z 000000018002a070     disp.obj
 0002:0000a090       $unwind$?append@?$basic_string@_WU?$char_traits@_W@std@@V?$allocator@_W@2@@std@@QEAAAEAV12@PEB_W_K@Z 000000018002a090     disp.obj
 0002:0000a0a0       $chain$0$?append@?$basic_string@_WU?$char_traits@_W@std@@V?$allocator@_W@2@@std@@QEAAAEAV12@PEB_W_K@Z 000000018002a0a0     disp.obj
 0002:0000a0b4       $chain$1$?append@?$basic_string@_WU?$char_traits@_W@std@@V?$allocator@_W@2@@std@@QEAAAEAV12@PEB_W_K@Z 000000018002a0b4     disp.obj
 0002:0000a0c4       $chain$2$?append@?$basic_string@_WU?$char_traits@_W@std@@V?$allocator@_W@2@@std@@QEAAAEAV12@PEB_W_K@Z 000000018002a0c4     disp.obj
 0002:0000a0d8       $unwind$?append@?$basic_string@_WU?$char_traits@_W@std@@V?$allocator@_W@2@@std@@QEAAAEAV12@AEBV12@_K1@Z 000000018002a0d8     disp.obj
 0002:0000a0ec       $chain$0$?append@?$basic_string@_WU?$char_traits@_W@std@@V?$allocator@_W@2@@std@@QEAAAEAV12@AEBV12@_K1@Z 000000018002a0ec     disp.obj
 0002:0000a100       $chain$1$?append@?$basic_string@_WU?$char_traits@_W@std@@V?$allocator@_W@2@@std@@QEAAAEAV12@AEBV12@_K1@Z 000000018002a100     disp.obj
 0002:0000a110       $chain$2$?append@?$basic_string@_WU?$char_traits@_W@std@@V?$allocator@_W@2@@std@@QEAAAEAV12@AEBV12@_K1@Z 000000018002a110     disp.obj
 0002:0000a124       $unwind$??$Enumerate@V<lambda_898e84f45c2b961b8b7afcc5a4be41f0>@@@DispInfo@@QEAA_NV<lambda_898e84f45c2b961b8b7afcc5a4be41f0>@@@Z 000000018002a124     disp.obj
 0002:0000a134       $chain$1$??$Enumerate@V<lambda_898e84f45c2b961b8b7afcc5a4be41f0>@@@DispInfo@@QEAA_NV<lambda_898e84f45c2b961b8b7afcc5a4be41f0>@@@Z 000000018002a134     disp.obj
 0002:0000a14c       $chain$2$??$Enumerate@V<lambda_898e84f45c2b961b8b7afcc5a4be41f0>@@@DispInfo@@QEAA_NV<lambda_898e84f45c2b961b8b7afcc5a4be41f0>@@@Z 000000018002a14c     disp.obj
 0002:0000a15c       xdata                      000000018002a15c     node:node.exe
 0002:0000a164       $unwind$__dcrt_lowio_initialize_console_output 000000018002a164     libucrt:initcon.obj
 0002:0000a164       $unwind$?__scrt_throw_std_bad_array_new_length@@YAXXZ 000000018002a164     LIBCMT:throw_bad_alloc.obj
 0002:0000a164       $unwind$?_Xbad_alloc@std@@YAXXZ 000000018002a164     libcpmt:xthrow.obj
 0002:0000a164       $unwind$?__scrt_throw_std_bad_alloc@@YAXXZ 000000018002a164     LIBCMT:throw_bad_alloc.obj
 0002:0000a164       $unwind$_raise_exc         000000018002a164     libucrt:fpexcept.obj
 0002:0000a164       $unwind$?_Xlength_error@std@@YAXPEBD@Z 000000018002a164     libcpmt:xthrow.obj
 0002:0000a164       $unwind$?_Xout_of_range@std@@YAXPEBD@Z 000000018002a164     libcpmt:xthrow.obj
 0002:0000a170       $xdatasym                  000000018002a170     LIBCMT:_amdsecgs_.obj
 0002:0000a174       $unwind$__scrt_is_nonwritable_in_current_image 000000018002a174     LIBCMT:utility.obj
 0002:0000a194       $unwind$__scrt_is_nonwritable_in_current_image$filt$0 000000018002a194     LIBCMT:utility.obj
 0002:0000a19c       $unwind$__scrt_initialize_onexit_tables 000000018002a19c     LIBCMT:utility.obj
 0002:0000a1a8       $unwind$?dllmain_crt_process_attach@@YAHQEAUHINSTANCE__@@QEAX@Z 000000018002a1a8     LIBCMT:dll_dllmain.obj
 0002:0000a1d4       $unwind$?dllmain_crt_process_detach@@YAH_N@Z 000000018002a1d4     LIBCMT:dll_dllmain.obj
 0002:0000a1fc       $unwind$?dllmain_dispatch@@YAHQEAUHINSTANCE__@@KQEAX@Z 000000018002a1fc     LIBCMT:dll_dllmain.obj
 0002:0000a224       $unwind$?filt$0@?0??dllmain_dispatch@@YAHQEAUHINSTANCE__@@KQEAX@Z@4HA 000000018002a224     LIBCMT:dll_dllmain.obj
 0002:0000a22c       $unwind$__report_securityfailure 000000018002a22c     LIBCMT:gs_report.obj
 0002:0000a234       $unwind$capture_current_context 000000018002a234     LIBCMT:gs_report.obj
 0002:0000a240       $unwind$capture_previous_context 000000018002a240     LIBCMT:gs_report.obj
 0002:0000a24c       $unwind$__isa_available_init 000000018002a24c     LIBCMT:_cpu_disp_.obj
 0002:0000a25c       $unwind$__scrt_fastfail    000000018002a25c     LIBCMT:utility_desktop.obj
 0002:0000a26c       $unwind$__security_init_cookie 000000018002a26c     LIBCMT:gs_support.obj
 0002:0000a278       $xdatasym                  000000018002a278     LIBCMT:_guard_dispatch_.obj
 0002:0000a280       $xdatasym                  000000018002a280     libvcruntime:memcpy.obj
 0002:0000a284       $unwind$_CxxThrowException 000000018002a284     libvcruntime:throw.obj
 0002:0000a298       $unwind$__C_specific_handler 000000018002a298     libvcruntime:_chandler_.obj
 0002:0000a2b8       $xdatasym                  000000018002a2b8     libvcruntime:memset.obj
 0002:0000a2bc       $unwind$__vcrt_uninitialize_winapi_thunks 000000018002a2bc     libvcruntime:winapi_downlevel.obj
 0002:0000a2bc       $unwind$__acrt_stdio_end_temporary_buffering_nolock 000000018002a2bc     libucrt:_sftbuf.obj
 0002:0000a2c8       $xdatasym                  000000018002a2c8     libvcruntime:_jmpuwind_.obj
 0002:0000a2dc       $unwind$__stdio_common_vfwprintf 000000018002a2dc     libucrt:output.obj
 0002:0000a2e4       $unwind$?write_string@?$stream_output_adapter@_W@__crt_stdio_output@@QEBAXQEB_WHQEAH1@Z 000000018002a2e4     libucrt:output.obj
 0002:0000a2fc       $unwind$?process@?$output_processor@_WV?$stream_output_adapter@_W@__crt_stdio_output@@V?$standard_base@_WV?$stream_output_adapter@_W@__crt_stdio_output@@@2@@__crt_stdio_output@@QEAAHXZ 000000018002a2fc     libucrt:output.obj
 0002:0000a314       $unwind$?type_case_a@?$output_processor@_WV?$string_output_adapter@_W@__crt_stdio_output@@V?$format_validation_base@_WV?$string_output_adapter@_W@__crt_stdio_output@@@2@@__crt_stdio_output@@AEAA_NXZ 000000018002a314     libucrt:output.obj
 0002:0000a314       $unwind$?type_case_a@?$output_processor@_WV?$stream_output_adapter@_W@__crt_stdio_output@@V?$standard_base@_WV?$stream_output_adapter@_W@__crt_stdio_output@@@2@@__crt_stdio_output@@AEAA_NXZ 000000018002a314     libucrt:output.obj
 0002:0000a314       $unwind$?type_case_a@?$output_processor@_WV?$string_output_adapter@_W@__crt_stdio_output@@V?$standard_base@_WV?$string_output_adapter@_W@__crt_stdio_output@@@2@@__crt_stdio_output@@AEAA_NXZ 000000018002a314     libucrt:output.obj
 0002:0000a324       $unwind$?write_stored_string_tchar@?$output_processor@_WV?$stream_output_adapter@_W@__crt_stdio_output@@V?$standard_base@_WV?$stream_output_adapter@_W@__crt_stdio_output@@@2@@__crt_stdio_output@@AEAA_N_W@Z 000000018002a324     libucrt:output.obj
 0002:0000a338       $unwind$??R<lambda_dd75445284c072d0bd3768540cc698fa>@@QEBAHXZ 000000018002a338     libucrt:output.obj
 0002:0000a354       $unwind$?write_stored_string_tchar@?$output_processor@_WV?$string_output_adapter@_W@__crt_stdio_output@@V?$format_validation_base@_WV?$string_output_adapter@_W@__crt_stdio_output@@@2@@__crt_stdio_output@@AEAA_N_W@Z 000000018002a354     libucrt:output.obj
 0002:0000a354       $unwind$?write_stored_string_tchar@?$output_processor@_WV?$string_output_adapter@_W@__crt_stdio_output@@V?$standard_base@_WV?$string_output_adapter@_W@__crt_stdio_output@@@2@@__crt_stdio_output@@AEAA_N_W@Z 000000018002a354     libucrt:output.obj
 0002:0000a368       $unwind$??$common_vsprintf@Vformat_validation_base@__crt_stdio_output@@D@@YAH_KQEAD0QEBDQEAU__crt_locale_pointers@@1@Z 000000018002a368     libucrt:output.obj
 0002:0000a388       $unwind$??$common_vsprintf@Vformat_validation_base@__crt_stdio_output@@_W@@YAH_KQEA_W0QEB_WQEAU__crt_locale_pointers@@QEAD@Z 000000018002a388     libucrt:output.obj
 0002:0000a388       $unwind$__stdio_common_vswprintf 000000018002a388     libucrt:output.obj
 0002:0000a3ac       $unwind$??$write_multiple_characters@V?$stream_output_adapter@_W@__crt_stdio_output@@D@__crt_stdio_output@@YAXAEBV?$stream_output_adapter@_W@0@DHQEAH@Z 000000018002a3ac     libucrt:output.obj
 0002:0000a3c4       $unwind$??$type_case_integer_parse_into_buffer@_K@?$output_processor@_WV?$string_output_adapter@_W@__crt_stdio_output@@V?$standard_base@_WV?$string_output_adapter@_W@__crt_stdio_output@@@2@@__crt_stdio_output@@AEAAX_KI_N@Z 000000018002a3c4     libucrt:output.obj
 0002:0000a3c4       $unwind$??$type_case_integer_parse_into_buffer@I@?$output_processor@_WV?$string_output_adapter@_W@__crt_stdio_output@@V?$standard_base@_WV?$string_output_adapter@_W@__crt_stdio_output@@@2@@__crt_stdio_output@@AEAAXII_N@Z 000000018002a3c4     libucrt:output.obj
 0002:0000a3c4       $unwind$??$write_multiple_characters@V?$string_output_adapter@D@__crt_stdio_output@@D@__crt_stdio_output@@YAXAEBV?$string_output_adapter@D@0@DHQEAH@Z 000000018002a3c4     libucrt:output.obj
 0002:0000a3c4       $unwind$??$type_case_integer_parse_into_buffer@_K@?$output_processor@_WV?$stream_output_adapter@_W@__crt_stdio_output@@V?$standard_base@_WV?$stream_output_adapter@_W@__crt_stdio_output@@@2@@__crt_stdio_output@@AEAAX_KI_N@Z 000000018002a3c4     libucrt:output.obj
 0002:0000a3c4       $unwind$??$type_case_integer_parse_into_buffer@I@?$output_processor@_WV?$string_output_adapter@_W@__crt_stdio_output@@V?$format_validation_base@_WV?$string_output_adapter@_W@__crt_stdio_output@@@2@@__crt_stdio_output@@AEAAXII_N@Z 000000018002a3c4     libucrt:output.obj
 0002:0000a3c4       $unwind$??$type_case_integer_parse_into_buffer@_K@?$output_processor@_WV?$string_output_adapter@_W@__crt_stdio_output@@V?$format_validation_base@_WV?$string_output_adapter@_W@__crt_stdio_output@@@2@@__crt_stdio_output@@AEAAX_KI_N@Z 000000018002a3c4     libucrt:output.obj
 0002:0000a3c4       $unwind$??$type_case_integer_parse_into_buffer@I@?$output_processor@DV?$string_output_adapter@D@__crt_stdio_output@@V?$format_validation_base@DV?$string_output_adapter@D@__crt_stdio_output@@@2@@__crt_stdio_output@@AEAAXII_N@Z 000000018002a3c4     libucrt:output.obj
 0002:0000a3c4       $unwind$??$type_case_integer_parse_into_buffer@I@?$output_processor@_WV?$stream_output_adapter@_W@__crt_stdio_output@@V?$standard_base@_WV?$stream_output_adapter@_W@__crt_stdio_output@@@2@@__crt_stdio_output@@AEAAXII_N@Z 000000018002a3c4     libucrt:output.obj
 0002:0000a3c4       $unwind$??$type_case_integer_parse_into_buffer@_K@?$output_processor@DV?$string_output_adapter@D@__crt_stdio_output@@V?$format_validation_base@DV?$string_output_adapter@D@__crt_stdio_output@@@2@@__crt_stdio_output@@AEAAX_KI_N@Z 000000018002a3c4     libucrt:output.obj
 0002:0000a3cc       $unwind$??$write_multiple_characters@V?$string_output_adapter@_W@__crt_stdio_output@@D@__crt_stdio_output@@YAXAEBV?$string_output_adapter@_W@0@DHQEAH@Z 000000018002a3cc     libucrt:output.obj
 0002:0000a3d8       $unwind$??$?RV<lambda_7b91131dde12e1c3dfc74ff76b3f2eac>@@AEAV<lambda_dd75445284c072d0bd3768540cc698fa>@@V<lambda_16bc4ecb55b4718497c16bceaea2ceaf>@@@?$__crt_seh_guarded_call@H@@QEAAH$$QEAV<lambda_7b91131dde12e1c3dfc74ff76b3f2eac>@@AEAV<lambda_dd75445284c072d0bd3768540cc698fa>@@$$QEAV<lambda_16bc4ecb55b4718497c16bceaea2ceaf>@@@Z 000000018002a3d8     libucrt:output.obj
 0002:0000a3fc       $unwind$?parse_int_from_format_string@?$output_processor@DV?$string_output_adapter@D@__crt_stdio_output@@V?$format_validation_base@DV?$string_output_adapter@D@__crt_stdio_output@@@2@@__crt_stdio_output@@AEAA_NQEAH@Z 000000018002a3fc     libucrt:output.obj
 0002:0000a410       $unwind$?state_case_type@?$output_processor@DV?$string_output_adapter@D@__crt_stdio_output@@V?$format_validation_base@DV?$string_output_adapter@D@__crt_stdio_output@@@2@@__crt_stdio_output@@AEAA_NXZ 000000018002a410     libucrt:output.obj
 0002:0000a428       $unwind$?type_case_a@?$output_processor@DV?$string_output_adapter@D@__crt_stdio_output@@V?$format_validation_base@DV?$string_output_adapter@D@__crt_stdio_output@@@2@@__crt_stdio_output@@AEAA_NXZ 000000018002a428     libucrt:output.obj
 0002:0000a434       $unwind$?write_stored_string_tchar@?$output_processor@DV?$string_output_adapter@D@__crt_stdio_output@@V?$format_validation_base@DV?$string_output_adapter@D@__crt_stdio_output@@@2@@__crt_stdio_output@@AEAA_ND@Z 000000018002a434     libucrt:output.obj
 0002:0000a44c       $unwind$?state_case_type@?$output_processor@_WV?$stream_output_adapter@_W@__crt_stdio_output@@V?$standard_base@_WV?$stream_output_adapter@_W@__crt_stdio_output@@@2@@__crt_stdio_output@@AEAA_NXZ 000000018002a44c     libucrt:output.obj
 0002:0000a44c       $unwind$?state_case_type@?$output_processor@_WV?$string_output_adapter@_W@__crt_stdio_output@@V?$format_validation_base@_WV?$string_output_adapter@_W@__crt_stdio_output@@@2@@__crt_stdio_output@@AEAA_NXZ 000000018002a44c     libucrt:output.obj
 0002:0000a44c       $unwind$?state_case_type@?$output_processor@_WV?$string_output_adapter@_W@__crt_stdio_output@@V?$standard_base@_WV?$string_output_adapter@_W@__crt_stdio_output@@@2@@__crt_stdio_output@@AEAA_NXZ 000000018002a44c     libucrt:output.obj
 0002:0000a470       $unwind$??$common_assert_to_stderr@_W@@YAXQEB_W0I@Z 000000018002a470     libucrt:assert.obj
 0002:0000a48c       $unwind$??$common_assert_to_message_box@_W@@YAXQEB_W0IQEAX@Z 000000018002a48c     libucrt:assert.obj
 0002:0000a4a8       $unwind$??$common_assert_to_message_box_build_string@_W@@YAXQEA_W_KQEB_W2IQEAX@Z 000000018002a4a8     libucrt:assert.obj
 0002:0000a4c8       $unwind$__acrt_call_reportfault 000000018002a4c8     libucrt:invalid_parameter.obj
 0002:0000a4e8       $unwind$_invalid_parameter 000000018002a4e8     libucrt:invalid_parameter.obj
 0002:0000a500       $unwind$_wcsicmp_l         000000018002a500     libucrt:wcsicmp.obj
 0002:0000a514       $unwind$_stricmp_l         000000018002a514     libucrt:stricmp.obj
 0002:0000a514       $unwind$?x_ismbbtype_l@@YAHPEAU__crt_locale_pointers@@IHH@Z 000000018002a514     libucrt:ismbbyte.obj
 0002:0000a524       $unwind$_query_new_handler 000000018002a524     libucrt:new_handler.obj
 0002:0000a544       $unwind$?common_exit@@YAXHW4_crt_exit_cleanup_mode@@W4_crt_exit_return_mode@@@Z 000000018002a544     libucrt:exit.obj
 0002:0000a584       $unwind$_configure_narrow_argv 000000018002a584     libucrt:argv_parsing.obj
 0002:0000a598       $unwind$?write_string@?$string_output_adapter@D@__crt_stdio_output@@QEBAXQEBDHQEAH1@Z 000000018002a598     libucrt:output.obj
 0002:0000a598       $unwind$??R<lambda_4e60a939b0d047cfe11ddc22648dfba9>@@QEBAHXZ 000000018002a598     libucrt:onexit.obj
 0002:0000a598       $unwind$??$parse_command_line@D@@YAXPEADPEAPEAD0PEA_K2@Z 000000018002a598     libucrt:argv_parsing.obj
 0002:0000a5b4       $unwind$??$create_environment@D@@YAQEAPEADQEAD@Z 000000018002a5b4     libucrt:environment_initialization.obj
 0002:0000a5cc       $unwind$_register_onexit_function 000000018002a5cc     libucrt:onexit.obj
 0002:0000a5d4       $unwind$_execute_onexit_table 000000018002a5d4     libucrt:onexit.obj
 0002:0000a5dc       $unwind$??$?RV<lambda_b8c45f8f788dd370798f47cfe8ac3a86>@@AEAV<lambda_4e60a939b0d047cfe11ddc22648dfba9>@@V<lambda_332c3edc96d0294ec56c57d38c1cdfd5>@@@?$__crt_seh_guarded_call@H@@QEAAH$$QEAV<lambda_b8c45f8f788dd370798f47cfe8ac3a86>@@AEAV<lambda_4e60a939b0d047cfe11ddc22648dfba9>@@$$QEAV<lambda_332c3edc96d0294ec56c57d38c1cdfd5>@@@Z 000000018002a5dc     libucrt:onexit.obj
 0002:0000a600       $unwind$??$?RV<lambda_e24bbb7b643b32fcea6fa61b31d4c984>@@AEAV<lambda_275893d493268fdec8709772e3fcec0e>@@V<lambda_9d71df4d7cf3f480f8d633942495c3b0>@@@?$__crt_seh_guarded_call@H@@QEAAH$$QEAV<lambda_e24bbb7b643b32fcea6fa61b31d4c984>@@AEAV<lambda_275893d493268fdec8709772e3fcec0e>@@$$QEAV<lambda_9d71df4d7cf3f480f8d633942495c3b0>@@@Z 000000018002a600     libucrt:onexit.obj
 0002:0000a630       $unwind$terminate          000000018002a630     libucrt:terminate.obj
 0002:0000a650       $unwind$??$parse_integer@KV?$c_string_character_source@D@__crt_strtox@@@__crt_strtox@@YAKQEAU__crt_locale_pointers@@V?$c_string_character_source@D@0@H_N@Z 000000018002a650     libucrt:atox.obj
 0002:0000a66c       $unwind$??$parse_integer@KV?$c_string_character_source@_W@__crt_strtox@@@__crt_strtox@@YAKQEAU__crt_locale_pointers@@V?$c_string_character_source@_W@0@H_N@Z 000000018002a66c     libucrt:atox.obj
 0002:0000a688       $unwind$_tolower_l         000000018002a688     libucrt:tolower_toupper.obj
 0002:0000a698       $unwind$_invalid_parameter_noinfo_noreturn 000000018002a698     libucrt:invalid_parameter.obj
 0002:0000a698       $unwind$_itow_s            000000018002a698     libucrt:xtoa.obj
 0002:0000a698       $unwind$_log10_special     000000018002a698     libucrt:log_special.obj
 0002:0000a698       $unwind$_invalid_parameter_noinfo 000000018002a698     libucrt:invalid_parameter.obj
 0002:0000a698       $unwind$wctomb_s           000000018002a698     libucrt:wctomb.obj
 0002:0000a6a0       $unwind$_wctomb_s_l        000000018002a6a0     libucrt:wctomb.obj
 0002:0000a6b0       $unwind$wcsnlen            000000018002a6b0     libucrt:strnlen.obj
 0002:0000a6b0       $unwind$strnlen            000000018002a6b0     libucrt:strnlen.obj
 0002:0000a6b8       $unwind$__acrt_locale_free_numeric 000000018002a6b8     libucrt:initnum.obj
 0002:0000a6b8       $unwind$?destroy_fls@@YAXPEAX@Z 000000018002a6b8     libucrt:per_thread_data.obj
 0002:0000a6b8       $unwind$__acrt_locale_free_lc_time_if_unreferenced 000000018002a6b8     libucrt:locale_refcounting.obj
 0002:0000a6b8       $unwind$_free_base         000000018002a6b8     libucrt:free_base.obj
 0002:0000a6c0       $unwind$?construct_ptd_array@@YAXQEAU__acrt_ptd@@@Z 000000018002a6c0     libucrt:per_thread_data.obj
 0002:0000a6c8       $unwind$?destroy_ptd_array@@YAXQEAU__acrt_ptd@@@Z 000000018002a6c8     libucrt:per_thread_data.obj
 0002:0000a6d0       $unwind$??$?RV<lambda_72d1df2b273a38828b1ce30cbf4cdab5>@@AEAV<lambda_876a65b173b8412d3a47c70a915b0cf4>@@V<lambda_41932305e351933ebe8f8be3ed8bb5dc>@@@?$__crt_seh_guarded_call@X@@QEAAX$$QEAV<lambda_72d1df2b273a38828b1ce30cbf4cdab5>@@AEAV<lambda_876a65b173b8412d3a47c70a915b0cf4>@@$$QEAV<lambda_41932305e351933ebe8f8be3ed8bb5dc>@@@Z 000000018002a6d0     libucrt:per_thread_data.obj
 0002:0000a6f4       $unwind$??$?RV<lambda_5e887d1dcbef67a5eb4283622ba103bf>@@AEAV<lambda_4466841279450cc726390878d4a41900>@@V<lambda_341c25c0346d94847f1f3c463c57e077>@@@?$__crt_seh_guarded_call@X@@QEAAX$$QEAV<lambda_5e887d1dcbef67a5eb4283622ba103bf>@@AEAV<lambda_4466841279450cc726390878d4a41900>@@$$QEAV<lambda_341c25c0346d94847f1f3c463c57e077>@@@Z 000000018002a6f4     libucrt:per_thread_data.obj
 0002:0000a718       $unwind$??$?RV<lambda_46352004c1216016012b18bd6f87e700>@@AEAV<lambda_3bd07e1a1191394380780325891bf33f>@@V<lambda_334532d3f185bcaa59b5be82d7d22bff>@@@?$__crt_seh_guarded_call@X@@QEAAX$$QEAV<lambda_46352004c1216016012b18bd6f87e700>@@AEAV<lambda_3bd07e1a1191394380780325891bf33f>@@$$QEAV<lambda_334532d3f185bcaa59b5be82d7d22bff>@@@Z 000000018002a718     libucrt:per_thread_data.obj
 0002:0000a73c       $unwind$??$?RV<lambda_fb3a7dec4e47f37f22dae91bb15c9095>@@AEAV<lambda_698284760c8add0bfb0756c19673e34b>@@V<lambda_dfb8eca1e75fef3034a8fb18dd509707>@@@?$__crt_seh_guarded_call@X@@QEAAX$$QEAV<lambda_fb3a7dec4e47f37f22dae91bb15c9095>@@AEAV<lambda_698284760c8add0bfb0756c19673e34b>@@$$QEAV<lambda_dfb8eca1e75fef3034a8fb18dd509707>@@@Z 000000018002a73c     libucrt:per_thread_data.obj
 0002:0000a760       $unwind$__acrt_fp_format   000000018002a760     libucrt:cvt.obj
 0002:0000a77c       $unwind$?fp_format_nan_or_infinity@@YAHW4__acrt_fp_class@@_NPEAD_K1@Z 000000018002a77c     libucrt:cvt.obj
 0002:0000a790       $unwind$?fp_format_e_internal@@YAHQEAD_KH_NIQEAU_strflt@@2QEAU__crt_locale_pointers@@@Z 000000018002a790     libucrt:cvt.obj
 0002:0000a7a8       $unwind$?fp_format_e@@YAHQEBNQEAD_K12H_NIQEAU__crt_locale_pointers@@@Z 000000018002a7a8     libucrt:cvt.obj
 0002:0000a7a8       $unwind$__acrt_LCMapStringW 000000018002a7a8     libucrt:lcmapstringw.obj
 0002:0000a7bc       $unwind$?fp_format_a@@YAHQEBNPEAD_KQEAD2H_NIQEAU__crt_locale_pointers@@@Z 000000018002a7bc     libucrt:cvt.obj
 0002:0000a7d8       $unwind$?fp_format_f_internal@@YAHQEAD_KHQEAU_strflt@@_NQEAU__crt_locale_pointers@@@Z 000000018002a7d8     libucrt:cvt.obj
 0002:0000a7d8       $unwind$__dcrt_get_narrow_environment_from_os 000000018002a7d8     libucrt:get_environment_from_os.obj
 0002:0000a7f0       $unwind$?fp_format_g@@YAHQEBNQEAD_K12H_NIQEAU__crt_locale_pointers@@@Z 000000018002a7f0     libucrt:cvt.obj
 0002:0000a804       $unwind$_fputwc_nolock     000000018002a804     libucrt:fputwc.obj
 0002:0000a820       $unwind$__acrt_initialize_stdio 000000018002a820     libucrt:_file.obj
 0002:0000a820       $unwind$_initterm          000000018002a820     libucrt:initterm.obj
 0002:0000a820       $unwind$__acrt_MessageBoxW 000000018002a820     libucrt:winapi_thunks.obj
 0002:0000a820       $unwind$?process@?$output_processor@_WV?$string_output_adapter@_W@__crt_stdio_output@@V?$format_validation_base@_WV?$string_output_adapter@_W@__crt_stdio_output@@@2@@__crt_stdio_output@@QEAAHXZ 000000018002a820     libucrt:output.obj
 0002:0000a820       $unwind$?process@?$output_processor@_WV?$string_output_adapter@_W@__crt_stdio_output@@V?$standard_base@_WV?$string_output_adapter@_W@__crt_stdio_output@@@2@@__crt_stdio_output@@QEAAHXZ 000000018002a820     libucrt:output.obj
 0002:0000a838       $unwind$__acrt_uninitialize_locale 000000018002a838     libucrt:wsetlocale.obj
 0002:0000a858       $unwind$__acrt_initialize_lowio 000000018002a858     libucrt:ioinit.obj
 0002:0000a878       $unwind$?initialize_inherited_file_handles_nolock@@YAXXZ 000000018002a878     libucrt:ioinit.obj
 0002:0000a894       $unwind$??0out_of_range@std@@QEAA@PEBD@Z 000000018002a894     libcpmt:xthrow.obj
 0002:0000a894       $unwind$??0length_error@std@@QEAA@PEBD@Z 000000018002a894     libcpmt:xthrow.obj
 0002:0000a894       $unwind$wcstol             000000018002a894     libucrt:strtox.obj
 0002:0000a894       $unwind$strtol             000000018002a894     libucrt:strtox.obj
 0002:0000a894       $unwind$??$common_xtox_s@K_W@@YAHKQEA_W_KI_N@Z 000000018002a894     libucrt:xtoa.obj
 0002:0000a894       $unwind$__stdio_common_vsprintf_s 000000018002a894     libucrt:output.obj
 0002:0000a89c       $unwind$fflush             000000018002a89c     libucrt:fflush.obj
 0002:0000a8c0       $unwind$common_flush_all   000000018002a8c0     libucrt:fflush.obj
 0002:0000a8fc       $unwind$setvbuf            000000018002a8fc     libucrt:setvbuf.obj
 0002:0000a904       $unwind$?type_case_c_tchar@?$output_processor@_WV?$string_output_adapter@_W@__crt_stdio_output@@V?$standard_base@_WV?$string_output_adapter@_W@__crt_stdio_output@@@2@@__crt_stdio_output@@AEAA_N_W@Z 000000018002a904     libucrt:output.obj
 0002:0000a904       $unwind$??R<lambda_b721fa326cdb32351d23dfa67958c160>@@QEBAHXZ 000000018002a904     libucrt:setvbuf.obj
 0002:0000a904       $unwind$?type_case_c_tchar@?$output_processor@_WV?$stream_output_adapter@_W@__crt_stdio_output@@V?$standard_base@_WV?$stream_output_adapter@_W@__crt_stdio_output@@@2@@__crt_stdio_output@@AEAA_N_W@Z 000000018002a904     libucrt:output.obj
 0002:0000a904       $unwind$?type_case_c_tchar@?$output_processor@_WV?$string_output_adapter@_W@__crt_stdio_output@@V?$format_validation_base@_WV?$string_output_adapter@_W@__crt_stdio_output@@@2@@__crt_stdio_output@@AEAA_N_W@Z 000000018002a904     libucrt:output.obj
 0002:0000a914       $unwind$??$?RV<lambda_7a5ef57ff966f610505f1d28a3d40618>@@AEAV<lambda_b721fa326cdb32351d23dfa67958c160>@@V<lambda_5e0fb27672408a07956fe59e48ccb2aa>@@@?$__crt_seh_guarded_call@H@@QEAAH$$QEAV<lambda_7a5ef57ff966f610505f1d28a3d40618>@@AEAV<lambda_b721fa326cdb32351d23dfa67958c160>@@$$QEAV<lambda_5e0fb27672408a07956fe59e48ccb2aa>@@@Z 000000018002a914     libucrt:setvbuf.obj
 0002:0000a938       $unwind$__acrt_get_sigabrt_handler 000000018002a938     libucrt:signal.obj
 0002:0000a940       $unwind$raise              000000018002a940     libucrt:signal.obj
 0002:0000a96c       $unwind$fflush$fin$0       000000018002a96c     libucrt:fflush.obj
 0002:0000a96c       $unwind$_IsNonwritableInCurrentImage$filt$0 000000018002a96c     LIBCMT:pesect.obj
 0002:0000a96c       $unwind$common_control87$filt$0 000000018002a96c     libucrt:ieee.obj
 0002:0000a96c       $unwind$?fin$0@?0???$?RV<lambda_7a5ef57ff966f610505f1d28a3d40618>@@AEAV<lambda_b721fa326cdb32351d23dfa67958c160>@@V<lambda_5e0fb27672408a07956fe59e48ccb2aa>@@@?$__crt_seh_guarded_call@H@@QEAAH$$QEAV<lambda_7a5ef57ff966f610505f1d28a3d40618>@@AEAV<lambda_b721fa326cdb32351d23dfa67958c160>@@$$QEAV<lambda_5e0fb27672408a07956fe59e48ccb2aa>@@@Z@4HA 000000018002a96c     libucrt:setvbuf.obj
 0002:0000a96c       $unwind$__acrt_initialize_lowio$fin$0 000000018002a96c     libucrt:ioinit.obj
 0002:0000a96c       $unwind$fclose$fin$0       000000018002a96c     libucrt:fclose.obj
 0002:0000a96c       $unwind$?fin$0@?0???$?RV<lambda_fb3a7dec4e47f37f22dae91bb15c9095>@@AEAV<lambda_698284760c8add0bfb0756c19673e34b>@@V<lambda_dfb8eca1e75fef3034a8fb18dd509707>@@@?$__crt_seh_guarded_call@X@@QEAAX$$QEAV<lambda_fb3a7dec4e47f37f22dae91bb15c9095>@@AEAV<lambda_698284760c8add0bfb0756c19673e34b>@@$$QEAV<lambda_dfb8eca1e75fef3034a8fb18dd509707>@@@Z@4HA 000000018002a96c     libucrt:per_thread_data.obj
 0002:0000a96c       $unwind$_fcloseall$fin$0   000000018002a96c     libucrt:closeall.obj
 0002:0000a96c       $unwind$?fin$0@?0???$?RV<lambda_c36588078e9f5dfd39652860aa6b3aaf>@@AEAV<lambda_ec61778202f4f5fc7e7711acc23c3bca>@@V<lambda_dc9d2797ccde5d239b4a0efae8ebd7db>@@@?$__crt_seh_guarded_call@P6AXH@Z@@QEAAP6AXH@Z$$QEAV<lambda_c36588078e9f5dfd39652860aa6b3aaf>@@AEAV<lambda_ec61778202f4f5fc7e7711acc23c3bca>@@$$QEAV<lambda_dc9d2797ccde5d239b4a0efae8ebd7db>@@@Z@4HA 000000018002a96c     libucrt:signal.obj
 0002:0000a96c       $unwind$_query_new_handler$fin$0 000000018002a96c     libucrt:new_handler.obj
 0002:0000a96c       $unwind$__acrt_uninitialize_locale$fin$0 000000018002a96c     libucrt:wsetlocale.obj
 0002:0000a96c       $unwind$?fin$0@?0???$common_lseek@_J@@YA_JH_JH@Z@4HA 000000018002a96c     libucrt:lseek.obj
 0002:0000a96c       $unwind$_write$fin$0       000000018002a96c     libucrt:write.obj
 0002:0000a96c       $unwind$?fin$0@?0???$?RV<lambda_46352004c1216016012b18bd6f87e700>@@AEAV<lambda_3bd07e1a1191394380780325891bf33f>@@V<lambda_334532d3f185bcaa59b5be82d7d22bff>@@@?$__crt_seh_guarded_call@X@@QEAAX$$QEAV<lambda_46352004c1216016012b18bd6f87e700>@@AEAV<lambda_3bd07e1a1191394380780325891bf33f>@@$$QEAV<lambda_334532d3f185bcaa59b5be82d7d22bff>@@@Z@4HA 000000018002a96c     libucrt:per_thread_data.obj
 0002:0000a96c       $unwind$?fin$0@?0???$?RV<lambda_bfedae4ebbf01fab1bb6dcc6a9e276e0>@@AEAV<lambda_2fe9b910cf3cbf4a0ab98a02ba45b3ec>@@V<lambda_237c231691f317818eb88cc1d5d642d6>@@@?$__crt_seh_guarded_call@H@@QEAAH$$QEAV<lambda_bfedae4ebbf01fab1bb6dcc6a9e276e0>@@AEAV<lambda_2fe9b910cf3cbf4a0ab98a02ba45b3ec>@@$$QEAV<lambda_237c231691f317818eb88cc1d5d642d6>@@@Z@4HA 000000018002a96c     libucrt:close.obj
 0002:0000a96c       $unwind$?fin$0@?0???$?RV<lambda_99476a1ad63dd22509b5d3e65b0ffc95>@@AEAV<lambda_ad1ced32f4ac17aa236e5ef05d6b3b7c>@@V<lambda_f7424dd8d45958661754dc4f2697e9c3>@@@?$__crt_seh_guarded_call@X@@QEAAX$$QEAV<lambda_99476a1ad63dd22509b5d3e65b0ffc95>@@AEAV<lambda_ad1ced32f4ac17aa236e5ef05d6b3b7c>@@$$QEAV<lambda_f7424dd8d45958661754dc4f2697e9c3>@@@Z@4HA 000000018002a96c     libucrt:mbctype.obj
 0002:0000a96c       $unwind$common_flush_all$fin$1 000000018002a96c     libucrt:fflush.obj
 0002:0000a96c       $unwind$_ctrlfp$filt$0     000000018002a96c     libucrt:fpctrl.obj
 0002:0000a96c       $unwind$?fin$0@?0???$?RV<lambda_e24bbb7b643b32fcea6fa61b31d4c984>@@AEAV<lambda_275893d493268fdec8709772e3fcec0e>@@V<lambda_9d71df4d7cf3f480f8d633942495c3b0>@@@?$__crt_seh_guarded_call@H@@QEAAH$$QEAV<lambda_e24bbb7b643b32fcea6fa61b31d4c984>@@AEAV<lambda_275893d493268fdec8709772e3fcec0e>@@$$QEAV<lambda_9d71df4d7cf3f480f8d633942495c3b0>@@@Z@4HA 000000018002a96c     libucrt:onexit.obj
 0002:0000a96c       $unwind$?fin$1@?0??common_exit@@YAXHW4_crt_exit_cleanup_mode@@W4_crt_exit_return_mode@@@Z@4HA 000000018002a96c     libucrt:exit.obj
 0002:0000a96c       $unwind$?fin$0@?0??dllmain_crt_process_attach@@YAHQEAUHINSTANCE__@@QEAX@Z@4HA 000000018002a96c     LIBCMT:dll_dllmain.obj
 0002:0000a96c       $unwind$raise$fin$0        000000018002a96c     libucrt:signal.obj
 0002:0000a96c       $unwind$?fin$0@?0???$?RV<lambda_b8c45f8f788dd370798f47cfe8ac3a86>@@AEAV<lambda_4e60a939b0d047cfe11ddc22648dfba9>@@V<lambda_332c3edc96d0294ec56c57d38c1cdfd5>@@@?$__crt_seh_guarded_call@H@@QEAAH$$QEAV<lambda_b8c45f8f788dd370798f47cfe8ac3a86>@@AEAV<lambda_4e60a939b0d047cfe11ddc22648dfba9>@@$$QEAV<lambda_332c3edc96d0294ec56c57d38c1cdfd5>@@@Z@4HA 000000018002a96c     libucrt:onexit.obj
 0002:0000a96c       $unwind$common_flush_all$fin$0 000000018002a96c     libucrt:fflush.obj
 0002:0000a96c       $unwind$__acrt_lowio_ensure_fh_exists$fin$0 000000018002a96c     libucrt:osfinfo.obj
 0002:0000a96c       $unwind$__acrt_update_thread_locale_data$fin$0 000000018002a96c     libucrt:locale_refcounting.obj
 0002:0000a96c       $unwind$?fin$0@?0???$?RV<lambda_72d1df2b273a38828b1ce30cbf4cdab5>@@AEAV<lambda_876a65b173b8412d3a47c70a915b0cf4>@@V<lambda_41932305e351933ebe8f8be3ed8bb5dc>@@@?$__crt_seh_guarded_call@X@@QEAAX$$QEAV<lambda_72d1df2b273a38828b1ce30cbf4cdab5>@@AEAV<lambda_876a65b173b8412d3a47c70a915b0cf4>@@$$QEAV<lambda_41932305e351933ebe8f8be3ed8bb5dc>@@@Z@4HA 000000018002a96c     libucrt:per_thread_data.obj
 0002:0000a96c       $unwind$?fin$0@?0???$?RV<lambda_b521505b218e5242e90febf6bfebc422>@@AEAV<lambda_6978c1fb23f02e42e1d9e99668cc68aa>@@V<lambda_314360699dd331753a4119843814e9a7>@@@?$__crt_seh_guarded_call@H@@QEAAH$$QEAV<lambda_b521505b218e5242e90febf6bfebc422>@@AEAV<lambda_6978c1fb23f02e42e1d9e99668cc68aa>@@$$QEAV<lambda_314360699dd331753a4119843814e9a7>@@@Z@4HA 000000018002a96c     libucrt:commit.obj
 0002:0000a96c       $unwind$?fin$0@?0???$?RV<lambda_5e887d1dcbef67a5eb4283622ba103bf>@@AEAV<lambda_4466841279450cc726390878d4a41900>@@V<lambda_341c25c0346d94847f1f3c463c57e077>@@@?$__crt_seh_guarded_call@X@@QEAAX$$QEAV<lambda_5e887d1dcbef67a5eb4283622ba103bf>@@AEAV<lambda_4466841279450cc726390878d4a41900>@@$$QEAV<lambda_341c25c0346d94847f1f3c463c57e077>@@@Z@4HA 000000018002a96c     libucrt:per_thread_data.obj
 0002:0000a96c       $unwind$?filt$0@?0??common_exit@@YAXHW4_crt_exit_cleanup_mode@@W4_crt_exit_return_mode@@@Z@4HA 000000018002a96c     libucrt:exit.obj
 0002:0000a96c       $unwind$?fin$0@?0??dllmain_crt_process_detach@@YAH_N@Z@4HA 000000018002a96c     LIBCMT:dll_dllmain.obj
 0002:0000a96c       $unwind$?fin$0@?0???$?RV<lambda_7b91131dde12e1c3dfc74ff76b3f2eac>@@AEAV<lambda_dd75445284c072d0bd3768540cc698fa>@@V<lambda_16bc4ecb55b4718497c16bceaea2ceaf>@@@?$__crt_seh_guarded_call@H@@QEAAH$$QEAV<lambda_7b91131dde12e1c3dfc74ff76b3f2eac>@@AEAV<lambda_dd75445284c072d0bd3768540cc698fa>@@$$QEAV<lambda_16bc4ecb55b4718497c16bceaea2ceaf>@@@Z@4HA 000000018002a96c     libucrt:output.obj
 0002:0000a96c       $unwind$__acrt_update_thread_multibyte_data$fin$0 000000018002a96c     libucrt:mbctype.obj
 0002:0000a974       $unwind$??$?RV<lambda_c36588078e9f5dfd39652860aa6b3aaf>@@AEAV<lambda_ec61778202f4f5fc7e7711acc23c3bca>@@V<lambda_dc9d2797ccde5d239b4a0efae8ebd7db>@@@?$__crt_seh_guarded_call@P6AXH@Z@@QEAAP6AXH@Z$$QEAV<lambda_c36588078e9f5dfd39652860aa6b3aaf>@@AEAV<lambda_ec61778202f4f5fc7e7711acc23c3bca>@@$$QEAV<lambda_dc9d2797ccde5d239b4a0efae8ebd7db>@@@Z 000000018002a974     libucrt:signal.obj
 0002:0000a998       $unwind$_towlower_l        000000018002a998     libucrt:towlower.obj
 0002:0000a9a0       $unwind$__acrt_initialize_winapi_thunks 000000018002a9a0     libucrt:winapi_thunks.obj
 0002:0000a9a8       $unwind$_mbtowc_l          000000018002a9a8     libucrt:mbtowc.obj
 0002:0000a9a8       $unwind$__acrt_show_wide_message_box 000000018002a9a8     libucrt:crtmbox.obj
 0002:0000a9a8       $unwind$__acrt_LCMapStringEx 000000018002a9a8     libucrt:winapi_thunks.obj
 0002:0000a9c0       $unwind$__acrt_is_interactive 000000018002a9c0     libucrt:winapi_thunks.obj
 0002:0000a9d4       $unwind$?try_get_function@@YAPEAXW4function_id@?A0x679b24ab@@QEBDQEBW4module_id@2@2@Z 000000018002a9d4     libvcruntime:winapi_downlevel.obj
 0002:0000a9d4       $unwind$?write_string@?$string_output_adapter@_W@__crt_stdio_output@@QEBAXQEB_WHQEAH1@Z 000000018002a9d4     libucrt:output.obj
 0002:0000a9d4       $unwind$?try_get_function@@YAPEAXW4function_id@?A0x63058377@@QEBDQEBW4module_id@2@2@Z 000000018002a9d4     libucrt:winapi_thunks.obj
 0002:0000a9f0       $unwind$??$common_expand_argv_wildcards@D@@YAHQEAPEADQEAPEAPEAD@Z 000000018002a9f0     libucrt:argv_wildcards.obj
 0002:0000aa08       $unwind$??$copy_and_add_argument_to_buffer@D@@YAHQEBD0_KAEAV?$argument_list@D@?A0xca0879c4@@@Z 000000018002aa08     libucrt:argv_wildcards.obj
 0002:0000aa24       $unwind$??$expand_argument_wildcards@D@@YAHQEAD0AEAV?$argument_list@D@?A0xca0879c4@@@Z 000000018002aa24     libucrt:argv_wildcards.obj
 0002:0000aa44       $unwind$__acrt_update_thread_multibyte_data 000000018002aa44     libucrt:mbctype.obj
 0002:0000aa68       $unwind$_setmbcp_nolock    000000018002aa68     libucrt:mbctype.obj
 0002:0000aa88       $unwind$?setSBUpLow@@YAXPEAU__crt_multibyte_data@@@Z 000000018002aa88     libucrt:mbctype.obj
 0002:0000aaa4       $unwind$?setmbcp_internal@@YAHH_N@Z 000000018002aaa4     libucrt:mbctype.obj
 0002:0000aab4       $unwind$??$?RV<lambda_99476a1ad63dd22509b5d3e65b0ffc95>@@AEAV<lambda_ad1ced32f4ac17aa236e5ef05d6b3b7c>@@V<lambda_f7424dd8d45958661754dc4f2697e9c3>@@@?$__crt_seh_guarded_call@X@@QEAAX$$QEAV<lambda_99476a1ad63dd22509b5d3e65b0ffc95>@@AEAV<lambda_ad1ced32f4ac17aa236e5ef05d6b3b7c>@@$$QEAV<lambda_f7424dd8d45958661754dc4f2697e9c3>@@@Z 000000018002aab4     libucrt:mbctype.obj
 0002:0000aad8       $unwind$_isctype_l         000000018002aad8     libucrt:isctype.obj
 0002:0000aaf4       $unwind$__acrt_LCMapStringA 000000018002aaf4     libucrt:lcmapstringa.obj
 0002:0000ab04       $unwind$?__acrt_LCMapStringA_stat@@YAHPEAU__crt_locale_pointers@@PEB_WKPEBDHPEADHHH@Z 000000018002ab04     libucrt:lcmapstringa.obj
 0002:0000ab2c       $unwind$__acrt_update_thread_locale_data 000000018002ab2c     libucrt:locale_refcounting.obj
 0002:0000ab50       $unwind$__acrt_fltout      000000018002ab50     libucrt:cfout.obj
 0002:0000ab70       $unwind$?divide@__crt_strtox@@YA_KAEAUbig_integer@1@AEBU21@@Z 000000018002ab70     libucrt:cfout.obj
 0002:0000ab90       $chain$5$?divide@__crt_strtox@@YA_KAEAUbig_integer@1@AEBU21@@Z 000000018002ab90     libucrt:cfout.obj
 0002:0000aba4       $chain$6$?divide@__crt_strtox@@YA_KAEAUbig_integer@1@AEBU21@@Z 000000018002aba4     libucrt:cfout.obj
 0002:0000abb4       $unwind$??$write_buffer_nolock@D@@YA_NDV__crt_stdio_stream@@@Z 000000018002abb4     libucrt:_flsbuf.obj
 0002:0000abc4       $unwind$??$write_buffer_nolock@_W@@YA_N_WV__crt_stdio_stream@@@Z 000000018002abc4     libucrt:_flsbuf.obj
 0002:0000abd4       $unwind$_fcloseall         000000018002abd4     libucrt:closeall.obj
 0002:0000abf8       $unwind$__acrt_locale_free_monetary 000000018002abf8     libucrt:initmon.obj
 0002:0000ac00       $unwind$__acrt_locale_free_time 000000018002ac00     libucrt:inittime.obj
 0002:0000ac10       $unwind$__acrt_GetStringTypeA 000000018002ac10     libucrt:getstringtypea.obj
 0002:0000ac38       $unwind$__acrt_lowio_destroy_handle_array 000000018002ac38     libucrt:osfinfo.obj
 0002:0000ac48       $unwind$__acrt_lowio_ensure_fh_exists 000000018002ac48     libucrt:osfinfo.obj
 0002:0000ac74       $unwind$??$?RV<lambda_b521505b218e5242e90febf6bfebc422>@@AEAV<lambda_6978c1fb23f02e42e1d9e99668cc68aa>@@V<lambda_314360699dd331753a4119843814e9a7>@@@?$__crt_seh_guarded_call@H@@QEAAH$$QEAV<lambda_b521505b218e5242e90febf6bfebc422>@@AEAV<lambda_6978c1fb23f02e42e1d9e99668cc68aa>@@$$QEAV<lambda_314360699dd331753a4119843814e9a7>@@@Z 000000018002ac74     libucrt:commit.obj
 0002:0000ac98       $unwind$_write             000000018002ac98     libucrt:write.obj
 0002:0000acc8       $unwind$_write_nolock      000000018002acc8     libucrt:write.obj
 0002:0000ace0       $unwind$?write_double_translated_ansi_nolock@@YA?AUwrite_result@?A0x9c548279@@HQEBDI@Z 000000018002ace0     libucrt:write.obj
 0002:0000ad00       $unwind$?write_text_utf16le_nolock@@YA?AUwrite_result@?A0x9c548279@@HQEBDI@Z 000000018002ad00     libucrt:write.obj
 0002:0000ad00       $unwind$?write_text_ansi_nolock@@YA?AUwrite_result@?A0x9c548279@@HQEBDI@Z 000000018002ad00     libucrt:write.obj
 0002:0000ad20       $unwind$?write_text_utf8_nolock@@YA?AUwrite_result@?A0x9c548279@@HQEBDI@Z 000000018002ad20     libucrt:write.obj
 0002:0000ad44       $unwind$?GetTableIndexFromLocaleName@@YAHPEB_W@Z 000000018002ad44     libucrt:lcidtoname_downlevel.obj
 0002:0000ad5c       $unwind$qsort              000000018002ad5c     libucrt:qsort.obj
 0002:0000ad74       $chain$4$qsort             000000018002ad74     libucrt:qsort.obj
 0002:0000ad98       $chain$5$qsort             000000018002ad98     libucrt:qsort.obj
 0002:0000ada8       $unwind$?shortsort@@YAXPEAD0_KP6AHPEBX2@Z@Z 000000018002ada8     libucrt:qsort.obj
 0002:0000adb8       $chain$2$?shortsort@@YAXPEAD0_KP6AHPEBX2@Z@Z 000000018002adb8     libucrt:qsort.obj
 0002:0000add4       $chain$3$?shortsort@@YAXPEAD0_KP6AHPEBX2@Z@Z 000000018002add4     libucrt:qsort.obj
 0002:0000ade4       $unwind$strpbrk            000000018002ade4     libucrt:strpbrk.obj
 0002:0000adf4       $unwind$_mbsdec_l          000000018002adf4     libucrt:mbsdec.obj
 0002:0000ae00       $xdatasym                  000000018002ae00     libucrt:log10.obj
 0002:0000ae0c       $unwind$??$common_lseek@_J@@YA_JH_JH@Z 000000018002ae0c     libucrt:lseek.obj
 0002:0000ae3c       $unwind$fclose             000000018002ae3c     libucrt:fclose.obj
 0002:0000ae60       $unwind$_putwch_nolock     000000018002ae60     libucrt:putwch.obj
 0002:0000ae60       $unwind$__report_gsfailure 000000018002ae60     LIBCMT:gs_report.obj
 0002:0000ae68       $unwind$common_control87   000000018002ae68     libucrt:ieee.obj
 0002:0000ae98       $unwind$_call_matherr      000000018002ae98     libucrt:libm_error.obj
 0002:0000aea0       $unwind$_handle_error      000000018002aea0     libucrt:libm_error.obj
 0002:0000aec0       $unwind$__acrt_initialize_fma3 000000018002aec0     libucrt:fma3_available.obj
 0002:0000aec8       $unwind$_log_special_common 000000018002aec8     libucrt:log_special.obj
 0002:0000aed4       $unwind$_close             000000018002aed4     libucrt:close.obj
 0002:0000aed4       $unwind$_commit            000000018002aed4     libucrt:commit.obj
 0002:0000aedc       $unwind$??$?RV<lambda_bfedae4ebbf01fab1bb6dcc6a9e276e0>@@AEAV<lambda_2fe9b910cf3cbf4a0ab98a02ba45b3ec>@@V<lambda_237c231691f317818eb88cc1d5d642d6>@@@?$__crt_seh_guarded_call@H@@QEAAH$$QEAV<lambda_bfedae4ebbf01fab1bb6dcc6a9e276e0>@@AEAV<lambda_2fe9b910cf3cbf4a0ab98a02ba45b3ec>@@$$QEAV<lambda_237c231691f317818eb88cc1d5d642d6>@@@Z 000000018002aedc     libucrt:close.obj
 0002:0000af00       $xdatasym                  000000018002af00     libucrt:fpsr.obj
 0002:0000af08       $unwind$_raise_exc_ex      000000018002af08     libucrt:fpexcept.obj
 0002:0000af1c       $unwind$_ctrlfp            000000018002af1c     libucrt:fpctrl.obj
 0002:0000af44       $unwind$?DloadObtainSection@@YAPEAXPEAK0@Z 000000018002af44     DelayImp:delayhlp.obj
 0002:0000af54       $unwind$?DloadMakePermanentImageCommit@@YAXPEAX_K@Z 000000018002af54     DelayImp:delayhlp.obj
 0002:0000af60       $unwind$?DloadProtectSection@@YAXKPEAK@Z 000000018002af60     DelayImp:delayhlp.obj
 0002:0000af70       $unwind$__delayLoadHelper2 000000018002af70     DelayImp:delayhlp.obj
 0002:0000af88       $unwind$_IsNonwritableInCurrentImage 000000018002af88     LIBCMT:pesect.obj
 0002:0000afb0       $xdatasym                  000000018002afb0     LIBCMT:_chkstk_.obj
 0002:0000afb8       $unwind$strrchr            000000018002afb8     libvcruntime:strrchr.obj
 0002:0000afc0       $xdatasym                  000000018002afc0     libvcruntime:memcmp.obj
 0002:0000c6f0       .edata                     000000018002c6f0     node_activex.exp
 0002:0000c718       rgpv                       000000018002c718     node_activex.exp
 0002:0000c71c       rgszName                   000000018002c71c     node_activex.exp
 0002:0000c720       rgwOrd                     000000018002c720     node_activex.exp
 0002:0000c722       szName                     000000018002c722     node_activex.exp
 0002:0000c734       $N00001                    000000018002c734     node_activex.exp
 0002:0000cab6       .idata$6                   000000018002cab6     kernel32:KERNEL32.dll
 0002:0000cb0c       .idata$6                   000000018002cb0c     ole32:ole32.dll
 0002:0000cb16       .idata$6                   000000018002cb16     oleaut32:OLEAUT32.dll
 0003:00000030       ?__vcrt_flsindex@@3KA      000000018002e030     libvcruntime:per_thread_data.obj
 0003:00000044       errno_no_memory            000000018002e044     libucrt:errno.obj
 0003:00000048       doserrno_no_memory         000000018002e048     libucrt:errno.obj
 0003:0000004c       __acrt_flsindex            000000018002e04c     libucrt:per_thread_data.obj
 0003:00000540       __rgctypeflag              000000018002e540     libucrt:mbctype.obj
 0003:00000550       __rgcode_page_info         000000018002e550     libucrt:mbctype.obj
 0003:00000900       ?dazSupported@?1??common_control87@@9@9 000000018002e900     libucrt:ieee.obj
 0003:00000920       ?dazSupported@?1??_ctrlfp@@9@9 000000018002e920     libucrt:fpctrl.obj
 0003:00000940       _module                    000000018002e940     main.obj
 0003:00000ca0       ?module_local_atexit_table@@3U_onexit_table_t@@A 000000018002eca0     LIBCMT:utility.obj
 0003:00000cb8       ?module_local_at_quick_exit_table@@3U_onexit_table_t@@A 000000018002ecb8     LIBCMT:utility.obj
 0003:00000cd0       ?is_initialized_as_dll@@3_NA 000000018002ecd0     LIBCMT:utility.obj
 0003:00000cd4       ?__proc_attached@@3HA      000000018002ecd4     LIBCMT:dll_dllmain.obj
 0003:00000ce0       GS_ExceptionRecord         000000018002ece0     LIBCMT:gs_report.obj
 0003:00000d80       GS_ContextRecord           000000018002ed80     LIBCMT:gs_report.obj
 0003:00001280       ?__vcrt_startup_thread_ptd@@3U__vcrt_ptd@@A 000000018002f280     libvcruntime:per_thread_data.obj
 0003:000012f8       __vcrt_lock_table          000000018002f2f8     libvcruntime:locks.obj
 0003:00001320       __vcrt_locks_initialized   000000018002f320     libvcruntime:locks.obj
 0003:00001330       ?module_handles@@3PAPEAUHINSTANCE__@@A 000000018002f330     libvcruntime:winapi_downlevel.obj
 0003:00001350       ?encoded_function_pointers@@3PAPEAXA 000000018002f350     libvcruntime:winapi_downlevel.obj
 0003:000013e0       ?heap@@3V_HeapManager@@A   000000018002f3e0     libvcruntime:undname.obj
 0003:00001408       __acrt_invalid_parameter_handler 000000018002f408     libucrt:invalid_parameter.obj
 0003:00001410       __acrt_new_handler         000000018002f410     libucrt:new_handler.obj
 0003:00001418       c_termination_complete     000000018002f418     libucrt:exit.obj
 0003:00001420       thread_local_exit_callback_func 000000018002f420     libucrt:exit.obj
 0003:00001428       ?c_exit_complete@?5??common_exit@@YAXHW4_crt_exit_cleanup_mode@@W4_crt_exit_return_mode@@@Z@4_NA 000000018002f428     libucrt:exit.obj
 0003:00001430       ?program_name@?5???$common_configure_argv@D@@YAHW4_crt_argv_mode@@@Z@4PADA 000000018002f430     libucrt:argv_parsing.obj
 0003:000015a0       enable_percent_n           000000018002f5a0     libucrt:printf_count_output.obj
 0003:000019d4       __acrt_app_type            000000018002f9d4     libucrt:report_runtime_error.obj
 0003:000019d8       __acrt_error_mode          000000018002f9d8     libucrt:set_error_mode.obj
 0003:000019e0       ctrlc_action               000000018002f9e0     libucrt:signal.obj
 0003:000019e8       ctrlbreak_action           000000018002f9e8     libucrt:signal.obj
 0003:000019f0       abort_action               000000018002f9f0     libucrt:signal.obj
 0003:000019f8       term_action                000000018002f9f8     libucrt:signal.obj
 0003:00001a00       __acrt_lock_table          000000018002fa00     libucrt:locks.obj
 0003:00001c08       __acrt_locks_initialized   000000018002fc08     libucrt:locks.obj
 0003:00001c10       module_handles             000000018002fc10     libucrt:winapi_thunks.obj
 0003:00001cb0       encoded_function_pointers  000000018002fcb0     libucrt:winapi_thunks.obj
 0003:00001db0       ?state_cache@?1??__acrt_is_packaged_app@@9@4JA 000000018002fdb0     libucrt:winapi_thunks.obj
 0003:00001dcc       fSystemSet                 000000018002fdcc     libucrt:mbctype.obj
 0003:00001dd8       ?initialized@?1??__acrt_initialize_multibyte@@9@4_NA 000000018002fdd8     libucrt:mbctype.obj
 0003:00001e10       user_matherr               000000018002fe10     libucrt:matherr.obj
 0003:00001e18       __acrt_global_new_mode     000000018002fe18     libucrt:new_mode.obj
 0004:00000000       $pdata$?Init@node_activex@@YAXV?$Local@VObject@v8@@@v8@@@Z 0000000180030000     main.obj
 0004:0000000c       $pdata$DllMain             000000018003000c     main.obj
 0004:00000018       $pdata$swprintf_s          0000000180030018     utils.obj
 0004:00000024       $pdata$??_G_Ref_count_base@std@@UEAAPEAXI@Z 0000000180030024     utils.obj
 0004:00000030       $pdata$??_GDispEnumImpl@@UEAAPEAXI@Z 0000000180030030     utils.obj
 0004:0000003c       $pdata$??0DispObjectImpl@@QEAA@AEBV?$Local@VObject@v8@@@v8@@@Z 000000018003003c     utils.obj
 0004:00000048       $pdata$??1DispObjectImpl@@UEAA@XZ 0000000180030048     utils.obj
 0004:00000054       $pdata$?QueryInterface@DispObjectImpl@@UEAAJAEBU_GUID@@PEAPEAX@Z 0000000180030054     utils.obj
 0004:00000060       $pdata$??_GDispObjectImpl@@UEAAPEAXI@Z 0000000180030060     utils.obj
 0004:0000006c       $pdata$??0DispInfo@@QEAA@PEAUIDispatch@@AEBV?$basic_string@_WU?$char_traits@_W@std@@V?$allocator@_W@2@@std@@HPEAV?$shared_ptr@VDispInfo@@@3@@Z 000000018003006c     utils.obj
 0004:00000078       $pdata$?NodeCreate@DispObject@@SA?AV?$Local@VObject@v8@@@v8@@PEAVIsolate@3@PEAUIDispatch@@AEBV?$basic_string@_WU?$char_traits@_W@std@@V?$allocator@_W@2@@std@@H@Z 0000000180030078     utils.obj
 0004:00000084       $pdata$?GetWin32ErroroMessage@@YA?AV?$Local@VString@v8@@@v8@@PEAVIsolate@2@JPEB_W11@Z 0000000180030084     utils.obj
 0004:00000090       $pdata$?Variant2Array@@YA?AV?$Local@VValue@v8@@@v8@@PEAVIsolate@2@AEBUtagVARIANT@@@Z 0000000180030090     utils.obj
 0004:0000009c       $pdata$1$?Variant2Array@@YA?AV?$Local@VValue@v8@@@v8@@PEAVIsolate@2@AEBUtagVARIANT@@@Z 000000018003009c     utils.obj
 0004:000000a8       $pdata$2$?Variant2Array@@YA?AV?$Local@VValue@v8@@@v8@@PEAVIsolate@2@AEBUtagVARIANT@@@Z 00000001800300a8     utils.obj
 0004:000000b4       $pdata$3$?Variant2Array@@YA?AV?$Local@VValue@v8@@@v8@@PEAVIsolate@2@AEBUtagVARIANT@@@Z 00000001800300b4     utils.obj
 0004:000000c0       $pdata$4$?Variant2Array@@YA?AV?$Local@VValue@v8@@@v8@@PEAVIsolate@2@AEBUtagVARIANT@@@Z 00000001800300c0     utils.obj
 0004:000000cc       $pdata$?Variant2Value@@YA?AV?$Local@VValue@v8@@@v8@@PEAVIsolate@2@AEBUtagVARIANT@@_N@Z 00000001800300cc     utils.obj
 0004:000000d8       $pdata$0$?Variant2Value@@YA?AV?$Local@VValue@v8@@@v8@@PEAVIsolate@2@AEBUtagVARIANT@@_N@Z 00000001800300d8     utils.obj
 0004:000000e4       $pdata$1$?Variant2Value@@YA?AV?$Local@VValue@v8@@@v8@@PEAVIsolate@2@AEBUtagVARIANT@@_N@Z 00000001800300e4     utils.obj
 0004:000000f0       $pdata$2$?Variant2Value@@YA?AV?$Local@VValue@v8@@@v8@@PEAVIsolate@2@AEBUtagVARIANT@@_N@Z 00000001800300f0     utils.obj
 0004:000000fc       $pdata$?Variant2String@@YA?AV?$Local@VValue@v8@@@v8@@PEAVIsolate@2@AEBUtagVARIANT@@@Z 00000001800300fc     utils.obj
 0004:00000108       $pdata$?Value2Variant@@YAXPEAVIsolate@v8@@AEAV?$Local@VValue@v8@@@2@AEAUtagVARIANT@@@Z 0000000180030108     utils.obj
 0004:00000114       $pdata$?UnknownDispGet@@YA_NPEAUIUnknown@@PEAPEAUIDispatch@@@Z 0000000180030114     utils.obj
 0004:00000120       $pdata$?Invoke@DispEnumImpl@@UEAAJJAEBU_GUID@@KGPEAUtagDISPPARAMS@@PEAUtagVARIANT@@PEAUtagEXCEPINFO@@PEAI@Z 0000000180030120     utils.obj
 0004:0000012c       $pdata$?GetIDsOfNames@DispObjectImpl@@UEAAJAEBU_GUID@@PEAPEA_WIKPEAJ@Z 000000018003012c     utils.obj
 0004:00000138       $pdata$2$?GetIDsOfNames@DispObjectImpl@@UEAAJAEBU_GUID@@PEAPEA_WIKPEAJ@Z 0000000180030138     utils.obj
 0004:00000144       $pdata$3$?GetIDsOfNames@DispObjectImpl@@UEAAJAEBU_GUID@@PEAPEA_WIKPEAJ@Z 0000000180030144     utils.obj
 0004:00000150       $pdata$4$?GetIDsOfNames@DispObjectImpl@@UEAAJAEBU_GUID@@PEAPEA_WIKPEAJ@Z 0000000180030150     utils.obj
 0004:0000015c       $pdata$5$?GetIDsOfNames@DispObjectImpl@@UEAAJAEBU_GUID@@PEAPEA_WIKPEAJ@Z 000000018003015c     utils.obj
 0004:00000168       $pdata$?Invoke@DispObjectImpl@@UEAAJJAEBU_GUID@@KGPEAUtagDISPPARAMS@@PEAUtagVARIANT@@PEAUtagEXCEPINFO@@PEAI@Z 0000000180030168     utils.obj
 0004:00000174       $pdata$0$?Invoke@DispObjectImpl@@UEAAJJAEBU_GUID@@KGPEAUtagDISPPARAMS@@PEAUtagVARIANT@@PEAUtagEXCEPINFO@@PEAI@Z 0000000180030174     utils.obj
 0004:00000180       $pdata$?Release@?$UnknownImpl@UIDispatch@@@@UEAAKXZ 0000000180030180     utils.obj
 0004:0000018c       $pdata$?QueryInterface@?$UnknownImpl@UIDispatch@@@@UEAAJAEBU_GUID@@PEAPEAX@Z 000000018003018c     utils.obj
 0004:00000198       $pdata$?resize@?$vector@V?$Local@VValue@v8@@@v8@@V?$allocator@V?$Local@VValue@v8@@@v8@@@std@@@std@@QEAAX_K@Z 0000000180030198     utils.obj
 0004:000001a4       $pdata$0$?resize@?$vector@V?$Local@VValue@v8@@@v8@@V?$allocator@V?$Local@VValue@v8@@@v8@@@std@@@std@@QEAAX_K@Z 00000001800301a4     utils.obj
 0004:000001b0       $pdata$1$?resize@?$vector@V?$Local@VValue@v8@@@v8@@V?$allocator@V?$Local@VValue@v8@@@v8@@@std@@@std@@QEAAX_K@Z 00000001800301b0     utils.obj
 0004:000001bc       $pdata$2$?resize@?$vector@V?$Local@VValue@v8@@@v8@@V?$allocator@V?$Local@VValue@v8@@@v8@@@std@@@std@@QEAAX_K@Z 00000001800301bc     utils.obj
 0004:000001c8       $pdata$??1?$basic_string@_WU?$char_traits@_W@std@@V?$allocator@_W@2@@std@@QEAA@XZ 00000001800301c8     utils.obj
 0004:000001d4       $pdata$??_G?$UnknownImpl@UIDispatch@@@@UEAAPEAXI@Z 00000001800301d4     utils.obj
 0004:000001e0       $pdata$?Attach@?$CComPtr@UIDispatch@@@@QEAAXPEAUIDispatch@@@Z 00000001800301e0     utils.obj
 0004:000001ec       $pdata$?_Tidy@?$vector@V?$Local@VValue@v8@@@v8@@V?$allocator@V?$Local@VValue@v8@@@v8@@@std@@@std@@IEAAXXZ 00000001800301ec     utils.obj
 0004:000001f8       $pdata$?_Tidy@?$basic_string@_WU?$char_traits@_W@std@@V?$allocator@_W@2@@std@@QEAAX_N_K@Z 00000001800301f8     utils.obj
 0004:00000204       $pdata$?assign@?$basic_string@_WU?$char_traits@_W@std@@V?$allocator@_W@2@@std@@QEAAAEAV12@PEB_W_K@Z 0000000180030204     utils.obj
 0004:00000210       $pdata$?assign@?$basic_string@_WU?$char_traits@_W@std@@V?$allocator@_W@2@@std@@QEAAAEAV12@AEBV12@_K1@Z 0000000180030210     utils.obj
 0004:0000021c       $pdata$?erase@?$_Tree@V?$_Tmap_traits@JV?$shared_ptr@Uname_t@DispObjectImpl@@@std@@U?$less@J@2@V?$allocator@U?$pair@$$CBJV?$shared_ptr@Uname_t@DispObjectImpl@@@std@@@std@@@2@$0A@@std@@@std@@QEAA?AV?$_Tree_iterator@V?$_Tree_val@U?$_Tree_simple_types@U?$pair@$$CBJV?$shared_ptr@Uname_t@DispObjectImpl@@@std@@@std@@@std@@@std@@@2@V?$_Tree_const_iterator@V?$_Tree_val@U?$_Tree_simple_types@U?$pair@$$CBJV?$shared_ptr@Uname_t@DispObjectImpl@@@std@@@std@@@std@@@std@@@2@0@Z 000000018003021c     utils.obj
 0004:0000021c       $pdata$?erase@?$_Tree@V?$_Tmap_traits@JV?$shared_ptr@Utype_t@DispInfo@@@std@@U?$less@J@2@V?$allocator@U?$pair@$$CBJV?$shared_ptr@Utype_t@DispInfo@@@std@@@std@@@2@$0A@@std@@@std@@QEAA?AV?$_Tree_iterator@V?$_Tree_val@U?$_Tree_simple_types@U?$pair@$$CBJV?$shared_ptr@Utype_t@DispInfo@@@std@@@std@@@std@@@std@@@2@V?$_Tree_const_iterator@V?$_Tree_val@U?$_Tree_simple_types@U?$pair@$$CBJV?$shared_ptr@Utype_t@DispInfo@@@std@@@std@@@std@@@std@@@2@0@Z 000000018003021c     utils.obj
 0004:00000228       $pdata$?erase@?$_Tree@V?$_Tmap_traits@V?$basic_string@_WU?$char_traits@_W@std@@V?$allocator@_W@2@@std@@V?$shared_ptr@Uname_t@DispObjectImpl@@@2@U?$less@V?$basic_string@_WU?$char_traits@_W@std@@V?$allocator@_W@2@@std@@@2@V?$allocator@U?$pair@$$CBV?$basic_string@_WU?$char_traits@_W@std@@V?$allocator@_W@2@@std@@V?$shared_ptr@Uname_t@DispObjectImpl@@@2@@std@@@2@$0A@@std@@@std@@QEAA?AV?$_Tree_iterator@V?$_Tree_val@U?$_Tree_simple_types@U?$pair@$$CBV?$basic_string@_WU?$char_traits@_W@std@@V?$allocator@_W@2@@std@@V?$shared_ptr@Uname_t@DispObjectImpl@@@2@@std@@@std@@@std@@@2@V?$_Tree_const_iterator@V?$_Tree_val@U?$_Tree_simple_types@U?$pair@$$CBV?$basic_string@_WU?$char_traits@_W@std@@V?$allocator@_W@2@@std@@V?$shared_ptr@Uname_t@DispObjectImpl@@@2@@std@@@std@@@std@@@2@0@Z 0000000180030228     utils.obj
 0004:00000234       $pdata$?_Reallocate@?$vector@V?$Local@VValue@v8@@@v8@@V?$allocator@V?$Local@VValue@v8@@@v8@@@std@@@std@@IEAAX_K@Z 0000000180030234     utils.obj
 0004:00000240       $pdata$?erase@?$basic_string@_WU?$char_traits@_W@std@@V?$allocator@_W@2@@std@@QEAAAEAV12@_K0@Z 0000000180030240     utils.obj
 0004:0000024c       $pdata$?erase@?$_Tree@V?$_Tmap_traits@JV?$shared_ptr@Utype_t@DispInfo@@@std@@U?$less@J@2@V?$allocator@U?$pair@$$CBJV?$shared_ptr@Utype_t@DispInfo@@@std@@@std@@@2@$0A@@std@@@std@@QEAA?AV?$_Tree_iterator@V?$_Tree_val@U?$_Tree_simple_types@U?$pair@$$CBJV?$shared_ptr@Utype_t@DispInfo@@@std@@@std@@@std@@@std@@@2@V?$_Tree_const_iterator@V?$_Tree_val@U?$_Tree_simple_types@U?$pair@$$CBJV?$shared_ptr@Utype_t@DispInfo@@@std@@@std@@@std@@@std@@@2@@Z 000000018003024c     utils.obj
 0004:0000024c       $pdata$?erase@?$_Tree@V?$_Tmap_traits@JV?$shared_ptr@Uname_t@DispObjectImpl@@@std@@U?$less@J@2@V?$allocator@U?$pair@$$CBJV?$shared_ptr@Uname_t@DispObjectImpl@@@std@@@std@@@2@$0A@@std@@@std@@QEAA?AV?$_Tree_iterator@V?$_Tree_val@U?$_Tree_simple_types@U?$pair@$$CBJV?$shared_ptr@Uname_t@DispObjectImpl@@@std@@@std@@@std@@@std@@@2@V?$_Tree_const_iterator@V?$_Tree_val@U?$_Tree_simple_types@U?$pair@$$CBJV?$shared_ptr@Uname_t@DispObjectImpl@@@std@@@std@@@std@@@std@@@2@@Z 000000018003024c     utils.obj
 0004:00000258       $pdata$1$?erase@?$_Tree@V?$_Tmap_traits@JV?$shared_ptr@Utype_t@DispInfo@@@std@@U?$less@J@2@V?$allocator@U?$pair@$$CBJV?$shared_ptr@Utype_t@DispInfo@@@std@@@std@@@2@$0A@@std@@@std@@QEAA?AV?$_Tree_iterator@V?$_Tree_val@U?$_Tree_simple_types@U?$pair@$$CBJV?$shared_ptr@Utype_t@DispInfo@@@std@@@std@@@std@@@std@@@2@V?$_Tree_const_iterator@V?$_Tree_val@U?$_Tree_simple_types@U?$pair@$$CBJV?$shared_ptr@Utype_t@DispInfo@@@std@@@std@@@std@@@std@@@2@@Z 0000000180030258     utils.obj
 0004:00000258       $pdata$1$?erase@?$_Tree@V?$_Tmap_traits@JV?$shared_ptr@Uname_t@DispObjectImpl@@@std@@U?$less@J@2@V?$allocator@U?$pair@$$CBJV?$shared_ptr@Uname_t@DispObjectImpl@@@std@@@std@@@2@$0A@@std@@@std@@QEAA?AV?$_Tree_iterator@V?$_Tree_val@U?$_Tree_simple_types@U?$pair@$$CBJV?$shared_ptr@Uname_t@DispObjectImpl@@@std@@@std@@@std@@@std@@@2@V?$_Tree_const_iterator@V?$_Tree_val@U?$_Tree_simple_types@U?$pair@$$CBJV?$shared_ptr@Uname_t@DispObjectImpl@@@std@@@std@@@std@@@std@@@2@@Z 0000000180030258     utils.obj
 0004:00000264       $pdata$2$?erase@?$_Tree@V?$_Tmap_traits@JV?$shared_ptr@Uname_t@DispObjectImpl@@@std@@U?$less@J@2@V?$allocator@U?$pair@$$CBJV?$shared_ptr@Uname_t@DispObjectImpl@@@std@@@std@@@2@$0A@@std@@@std@@QEAA?AV?$_Tree_iterator@V?$_Tree_val@U?$_Tree_simple_types@U?$pair@$$CBJV?$shared_ptr@Uname_t@DispObjectImpl@@@std@@@std@@@std@@@std@@@2@V?$_Tree_const_iterator@V?$_Tree_val@U?$_Tree_simple_types@U?$pair@$$CBJV?$shared_ptr@Uname_t@DispObjectImpl@@@std@@@std@@@std@@@std@@@2@@Z 0000000180030264     utils.obj
 0004:00000264       $pdata$2$?erase@?$_Tree@V?$_Tmap_traits@JV?$shared_ptr@Utype_t@DispInfo@@@std@@U?$less@J@2@V?$allocator@U?$pair@$$CBJV?$shared_ptr@Utype_t@DispInfo@@@std@@@std@@@2@$0A@@std@@@std@@QEAA?AV?$_Tree_iterator@V?$_Tree_val@U?$_Tree_simple_types@U?$pair@$$CBJV?$shared_ptr@Utype_t@DispInfo@@@std@@@std@@@std@@@std@@@2@V?$_Tree_const_iterator@V?$_Tree_val@U?$_Tree_simple_types@U?$pair@$$CBJV?$shared_ptr@Utype_t@DispInfo@@@std@@@std@@@std@@@std@@@2@@Z 0000000180030264     utils.obj
 0004:00000270       $pdata$3$?erase@?$_Tree@V?$_Tmap_traits@JV?$shared_ptr@Uname_t@DispObjectImpl@@@std@@U?$less@J@2@V?$allocator@U?$pair@$$CBJV?$shared_ptr@Uname_t@DispObjectImpl@@@std@@@std@@@2@$0A@@std@@@std@@QEAA?AV?$_Tree_iterator@V?$_Tree_val@U?$_Tree_simple_types@U?$pair@$$CBJV?$shared_ptr@Uname_t@DispObjectImpl@@@std@@@std@@@std@@@std@@@2@V?$_Tree_const_iterator@V?$_Tree_val@U?$_Tree_simple_types@U?$pair@$$CBJV?$shared_ptr@Uname_t@DispObjectImpl@@@std@@@std@@@std@@@std@@@2@@Z 0000000180030270     utils.obj
 0004:00000270       $pdata$3$?erase@?$_Tree@V?$_Tmap_traits@JV?$shared_ptr@Utype_t@DispInfo@@@std@@U?$less@J@2@V?$allocator@U?$pair@$$CBJV?$shared_ptr@Utype_t@DispInfo@@@std@@@std@@@2@$0A@@std@@@std@@QEAA?AV?$_Tree_iterator@V?$_Tree_val@U?$_Tree_simple_types@U?$pair@$$CBJV?$shared_ptr@Utype_t@DispInfo@@@std@@@std@@@std@@@std@@@2@V?$_Tree_const_iterator@V?$_Tree_val@U?$_Tree_simple_types@U?$pair@$$CBJV?$shared_ptr@Utype_t@DispInfo@@@std@@@std@@@std@@@std@@@2@@Z 0000000180030270     utils.obj
 0004:0000027c       $pdata$4$?erase@?$_Tree@V?$_Tmap_traits@JV?$shared_ptr@Uname_t@DispObjectImpl@@@std@@U?$less@J@2@V?$allocator@U?$pair@$$CBJV?$shared_ptr@Uname_t@DispObjectImpl@@@std@@@std@@@2@$0A@@std@@@std@@QEAA?AV?$_Tree_iterator@V?$_Tree_val@U?$_Tree_simple_types@U?$pair@$$CBJV?$shared_ptr@Uname_t@DispObjectImpl@@@std@@@std@@@std@@@std@@@2@V?$_Tree_const_iterator@V?$_Tree_val@U?$_Tree_simple_types@U?$pair@$$CBJV?$shared_ptr@Uname_t@DispObjectImpl@@@std@@@std@@@std@@@std@@@2@@Z 000000018003027c     utils.obj
 0004:0000027c       $pdata$4$?erase@?$_Tree@V?$_Tmap_traits@JV?$shared_ptr@Utype_t@DispInfo@@@std@@U?$less@J@2@V?$allocator@U?$pair@$$CBJV?$shared_ptr@Utype_t@DispInfo@@@std@@@std@@@2@$0A@@std@@@std@@QEAA?AV?$_Tree_iterator@V?$_Tree_val@U?$_Tree_simple_types@U?$pair@$$CBJV?$shared_ptr@Utype_t@DispInfo@@@std@@@std@@@std@@@std@@@2@V?$_Tree_const_iterator@V?$_Tree_val@U?$_Tree_simple_types@U?$pair@$$CBJV?$shared_ptr@Utype_t@DispInfo@@@std@@@std@@@std@@@std@@@2@@Z 000000018003027c     utils.obj
 0004:00000288       $pdata$?erase@?$_Tree@V?$_Tmap_traits@V?$basic_string@_WU?$char_traits@_W@std@@V?$allocator@_W@2@@std@@V?$shared_ptr@Uname_t@DispObjectImpl@@@2@U?$less@V?$basic_string@_WU?$char_traits@_W@std@@V?$allocator@_W@2@@std@@@2@V?$allocator@U?$pair@$$CBV?$basic_string@_WU?$char_traits@_W@std@@V?$allocator@_W@2@@std@@V?$shared_ptr@Uname_t@DispObjectImpl@@@2@@std@@@2@$0A@@std@@@std@@QEAA?AV?$_Tree_iterator@V?$_Tree_val@U?$_Tree_simple_types@U?$pair@$$CBV?$basic_string@_WU?$char_traits@_W@std@@V?$allocator@_W@2@@std@@V?$shared_ptr@Uname_t@DispObjectImpl@@@2@@std@@@std@@@std@@@2@V?$_Tree_const_iterator@V?$_Tree_val@U?$_Tree_simple_types@U?$pair@$$CBV?$basic_string@_WU?$char_traits@_W@std@@V?$allocator@_W@2@@std@@V?$shared_ptr@Uname_t@DispObjectImpl@@@2@@std@@@std@@@std@@@2@@Z 0000000180030288     utils.obj
 0004:00000294       $pdata$0$?erase@?$_Tree@V?$_Tmap_traits@V?$basic_string@_WU?$char_traits@_W@std@@V?$allocator@_W@2@@std@@V?$shared_ptr@Uname_t@DispObjectImpl@@@2@U?$less@V?$basic_string@_WU?$char_traits@_W@std@@V?$allocator@_W@2@@std@@@2@V?$allocator@U?$pair@$$CBV?$basic_string@_WU?$char_traits@_W@std@@V?$allocator@_W@2@@std@@V?$shared_ptr@Uname_t@DispObjectImpl@@@2@@std@@@2@$0A@@std@@@std@@QEAA?AV?$_Tree_iterator@V?$_Tree_val@U?$_Tree_simple_types@U?$pair@$$CBV?$basic_string@_WU?$char_traits@_W@std@@V?$allocator@_W@2@@std@@V?$shared_ptr@Uname_t@DispObjectImpl@@@2@@std@@@std@@@std@@@2@V?$_Tree_const_iterator@V?$_Tree_val@U?$_Tree_simple_types@U?$pair@$$CBV?$basic_string@_WU?$char_traits@_W@std@@V?$allocator@_W@2@@std@@V?$shared_ptr@Uname_t@DispObjectImpl@@@2@@std@@@std@@@std@@@2@@Z 0000000180030294     utils.obj
 0004:000002a0       $pdata$1$?erase@?$_Tree@V?$_Tmap_traits@V?$basic_string@_WU?$char_traits@_W@std@@V?$allocator@_W@2@@std@@V?$shared_ptr@Uname_t@DispObjectImpl@@@2@U?$less@V?$basic_string@_WU?$char_traits@_W@std@@V?$allocator@_W@2@@std@@@2@V?$allocator@U?$pair@$$CBV?$basic_string@_WU?$char_traits@_W@std@@V?$allocator@_W@2@@std@@V?$shared_ptr@Uname_t@DispObjectImpl@@@2@@std@@@2@$0A@@std@@@std@@QEAA?AV?$_Tree_iterator@V?$_Tree_val@U?$_Tree_simple_types@U?$pair@$$CBV?$basic_string@_WU?$char_traits@_W@std@@V?$allocator@_W@2@@std@@V?$shared_ptr@Uname_t@DispObjectImpl@@@2@@std@@@std@@@std@@@2@V?$_Tree_const_iterator@V?$_Tree_val@U?$_Tree_simple_types@U?$pair@$$CBV?$basic_string@_WU?$char_traits@_W@std@@V?$allocator@_W@2@@std@@V?$shared_ptr@Uname_t@DispObjectImpl@@@2@@std@@@std@@@std@@@2@@Z 00000001800302a0     utils.obj
 0004:000002ac       $pdata$2$?erase@?$_Tree@V?$_Tmap_traits@V?$basic_string@_WU?$char_traits@_W@std@@V?$allocator@_W@2@@std@@V?$shared_ptr@Uname_t@DispObjectImpl@@@2@U?$less@V?$basic_string@_WU?$char_traits@_W@std@@V?$allocator@_W@2@@std@@@2@V?$allocator@U?$pair@$$CBV?$basic_string@_WU?$char_traits@_W@std@@V?$allocator@_W@2@@std@@V?$shared_ptr@Uname_t@DispObjectImpl@@@2@@std@@@2@$0A@@std@@@std@@QEAA?AV?$_Tree_iterator@V?$_Tree_val@U?$_Tree_simple_types@U?$pair@$$CBV?$basic_string@_WU?$char_traits@_W@std@@V?$allocator@_W@2@@std@@V?$shared_ptr@Uname_t@DispObjectImpl@@@2@@std@@@std@@@std@@@2@V?$_Tree_const_iterator@V?$_Tree_val@U?$_Tree_simple_types@U?$pair@$$CBV?$basic_string@_WU?$char_traits@_W@std@@V?$allocator@_W@2@@std@@V?$shared_ptr@Uname_t@DispObjectImpl@@@2@@std@@@std@@@std@@@2@@Z 00000001800302ac     utils.obj
 0004:000002b8       $pdata$3$?erase@?$_Tree@V?$_Tmap_traits@V?$basic_string@_WU?$char_traits@_W@std@@V?$allocator@_W@2@@std@@V?$shared_ptr@Uname_t@DispObjectImpl@@@2@U?$less@V?$basic_string@_WU?$char_traits@_W@std@@V?$allocator@_W@2@@std@@@2@V?$allocator@U?$pair@$$CBV?$basic_string@_WU?$char_traits@_W@std@@V?$allocator@_W@2@@std@@V?$shared_ptr@Uname_t@DispObjectImpl@@@2@@std@@@2@$0A@@std@@@std@@QEAA?AV?$_Tree_iterator@V?$_Tree_val@U?$_Tree_simple_types@U?$pair@$$CBV?$basic_string@_WU?$char_traits@_W@std@@V?$allocator@_W@2@@std@@V?$shared_ptr@Uname_t@DispObjectImpl@@@2@@std@@@std@@@std@@@2@V?$_Tree_const_iterator@V?$_Tree_val@U?$_Tree_simple_types@U?$pair@$$CBV?$basic_string@_WU?$char_traits@_W@std@@V?$allocator@_W@2@@std@@V?$shared_ptr@Uname_t@DispObjectImpl@@@2@@std@@@std@@@std@@@2@@Z 00000001800302b8     utils.obj
 0004:000002c4       $pdata$?_Copy@?$basic_string@_WU?$char_traits@_W@std@@V?$allocator@_W@2@@std@@QEAAX_K0@Z 00000001800302c4     utils.obj
 0004:000002d0       $pdata$?_Erase@?$_Tree@V?$_Tmap_traits@JV?$shared_ptr@Utype_t@DispInfo@@@std@@U?$less@J@2@V?$allocator@U?$pair@$$CBJV?$shared_ptr@Utype_t@DispInfo@@@std@@@std@@@2@$0A@@std@@@std@@IEAAXPEAU?$_Tree_node@U?$pair@$$CBJV?$shared_ptr@Utype_t@DispInfo@@@std@@@std@@PEAX@2@@Z 00000001800302d0     utils.obj
 0004:000002d0       $pdata$?_Erase@?$_Tree@V?$_Tmap_traits@JV?$shared_ptr@Uname_t@DispObjectImpl@@@std@@U?$less@J@2@V?$allocator@U?$pair@$$CBJV?$shared_ptr@Uname_t@DispObjectImpl@@@std@@@std@@@2@$0A@@std@@@std@@IEAAXPEAU?$_Tree_node@U?$pair@$$CBJV?$shared_ptr@Uname_t@DispObjectImpl@@@std@@@std@@PEAX@2@@Z 00000001800302d0     utils.obj
 0004:000002dc       $pdata$0$?_Erase@?$_Tree@V?$_Tmap_traits@JV?$shared_ptr@Utype_t@DispInfo@@@std@@U?$less@J@2@V?$allocator@U?$pair@$$CBJV?$shared_ptr@Utype_t@DispInfo@@@std@@@std@@@2@$0A@@std@@@std@@IEAAXPEAU?$_Tree_node@U?$pair@$$CBJV?$shared_ptr@Utype_t@DispInfo@@@std@@@std@@PEAX@2@@Z 00000001800302dc     utils.obj
 0004:000002dc       $pdata$0$?_Erase@?$_Tree@V?$_Tmap_traits@JV?$shared_ptr@Uname_t@DispObjectImpl@@@std@@U?$less@J@2@V?$allocator@U?$pair@$$CBJV?$shared_ptr@Uname_t@DispObjectImpl@@@std@@@std@@@2@$0A@@std@@@std@@IEAAXPEAU?$_Tree_node@U?$pair@$$CBJV?$shared_ptr@Uname_t@DispObjectImpl@@@std@@@std@@PEAX@2@@Z 00000001800302dc     utils.obj
 0004:000002e8       $pdata$1$?_Erase@?$_Tree@V?$_Tmap_traits@JV?$shared_ptr@Utype_t@DispInfo@@@std@@U?$less@J@2@V?$allocator@U?$pair@$$CBJV?$shared_ptr@Utype_t@DispInfo@@@std@@@std@@@2@$0A@@std@@@std@@IEAAXPEAU?$_Tree_node@U?$pair@$$CBJV?$shared_ptr@Utype_t@DispInfo@@@std@@@std@@PEAX@2@@Z 00000001800302e8     utils.obj
 0004:000002e8       $pdata$1$?_Erase@?$_Tree@V?$_Tmap_traits@JV?$shared_ptr@Uname_t@DispObjectImpl@@@std@@U?$less@J@2@V?$allocator@U?$pair@$$CBJV?$shared_ptr@Uname_t@DispObjectImpl@@@std@@@std@@@2@$0A@@std@@@std@@IEAAXPEAU?$_Tree_node@U?$pair@$$CBJV?$shared_ptr@Uname_t@DispObjectImpl@@@std@@@std@@PEAX@2@@Z 00000001800302e8     utils.obj
 0004:000002f4       $pdata$?_Erase@?$_Tree@V?$_Tmap_traits@V?$basic_string@_WU?$char_traits@_W@std@@V?$allocator@_W@2@@std@@V?$shared_ptr@Uname_t@DispObjectImpl@@@2@U?$less@V?$basic_string@_WU?$char_traits@_W@std@@V?$allocator@_W@2@@std@@@2@V?$allocator@U?$pair@$$CBV?$basic_string@_WU?$char_traits@_W@std@@V?$allocator@_W@2@@std@@V?$shared_ptr@Uname_t@DispObjectImpl@@@2@@std@@@2@$0A@@std@@@std@@IEAAXPEAU?$_Tree_node@U?$pair@$$CBV?$basic_string@_WU?$char_traits@_W@std@@V?$allocator@_W@2@@std@@V?$shared_ptr@Uname_t@DispObjectImpl@@@2@@std@@PEAX@2@@Z 00000001800302f4     utils.obj
 0004:00000300       $pdata$1$?_Erase@?$_Tree@V?$_Tmap_traits@V?$basic_string@_WU?$char_traits@_W@std@@V?$allocator@_W@2@@std@@V?$shared_ptr@Uname_t@DispObjectImpl@@@2@U?$less@V?$basic_string@_WU?$char_traits@_W@std@@V?$allocator@_W@2@@std@@@2@V?$allocator@U?$pair@$$CBV?$basic_string@_WU?$char_traits@_W@std@@V?$allocator@_W@2@@std@@V?$shared_ptr@Uname_t@DispObjectImpl@@@2@@std@@@2@$0A@@std@@@std@@IEAAXPEAU?$_Tree_node@U?$pair@$$CBV?$basic_string@_WU?$char_traits@_W@std@@V?$allocator@_W@2@@std@@V?$shared_ptr@Uname_t@DispObjectImpl@@@2@@std@@PEAX@2@@Z 0000000180030300     utils.obj
 0004:0000030c       $pdata$2$?_Erase@?$_Tree@V?$_Tmap_traits@V?$basic_string@_WU?$char_traits@_W@std@@V?$allocator@_W@2@@std@@V?$shared_ptr@Uname_t@DispObjectImpl@@@2@U?$less@V?$basic_string@_WU?$char_traits@_W@std@@V?$allocator@_W@2@@std@@@2@V?$allocator@U?$pair@$$CBV?$basic_string@_WU?$char_traits@_W@std@@V?$allocator@_W@2@@std@@V?$shared_ptr@Uname_t@DispObjectImpl@@@2@@std@@@2@$0A@@std@@@std@@IEAAXPEAU?$_Tree_node@U?$pair@$$CBV?$basic_string@_WU?$char_traits@_W@std@@V?$allocator@_W@2@@std@@V?$shared_ptr@Uname_t@DispObjectImpl@@@2@@std@@PEAX@2@@Z 000000018003030c     utils.obj
 0004:00000318       $pdata$3$?_Erase@?$_Tree@V?$_Tmap_traits@V?$basic_string@_WU?$char_traits@_W@std@@V?$allocator@_W@2@@std@@V?$shared_ptr@Uname_t@DispObjectImpl@@@2@U?$less@V?$basic_string@_WU?$char_traits@_W@std@@V?$allocator@_W@2@@std@@@2@V?$allocator@U?$pair@$$CBV?$basic_string@_WU?$char_traits@_W@std@@V?$allocator@_W@2@@std@@V?$shared_ptr@Uname_t@DispObjectImpl@@@2@@std@@@2@$0A@@std@@@std@@IEAAXPEAU?$_Tree_node@U?$pair@$$CBV?$basic_string@_WU?$char_traits@_W@std@@V?$allocator@_W@2@@std@@V?$shared_ptr@Uname_t@DispObjectImpl@@@2@@std@@PEAX@2@@Z 0000000180030318     utils.obj
 0004:00000324       $pdata$??$Enumerate@V<lambda_8d358ac099d63a162fde4e1faf93afcd>@@@DispInfo@@QEAA_NV<lambda_8d358ac099d63a162fde4e1faf93afcd>@@@Z 0000000180030324     utils.obj
 0004:00000330       $pdata$??$Unwrap@VDispObject@@@ObjectWrap@node@@SAPEAVDispObject@@V?$Local@VObject@v8@@@v8@@@Z 0000000180030330     utils.obj
 0004:0000033c       $pdata$??$sprintf_s@$0BAA@@@YAHAEAY0BAA@DPEBDZZ 000000018003033c     utils.obj
 0004:00000348       $pdata$??$Variant2Int@K@@YAKAEBUtagVARIANT@@K@Z 0000000180030348     utils.obj
 0004:00000354       $pdata$??$reset@Uname_t@DispObjectImpl@@@?$shared_ptr@Uname_t@DispObjectImpl@@@std@@QEAAXPEAUname_t@DispObjectImpl@@@Z 0000000180030354     utils.obj
 0004:00000360       $pdata$??$Variant2Int@J@@YAJAEBUtagVARIANT@@J@Z 0000000180030360     utils.obj
 0004:0000036c       $pdata$??$PrepareType@V<lambda_8d358ac099d63a162fde4e1faf93afcd>@@@DispInfo@@QEAA_NPEAUITypeInfo@@V<lambda_8d358ac099d63a162fde4e1faf93afcd>@@@Z 000000018003036c     utils.obj
 0004:00000378       $pdata$??$_Insert_nohint@U?$pair@$$CBJV?$shared_ptr@Uname_t@DispObjectImpl@@@std@@@std@@U_Nil@2@@?$_Tree@V?$_Tmap_traits@JV?$shared_ptr@Uname_t@DispObjectImpl@@@std@@U?$less@J@2@V?$allocator@U?$pair@$$CBJV?$shared_ptr@Uname_t@DispObjectImpl@@@std@@@std@@@2@$0A@@std@@@std@@IEAA?AU?$pair@V?$_Tree_iterator@V?$_Tree_val@U?$_Tree_simple_types@U?$pair@$$CBJV?$shared_ptr@Uname_t@DispObjectImpl@@@std@@@std@@@std@@@std@@@std@@_N@1@_N$$QEAU?$pair@$$CBJV?$shared_ptr@Uname_t@DispObjectImpl@@@std@@@1@U_Nil@1@@Z 0000000180030378     utils.obj
 0004:00000384       $pdata$??$_Try_emplace@AEBV?$basic_string@_WU?$char_traits@_W@std@@V?$allocator@_W@2@@std@@$$V@?$map@V?$basic_string@_WU?$char_traits@_W@std@@V?$allocator@_W@2@@std@@V?$shared_ptr@Uname_t@DispObjectImpl@@@2@U?$less@V?$basic_string@_WU?$char_traits@_W@std@@V?$allocator@_W@2@@std@@@2@V?$allocator@U?$pair@$$CBV?$basic_string@_WU?$char_traits@_W@std@@V?$allocator@_W@2@@std@@V?$shared_ptr@Uname_t@DispObjectImpl@@@2@@std@@@2@@std@@QEAA?AU?$pair@V?$_Tree_iterator@V?$_Tree_val@U?$_Tree_simple_types@U?$pair@$$CBV?$basic_string@_WU?$char_traits@_W@std@@V?$allocator@_W@2@@std@@V?$shared_ptr@Uname_t@DispObjectImpl@@@2@@std@@@std@@@std@@@std@@_N@1@AEBV?$basic_string@_WU?$char_traits@_W@std@@V?$allocator@_W@2@@1@@Z 0000000180030384     utils.obj
 0004:00000390       $pdata$2$??$_Try_emplace@AEBV?$basic_string@_WU?$char_traits@_W@std@@V?$allocator@_W@2@@std@@$$V@?$map@V?$basic_string@_WU?$char_traits@_W@std@@V?$allocator@_W@2@@std@@V?$shared_ptr@Uname_t@DispObjectImpl@@@2@U?$less@V?$basic_string@_WU?$char_traits@_W@std@@V?$allocator@_W@2@@std@@@2@V?$allocator@U?$pair@$$CBV?$basic_string@_WU?$char_traits@_W@std@@V?$allocator@_W@2@@std@@V?$shared_ptr@Uname_t@DispObjectImpl@@@2@@std@@@2@@std@@QEAA?AU?$pair@V?$_Tree_iterator@V?$_Tree_val@U?$_Tree_simple_types@U?$pair@$$CBV?$basic_string@_WU?$char_traits@_W@std@@V?$allocator@_W@2@@std@@V?$shared_ptr@Uname_t@DispObjectImpl@@@2@@std@@@std@@@std@@@std@@_N@1@AEBV?$basic_string@_WU?$char_traits@_W@std@@V?$allocator@_W@2@@1@@Z 0000000180030390     utils.obj
 0004:0000039c       $pdata$3$??$_Try_emplace@AEBV?$basic_string@_WU?$char_traits@_W@std@@V?$allocator@_W@2@@std@@$$V@?$map@V?$basic_string@_WU?$char_traits@_W@std@@V?$allocator@_W@2@@std@@V?$shared_ptr@Uname_t@DispObjectImpl@@@2@U?$less@V?$basic_string@_WU?$char_traits@_W@std@@V?$allocator@_W@2@@std@@@2@V?$allocator@U?$pair@$$CBV?$basic_string@_WU?$char_traits@_W@std@@V?$allocator@_W@2@@std@@V?$shared_ptr@Uname_t@DispObjectImpl@@@2@@std@@@2@@std@@QEAA?AU?$pair@V?$_Tree_iterator@V?$_Tree_val@U?$_Tree_simple_types@U?$pair@$$CBV?$basic_string@_WU?$char_traits@_W@std@@V?$allocator@_W@2@@std@@V?$shared_ptr@Uname_t@DispObjectImpl@@@2@@std@@@std@@@std@@@std@@_N@1@AEBV?$basic_string@_WU?$char_traits@_W@std@@V?$allocator@_W@2@@1@@Z 000000018003039c     utils.obj
 0004:000003a8       $pdata$??1DispInfo@@QEAA@XZ 00000001800303a8     utils.obj
 0004:000003b4       $pdata$?_Destroy@?$_Ref_count@VDispInfo@@@std@@EEAAXXZ 00000001800303b4     utils.obj
 0004:000003c0       $pdata$??R?$less@V?$basic_string@_WU?$char_traits@_W@std@@V?$allocator@_W@2@@std@@@std@@QEBA_NAEBV?$basic_string@_WU?$char_traits@_W@std@@V?$allocator@_W@2@@1@0@Z 00000001800303c0     utils.obj
 0004:000003cc       $pdata$??_G?$_Ref_count@Utype_t@DispInfo@@@std@@UEAAPEAXI@Z 00000001800303cc     utils.obj
 0004:000003cc       $pdata$??_G?$_Ref_count@Uname_t@DispObjectImpl@@@std@@UEAAPEAXI@Z 00000001800303cc     utils.obj
 0004:000003cc       $pdata$??_G?$_Ref_count@VDispInfo@@@std@@UEAAPEAXI@Z 00000001800303cc     utils.obj
 0004:000003d8       $pdata$?_Reset0@?$_Ptr_base@Uname_t@DispObjectImpl@@@std@@QEAAXPEAUname_t@DispObjectImpl@@PEAV_Ref_count_base@2@@Z 00000001800303d8     utils.obj
 0004:000003d8       $pdata$?_Reset0@?$_Ptr_base@VDispInfo@@@std@@QEAAXPEAVDispInfo@@PEAV_Ref_count_base@2@@Z 00000001800303d8     utils.obj
 0004:000003e4       $pdata$0$?_Reset0@?$_Ptr_base@Uname_t@DispObjectImpl@@@std@@QEAAXPEAUname_t@DispObjectImpl@@PEAV_Ref_count_base@2@@Z 00000001800303e4     utils.obj
 0004:000003e4       $pdata$0$?_Reset0@?$_Ptr_base@VDispInfo@@@std@@QEAAXPEAVDispInfo@@PEAV_Ref_count_base@2@@Z 00000001800303e4     utils.obj
 0004:000003f0       $pdata$1$?_Reset0@?$_Ptr_base@Uname_t@DispObjectImpl@@@std@@QEAAXPEAUname_t@DispObjectImpl@@PEAV_Ref_count_base@2@@Z 00000001800303f0     utils.obj
 0004:000003f0       $pdata$1$?_Reset0@?$_Ptr_base@VDispInfo@@@std@@QEAAXPEAVDispInfo@@PEAV_Ref_count_base@2@@Z 00000001800303f0     utils.obj
 0004:000003fc       $pdata$2$?_Reset0@?$_Ptr_base@Uname_t@DispObjectImpl@@@std@@QEAAXPEAUname_t@DispObjectImpl@@PEAV_Ref_count_base@2@@Z 00000001800303fc     utils.obj
 0004:000003fc       $pdata$2$?_Reset0@?$_Ptr_base@VDispInfo@@@std@@QEAAXPEAVDispInfo@@PEAV_Ref_count_base@2@@Z 00000001800303fc     utils.obj
 0004:00000408       $pdata$3$?_Reset0@?$_Ptr_base@VDispInfo@@@std@@QEAAXPEAVDispInfo@@PEAV_Ref_count_base@2@@Z 0000000180030408     utils.obj
 0004:00000408       $pdata$3$?_Reset0@?$_Ptr_base@Uname_t@DispObjectImpl@@@std@@QEAAXPEAUname_t@DispObjectImpl@@PEAV_Ref_count_base@2@@Z 0000000180030408     utils.obj
 0004:00000414       $pdata$??$_Insert_at@U?$pair@$$CBJV?$shared_ptr@Uname_t@DispObjectImpl@@@std@@@std@@U_Nil@2@@?$_Tree@V?$_Tmap_traits@JV?$shared_ptr@Uname_t@DispObjectImpl@@@std@@U?$less@J@2@V?$allocator@U?$pair@$$CBJV?$shared_ptr@Uname_t@DispObjectImpl@@@std@@@std@@@2@$0A@@std@@@std@@IEAA?AV?$_Tree_iterator@V?$_Tree_val@U?$_Tree_simple_types@U?$pair@$$CBJV?$shared_ptr@Uname_t@DispObjectImpl@@@std@@@std@@@std@@@std@@@1@_NPEAU?$_Tree_node@U?$pair@$$CBJV?$shared_ptr@Uname_t@DispObjectImpl@@@std@@@std@@PEAX@1@$$QEAU?$pair@$$CBJV?$shared_ptr@Uname_t@DispObjectImpl@@@std@@@1@U_Nil@1@@Z 0000000180030414     utils.obj
 0004:00000420       $pdata$??$_Lbound@V?$basic_string@_WU?$char_traits@_W@std@@V?$allocator@_W@2@@std@@@?$_Tree@V?$_Tmap_traits@V?$basic_string@_WU?$char_traits@_W@std@@V?$allocator@_W@2@@std@@V?$shared_ptr@Uname_t@DispObjectImpl@@@2@U?$less@V?$basic_string@_WU?$char_traits@_W@std@@V?$allocator@_W@2@@std@@@2@V?$allocator@U?$pair@$$CBV?$basic_string@_WU?$char_traits@_W@std@@V?$allocator@_W@2@@std@@V?$shared_ptr@Uname_t@DispObjectImpl@@@2@@std@@@2@$0A@@std@@@std@@IEBAPEAU?$_Tree_node@U?$pair@$$CBV?$basic_string@_WU?$char_traits@_W@std@@V?$allocator@_W@2@@std@@V?$shared_ptr@Uname_t@DispObjectImpl@@@2@@std@@PEAX@1@AEBV?$basic_string@_WU?$char_traits@_W@std@@V?$allocator@_W@2@@1@@Z 0000000180030420     utils.obj
 0004:0000042c       $pdata$2$??$_Lbound@V?$basic_string@_WU?$char_traits@_W@std@@V?$allocator@_W@2@@std@@@?$_Tree@V?$_Tmap_traits@V?$basic_string@_WU?$char_traits@_W@std@@V?$allocator@_W@2@@std@@V?$shared_ptr@Uname_t@DispObjectImpl@@@2@U?$less@V?$basic_string@_WU?$char_traits@_W@std@@V?$allocator@_W@2@@std@@@2@V?$allocator@U?$pair@$$CBV?$basic_string@_WU?$char_traits@_W@std@@V?$allocator@_W@2@@std@@V?$shared_ptr@Uname_t@DispObjectImpl@@@2@@std@@@2@$0A@@std@@@std@@IEBAPEAU?$_Tree_node@U?$pair@$$CBV?$basic_string@_WU?$char_traits@_W@std@@V?$allocator@_W@2@@std@@V?$shared_ptr@Uname_t@DispObjectImpl@@@2@@std@@PEAX@1@AEBV?$basic_string@_WU?$char_traits@_W@std@@V?$allocator@_W@2@@1@@Z 000000018003042c     utils.obj
 0004:00000438       $pdata$3$??$_Lbound@V?$basic_string@_WU?$char_traits@_W@std@@V?$allocator@_W@2@@std@@@?$_Tree@V?$_Tmap_traits@V?$basic_string@_WU?$char_traits@_W@std@@V?$allocator@_W@2@@std@@V?$shared_ptr@Uname_t@DispObjectImpl@@@2@U?$less@V?$basic_string@_WU?$char_traits@_W@std@@V?$allocator@_W@2@@std@@@2@V?$allocator@U?$pair@$$CBV?$basic_string@_WU?$char_traits@_W@std@@V?$allocator@_W@2@@std@@V?$shared_ptr@Uname_t@DispObjectImpl@@@2@@std@@@2@$0A@@std@@@std@@IEBAPEAU?$_Tree_node@U?$pair@$$CBV?$basic_string@_WU?$char_traits@_W@std@@V?$allocator@_W@2@@std@@V?$shared_ptr@Uname_t@DispObjectImpl@@@2@@std@@PEAX@1@AEBV?$basic_string@_WU?$char_traits@_W@std@@V?$allocator@_W@2@@1@@Z 0000000180030438     utils.obj
 0004:00000444       $pdata$4$??$_Lbound@V?$basic_string@_WU?$char_traits@_W@std@@V?$allocator@_W@2@@std@@@?$_Tree@V?$_Tmap_traits@V?$basic_string@_WU?$char_traits@_W@std@@V?$allocator@_W@2@@std@@V?$shared_ptr@Uname_t@DispObjectImpl@@@2@U?$less@V?$basic_string@_WU?$char_traits@_W@std@@V?$allocator@_W@2@@std@@@2@V?$allocator@U?$pair@$$CBV?$basic_string@_WU?$char_traits@_W@std@@V?$allocator@_W@2@@std@@V?$shared_ptr@Uname_t@DispObjectImpl@@@2@@std@@@2@$0A@@std@@@std@@IEBAPEAU?$_Tree_node@U?$pair@$$CBV?$basic_string@_WU?$char_traits@_W@std@@V?$allocator@_W@2@@std@@V?$shared_ptr@Uname_t@DispObjectImpl@@@2@@std@@PEAX@1@AEBV?$basic_string@_WU?$char_traits@_W@std@@V?$allocator@_W@2@@1@@Z 0000000180030444     utils.obj
 0004:00000450       $pdata$?_Destroy@?$_Ref_count@Uname_t@DispObjectImpl@@@std@@EEAAXXZ 0000000180030450     utils.obj
 0004:0000045c       $pdata$?_Traits_compare@?$basic_string@_WU?$char_traits@_W@std@@V?$allocator@_W@2@@std@@SAHQEB_W_K01@Z 000000018003045c     utils.obj
 0004:00000468       $pdata$??$_Insert_hint@AEAU?$pair@$$CBJV?$shared_ptr@Utype_t@DispInfo@@@std@@@std@@PEAU?$_Tree_node@U?$pair@$$CBJV?$shared_ptr@Utype_t@DispInfo@@@std@@@std@@PEAX@2@@?$_Tree@V?$_Tmap_traits@JV?$shared_ptr@Utype_t@DispInfo@@@std@@U?$less@J@2@V?$allocator@U?$pair@$$CBJV?$shared_ptr@Utype_t@DispInfo@@@std@@@std@@@2@$0A@@std@@@std@@IEAA?AV?$_Tree_iterator@V?$_Tree_val@U?$_Tree_simple_types@U?$pair@$$CBJV?$shared_ptr@Utype_t@DispInfo@@@std@@@std@@@std@@@std@@@1@V?$_Tree_const_iterator@V?$_Tree_val@U?$_Tree_simple_types@U?$pair@$$CBJV?$shared_ptr@Utype_t@DispInfo@@@std@@@std@@@std@@@std@@@1@AEAU?$pair@$$CBJV?$shared_ptr@Utype_t@DispInfo@@@std@@@1@PEAU?$_Tree_node@U?$pair@$$CBJV?$shared_ptr@Utype_t@DispInfo@@@std@@@std@@PEAX@1@@Z 0000000180030468     utils.obj
 0004:00000474       $pdata$0$??$_Insert_hint@AEAU?$pair@$$CBJV?$shared_ptr@Utype_t@DispInfo@@@std@@@std@@PEAU?$_Tree_node@U?$pair@$$CBJV?$shared_ptr@Utype_t@DispInfo@@@std@@@std@@PEAX@2@@?$_Tree@V?$_Tmap_traits@JV?$shared_ptr@Utype_t@DispInfo@@@std@@U?$less@J@2@V?$allocator@U?$pair@$$CBJV?$shared_ptr@Utype_t@DispInfo@@@std@@@std@@@2@$0A@@std@@@std@@IEAA?AV?$_Tree_iterator@V?$_Tree_val@U?$_Tree_simple_types@U?$pair@$$CBJV?$shared_ptr@Utype_t@DispInfo@@@std@@@std@@@std@@@std@@@1@V?$_Tree_const_iterator@V?$_Tree_val@U?$_Tree_simple_types@U?$pair@$$CBJV?$shared_ptr@Utype_t@DispInfo@@@std@@@std@@@std@@@std@@@1@AEAU?$pair@$$CBJV?$shared_ptr@Utype_t@DispInfo@@@std@@@1@PEAU?$_Tree_node@U?$pair@$$CBJV?$shared_ptr@Utype_t@DispInfo@@@std@@@std@@PEAX@1@@Z 0000000180030474     utils.obj
 0004:00000480       $pdata$2$??$_Insert_hint@AEAU?$pair@$$CBJV?$shared_ptr@Utype_t@DispInfo@@@std@@@std@@PEAU?$_Tree_node@U?$pair@$$CBJV?$shared_ptr@Utype_t@DispInfo@@@std@@@std@@PEAX@2@@?$_Tree@V?$_Tmap_traits@JV?$shared_ptr@Utype_t@DispInfo@@@std@@U?$less@J@2@V?$allocator@U?$pair@$$CBJV?$shared_ptr@Utype_t@DispInfo@@@std@@@std@@@2@$0A@@std@@@std@@IEAA?AV?$_Tree_iterator@V?$_Tree_val@U?$_Tree_simple_types@U?$pair@$$CBJV?$shared_ptr@Utype_t@DispInfo@@@std@@@std@@@std@@@std@@@1@V?$_Tree_const_iterator@V?$_Tree_val@U?$_Tree_simple_types@U?$pair@$$CBJV?$shared_ptr@Utype_t@DispInfo@@@std@@@std@@@std@@@std@@@1@AEAU?$pair@$$CBJV?$shared_ptr@Utype_t@DispInfo@@@std@@@1@PEAU?$_Tree_node@U?$pair@$$CBJV?$shared_ptr@Utype_t@DispInfo@@@std@@@std@@PEAX@1@@Z 0000000180030480     utils.obj
 0004:0000048c       $pdata$4$??$_Insert_hint@AEAU?$pair@$$CBJV?$shared_ptr@Utype_t@DispInfo@@@std@@@std@@PEAU?$_Tree_node@U?$pair@$$CBJV?$shared_ptr@Utype_t@DispInfo@@@std@@@std@@PEAX@2@@?$_Tree@V?$_Tmap_traits@JV?$shared_ptr@Utype_t@DispInfo@@@std@@U?$less@J@2@V?$allocator@U?$pair@$$CBJV?$shared_ptr@Utype_t@DispInfo@@@std@@@std@@@2@$0A@@std@@@std@@IEAA?AV?$_Tree_iterator@V?$_Tree_val@U?$_Tree_simple_types@U?$pair@$$CBJV?$shared_ptr@Utype_t@DispInfo@@@std@@@std@@@std@@@std@@@1@V?$_Tree_const_iterator@V?$_Tree_val@U?$_Tree_simple_types@U?$pair@$$CBJV?$shared_ptr@Utype_t@DispInfo@@@std@@@std@@@std@@@std@@@1@AEAU?$pair@$$CBJV?$shared_ptr@Utype_t@DispInfo@@@std@@@1@PEAU?$_Tree_node@U?$pair@$$CBJV?$shared_ptr@Utype_t@DispInfo@@@std@@@std@@PEAX@1@@Z 000000018003048c     utils.obj
 0004:00000498       $pdata$6$??$_Insert_hint@AEAU?$pair@$$CBJV?$shared_ptr@Utype_t@DispInfo@@@std@@@std@@PEAU?$_Tree_node@U?$pair@$$CBJV?$shared_ptr@Utype_t@DispInfo@@@std@@@std@@PEAX@2@@?$_Tree@V?$_Tmap_traits@JV?$shared_ptr@Utype_t@DispInfo@@@std@@U?$less@J@2@V?$allocator@U?$pair@$$CBJV?$shared_ptr@Utype_t@DispInfo@@@std@@@std@@@2@$0A@@std@@@std@@IEAA?AV?$_Tree_iterator@V?$_Tree_val@U?$_Tree_simple_types@U?$pair@$$CBJV?$shared_ptr@Utype_t@DispInfo@@@std@@@std@@@std@@@std@@@1@V?$_Tree_const_iterator@V?$_Tree_val@U?$_Tree_simple_types@U?$pair@$$CBJV?$shared_ptr@Utype_t@DispInfo@@@std@@@std@@@std@@@std@@@1@AEAU?$pair@$$CBJV?$shared_ptr@Utype_t@DispInfo@@@std@@@1@PEAU?$_Tree_node@U?$pair@$$CBJV?$shared_ptr@Utype_t@DispInfo@@@std@@@std@@PEAX@1@@Z 0000000180030498     utils.obj
 0004:000004a4       $pdata$8$??$_Insert_hint@AEAU?$pair@$$CBJV?$shared_ptr@Utype_t@DispInfo@@@std@@@std@@PEAU?$_Tree_node@U?$pair@$$CBJV?$shared_ptr@Utype_t@DispInfo@@@std@@@std@@PEAX@2@@?$_Tree@V?$_Tmap_traits@JV?$shared_ptr@Utype_t@DispInfo@@@std@@U?$less@J@2@V?$allocator@U?$pair@$$CBJV?$shared_ptr@Utype_t@DispInfo@@@std@@@std@@@2@$0A@@std@@@std@@IEAA?AV?$_Tree_iterator@V?$_Tree_val@U?$_Tree_simple_types@U?$pair@$$CBJV?$shared_ptr@Utype_t@DispInfo@@@std@@@std@@@std@@@std@@@1@V?$_Tree_const_iterator@V?$_Tree_val@U?$_Tree_simple_types@U?$pair@$$CBJV?$shared_ptr@Utype_t@DispInfo@@@std@@@std@@@std@@@std@@@1@AEAU?$pair@$$CBJV?$shared_ptr@Utype_t@DispInfo@@@std@@@1@PEAU?$_Tree_node@U?$pair@$$CBJV?$shared_ptr@Utype_t@DispInfo@@@std@@@std@@PEAX@1@@Z 00000001800304a4     utils.obj
 0004:000004b0       $pdata$??$_Insert_hint@AEAU?$pair@$$CBV?$basic_string@_WU?$char_traits@_W@std@@V?$allocator@_W@2@@std@@V?$shared_ptr@Uname_t@DispObjectImpl@@@2@@std@@PEAU?$_Tree_node@U?$pair@$$CBV?$basic_string@_WU?$char_traits@_W@std@@V?$allocator@_W@2@@std@@V?$shared_ptr@Uname_t@DispObjectImpl@@@2@@std@@PEAX@2@@?$_Tree@V?$_Tmap_traits@V?$basic_string@_WU?$char_traits@_W@std@@V?$allocator@_W@2@@std@@V?$shared_ptr@Uname_t@DispObjectImpl@@@2@U?$less@V?$basic_string@_WU?$char_traits@_W@std@@V?$allocator@_W@2@@std@@@2@V?$allocator@U?$pair@$$CBV?$basic_string@_WU?$char_traits@_W@std@@V?$allocator@_W@2@@std@@V?$shared_ptr@Uname_t@DispObjectImpl@@@2@@std@@@2@$0A@@std@@@std@@IEAA?AV?$_Tree_iterator@V?$_Tree_val@U?$_Tree_simple_types@U?$pair@$$CBV?$basic_string@_WU?$char_traits@_W@std@@V?$allocator@_W@2@@std@@V?$shared_ptr@Uname_t@DispObjectImpl@@@2@@std@@@std@@@std@@@1@V?$_Tree_const_iterator@V?$_Tree_val@U?$_Tree_simple_types@U?$pair@$$CBV?$basic_string@_WU?$char_traits@_W@std@@V?$allocator@_W@2@@std@@V?$shared_ptr@Uname_t@DispObjectImpl@@@2@@std@@@std@@@std@@@1@AEAU?$pair@$$CBV?$basic_string@_WU?$char_traits@_W@std@@V?$allocator@_W@2@@std@@V?$shared_ptr@Uname_t@DispObjectImpl@@@2@@1@PEAU?$_Tree_node@U?$pair@$$CBV?$basic_string@_WU?$char_traits@_W@std@@V?$allocator@_W@2@@std@@V?$shared_ptr@Uname_t@DispObjectImpl@@@2@@std@@PEAX@1@@Z 00000001800304b0     utils.obj
 0004:000004bc       $pdata$?_Destroy_if_not_nil@?$_Tree@V?$_Tmap_traits@JV?$shared_ptr@Utype_t@DispInfo@@@std@@U?$less@J@2@V?$allocator@U?$pair@$$CBJV?$shared_ptr@Utype_t@DispInfo@@@std@@@std@@@2@$0A@@std@@@std@@IEAAXPEAU?$_Tree_node@U?$pair@$$CBJV?$shared_ptr@Utype_t@DispInfo@@@std@@@std@@PEAX@2@@Z 00000001800304bc     utils.obj
 0004:000004c8       $pdata$0$?_Destroy_if_not_nil@?$_Tree@V?$_Tmap_traits@JV?$shared_ptr@Utype_t@DispInfo@@@std@@U?$less@J@2@V?$allocator@U?$pair@$$CBJV?$shared_ptr@Utype_t@DispInfo@@@std@@@std@@@2@$0A@@std@@@std@@IEAAXPEAU?$_Tree_node@U?$pair@$$CBJV?$shared_ptr@Utype_t@DispInfo@@@std@@@std@@PEAX@2@@Z 00000001800304c8     utils.obj
 0004:000004d4       $pdata$1$?_Destroy_if_not_nil@?$_Tree@V?$_Tmap_traits@JV?$shared_ptr@Utype_t@DispInfo@@@std@@U?$less@J@2@V?$allocator@U?$pair@$$CBJV?$shared_ptr@Utype_t@DispInfo@@@std@@@std@@@2@$0A@@std@@@std@@IEAAXPEAU?$_Tree_node@U?$pair@$$CBJV?$shared_ptr@Utype_t@DispInfo@@@std@@@std@@PEAX@2@@Z 00000001800304d4     utils.obj
 0004:000004e0       $pdata$?_Destroy_if_not_nil@?$_Tree@V?$_Tmap_traits@V?$basic_string@_WU?$char_traits@_W@std@@V?$allocator@_W@2@@std@@V?$shared_ptr@Uname_t@DispObjectImpl@@@2@U?$less@V?$basic_string@_WU?$char_traits@_W@std@@V?$allocator@_W@2@@std@@@2@V?$allocator@U?$pair@$$CBV?$basic_string@_WU?$char_traits@_W@std@@V?$allocator@_W@2@@std@@V?$shared_ptr@Uname_t@DispObjectImpl@@@2@@std@@@2@$0A@@std@@@std@@IEAAXPEAU?$_Tree_node@U?$pair@$$CBV?$basic_string@_WU?$char_traits@_W@std@@V?$allocator@_W@2@@std@@V?$shared_ptr@Uname_t@DispObjectImpl@@@2@@std@@PEAX@2@@Z 00000001800304e0     utils.obj
 0004:000004ec       $pdata$0$?_Destroy_if_not_nil@?$_Tree@V?$_Tmap_traits@V?$basic_string@_WU?$char_traits@_W@std@@V?$allocator@_W@2@@std@@V?$shared_ptr@Uname_t@DispObjectImpl@@@2@U?$less@V?$basic_string@_WU?$char_traits@_W@std@@V?$allocator@_W@2@@std@@@2@V?$allocator@U?$pair@$$CBV?$basic_string@_WU?$char_traits@_W@std@@V?$allocator@_W@2@@std@@V?$shared_ptr@Uname_t@DispObjectImpl@@@2@@std@@@2@$0A@@std@@@std@@IEAAXPEAU?$_Tree_node@U?$pair@$$CBV?$basic_string@_WU?$char_traits@_W@std@@V?$allocator@_W@2@@std@@V?$shared_ptr@Uname_t@DispObjectImpl@@@2@@std@@PEAX@2@@Z 00000001800304ec     utils.obj
 0004:000004f8       $pdata$1$?_Destroy_if_not_nil@?$_Tree@V?$_Tmap_traits@V?$basic_string@_WU?$char_traits@_W@std@@V?$allocator@_W@2@@std@@V?$shared_ptr@Uname_t@DispObjectImpl@@@2@U?$less@V?$basic_string@_WU?$char_traits@_W@std@@V?$allocator@_W@2@@std@@@2@V?$allocator@U?$pair@$$CBV?$basic_string@_WU?$char_traits@_W@std@@V?$allocator@_W@2@@std@@V?$shared_ptr@Uname_t@DispObjectImpl@@@2@@std@@@2@$0A@@std@@@std@@IEAAXPEAU?$_Tree_node@U?$pair@$$CBV?$basic_string@_WU?$char_traits@_W@std@@V?$allocator@_W@2@@std@@V?$shared_ptr@Uname_t@DispObjectImpl@@@2@@std@@PEAX@2@@Z 00000001800304f8     utils.obj
 0004:00000504       $pdata$??$_Insert_at@AEAU?$pair@$$CBJV?$shared_ptr@Utype_t@DispInfo@@@std@@@std@@PEAU?$_Tree_node@U?$pair@$$CBJV?$shared_ptr@Utype_t@DispInfo@@@std@@@std@@PEAX@2@@?$_Tree@V?$_Tmap_traits@JV?$shared_ptr@Utype_t@DispInfo@@@std@@U?$less@J@2@V?$allocator@U?$pair@$$CBJV?$shared_ptr@Utype_t@DispInfo@@@std@@@std@@@2@$0A@@std@@@std@@IEAA?AV?$_Tree_iterator@V?$_Tree_val@U?$_Tree_simple_types@U?$pair@$$CBJV?$shared_ptr@Utype_t@DispInfo@@@std@@@std@@@std@@@std@@@1@_NPEAU?$_Tree_node@U?$pair@$$CBJV?$shared_ptr@Utype_t@DispInfo@@@std@@@std@@PEAX@1@AEAU?$pair@$$CBJV?$shared_ptr@Utype_t@DispInfo@@@std@@@1@1@Z 0000000180030504     utils.obj
 0004:00000510       $pdata$1$??$_Insert_at@AEAU?$pair@$$CBJV?$shared_ptr@Utype_t@DispInfo@@@std@@@std@@PEAU?$_Tree_node@U?$pair@$$CBJV?$shared_ptr@Utype_t@DispInfo@@@std@@@std@@PEAX@2@@?$_Tree@V?$_Tmap_traits@JV?$shared_ptr@Utype_t@DispInfo@@@std@@U?$less@J@2@V?$allocator@U?$pair@$$CBJV?$shared_ptr@Utype_t@DispInfo@@@std@@@std@@@2@$0A@@std@@@std@@IEAA?AV?$_Tree_iterator@V?$_Tree_val@U?$_Tree_simple_types@U?$pair@$$CBJV?$shared_ptr@Utype_t@DispInfo@@@std@@@std@@@std@@@std@@@1@_NPEAU?$_Tree_node@U?$pair@$$CBJV?$shared_ptr@Utype_t@DispInfo@@@std@@@std@@PEAX@1@AEAU?$pair@$$CBJV?$shared_ptr@Utype_t@DispInfo@@@std@@@1@1@Z 0000000180030510     utils.obj
 0004:0000051c       $pdata$2$??$_Insert_at@AEAU?$pair@$$CBJV?$shared_ptr@Utype_t@DispInfo@@@std@@@std@@PEAU?$_Tree_node@U?$pair@$$CBJV?$shared_ptr@Utype_t@DispInfo@@@std@@@std@@PEAX@2@@?$_Tree@V?$_Tmap_traits@JV?$shared_ptr@Utype_t@DispInfo@@@std@@U?$less@J@2@V?$allocator@U?$pair@$$CBJV?$shared_ptr@Utype_t@DispInfo@@@std@@@std@@@2@$0A@@std@@@std@@IEAA?AV?$_Tree_iterator@V?$_Tree_val@U?$_Tree_simple_types@U?$pair@$$CBJV?$shared_ptr@Utype_t@DispInfo@@@std@@@std@@@std@@@std@@@1@_NPEAU?$_Tree_node@U?$pair@$$CBJV?$shared_ptr@Utype_t@DispInfo@@@std@@@std@@PEAX@1@AEAU?$pair@$$CBJV?$shared_ptr@Utype_t@DispInfo@@@std@@@1@1@Z 000000018003051c     utils.obj
 0004:00000528       $pdata$3$??$_Insert_at@AEAU?$pair@$$CBJV?$shared_ptr@Utype_t@DispInfo@@@std@@@std@@PEAU?$_Tree_node@U?$pair@$$CBJV?$shared_ptr@Utype_t@DispInfo@@@std@@@std@@PEAX@2@@?$_Tree@V?$_Tmap_traits@JV?$shared_ptr@Utype_t@DispInfo@@@std@@U?$less@J@2@V?$allocator@U?$pair@$$CBJV?$shared_ptr@Utype_t@DispInfo@@@std@@@std@@@2@$0A@@std@@@std@@IEAA?AV?$_Tree_iterator@V?$_Tree_val@U?$_Tree_simple_types@U?$pair@$$CBJV?$shared_ptr@Utype_t@DispInfo@@@std@@@std@@@std@@@std@@@1@_NPEAU?$_Tree_node@U?$pair@$$CBJV?$shared_ptr@Utype_t@DispInfo@@@std@@@std@@PEAX@1@AEAU?$pair@$$CBJV?$shared_ptr@Utype_t@DispInfo@@@std@@@1@1@Z 0000000180030528     utils.obj
 0004:00000534       $pdata$4$??$_Insert_at@AEAU?$pair@$$CBJV?$shared_ptr@Utype_t@DispInfo@@@std@@@std@@PEAU?$_Tree_node@U?$pair@$$CBJV?$shared_ptr@Utype_t@DispInfo@@@std@@@std@@PEAX@2@@?$_Tree@V?$_Tmap_traits@JV?$shared_ptr@Utype_t@DispInfo@@@std@@U?$less@J@2@V?$allocator@U?$pair@$$CBJV?$shared_ptr@Utype_t@DispInfo@@@std@@@std@@@2@$0A@@std@@@std@@IEAA?AV?$_Tree_iterator@V?$_Tree_val@U?$_Tree_simple_types@U?$pair@$$CBJV?$shared_ptr@Utype_t@DispInfo@@@std@@@std@@@std@@@std@@@1@_NPEAU?$_Tree_node@U?$pair@$$CBJV?$shared_ptr@Utype_t@DispInfo@@@std@@@std@@PEAX@1@AEAU?$pair@$$CBJV?$shared_ptr@Utype_t@DispInfo@@@std@@@1@1@Z 0000000180030534     utils.obj
 0004:00000540       $pdata$??$_Insert_nohint@AEAU?$pair@$$CBJV?$shared_ptr@Utype_t@DispInfo@@@std@@@std@@PEAU?$_Tree_node@U?$pair@$$CBJV?$shared_ptr@Utype_t@DispInfo@@@std@@@std@@PEAX@2@@?$_Tree@V?$_Tmap_traits@JV?$shared_ptr@Utype_t@DispInfo@@@std@@U?$less@J@2@V?$allocator@U?$pair@$$CBJV?$shared_ptr@Utype_t@DispInfo@@@std@@@std@@@2@$0A@@std@@@std@@IEAA?AU?$pair@V?$_Tree_iterator@V?$_Tree_val@U?$_Tree_simple_types@U?$pair@$$CBJV?$shared_ptr@Utype_t@DispInfo@@@std@@@std@@@std@@@std@@@std@@_N@1@_NAEAU?$pair@$$CBJV?$shared_ptr@Utype_t@DispInfo@@@std@@@1@PEAU?$_Tree_node@U?$pair@$$CBJV?$shared_ptr@Utype_t@DispInfo@@@std@@@std@@PEAX@1@@Z 0000000180030540     utils.obj
 0004:0000054c       $pdata$??$_Insert_at@AEAU?$pair@$$CBV?$basic_string@_WU?$char_traits@_W@std@@V?$allocator@_W@2@@std@@V?$shared_ptr@Uname_t@DispObjectImpl@@@2@@std@@PEAU?$_Tree_node@U?$pair@$$CBV?$basic_string@_WU?$char_traits@_W@std@@V?$allocator@_W@2@@std@@V?$shared_ptr@Uname_t@DispObjectImpl@@@2@@std@@PEAX@2@@?$_Tree@V?$_Tmap_traits@V?$basic_string@_WU?$char_traits@_W@std@@V?$allocator@_W@2@@std@@V?$shared_ptr@Uname_t@DispObjectImpl@@@2@U?$less@V?$basic_string@_WU?$char_traits@_W@std@@V?$allocator@_W@2@@std@@@2@V?$allocator@U?$pair@$$CBV?$basic_string@_WU?$char_traits@_W@std@@V?$allocator@_W@2@@std@@V?$shared_ptr@Uname_t@DispObjectImpl@@@2@@std@@@2@$0A@@std@@@std@@IEAA?AV?$_Tree_iterator@V?$_Tree_val@U?$_Tree_simple_types@U?$pair@$$CBV?$basic_string@_WU?$char_traits@_W@std@@V?$allocator@_W@2@@std@@V?$shared_ptr@Uname_t@DispObjectImpl@@@2@@std@@@std@@@std@@@1@_NPEAU?$_Tree_node@U?$pair@$$CBV?$basic_string@_WU?$char_traits@_W@std@@V?$allocator@_W@2@@std@@V?$shared_ptr@Uname_t@DispObjectImpl@@@2@@std@@PEAX@1@AEAU?$pair@$$CBV?$basic_string@_WU?$char_traits@_W@std@@V?$allocator@_W@2@@std@@V?$shared_ptr@Uname_t@DispObjectImpl@@@2@@1@1@Z 000000018003054c     utils.obj
 0004:00000558       $pdata$2$??$_Insert_at@AEAU?$pair@$$CBV?$basic_string@_WU?$char_traits@_W@std@@V?$allocator@_W@2@@std@@V?$shared_ptr@Uname_t@DispObjectImpl@@@2@@std@@PEAU?$_Tree_node@U?$pair@$$CBV?$basic_string@_WU?$char_traits@_W@std@@V?$allocator@_W@2@@std@@V?$shared_ptr@Uname_t@DispObjectImpl@@@2@@std@@PEAX@2@@?$_Tree@V?$_Tmap_traits@V?$basic_string@_WU?$char_traits@_W@std@@V?$allocator@_W@2@@std@@V?$shared_ptr@Uname_t@DispObjectImpl@@@2@U?$less@V?$basic_string@_WU?$char_traits@_W@std@@V?$allocator@_W@2@@std@@@2@V?$allocator@U?$pair@$$CBV?$basic_string@_WU?$char_traits@_W@std@@V?$allocator@_W@2@@std@@V?$shared_ptr@Uname_t@DispObjectImpl@@@2@@std@@@2@$0A@@std@@@std@@IEAA?AV?$_Tree_iterator@V?$_Tree_val@U?$_Tree_simple_types@U?$pair@$$CBV?$basic_string@_WU?$char_traits@_W@std@@V?$allocator@_W@2@@std@@V?$shared_ptr@Uname_t@DispObjectImpl@@@2@@std@@@std@@@std@@@1@_NPEAU?$_Tree_node@U?$pair@$$CBV?$basic_string@_WU?$char_traits@_W@std@@V?$allocator@_W@2@@std@@V?$shared_ptr@Uname_t@DispObjectImpl@@@2@@std@@PEAX@1@AEAU?$pair@$$CBV?$basic_string@_WU?$char_traits@_W@std@@V?$allocator@_W@2@@std@@V?$shared_ptr@Uname_t@DispObjectImpl@@@2@@1@1@Z 0000000180030558     utils.obj
 0004:00000564       $pdata$3$??$_Insert_at@AEAU?$pair@$$CBV?$basic_string@_WU?$char_traits@_W@std@@V?$allocator@_W@2@@std@@V?$shared_ptr@Uname_t@DispObjectImpl@@@2@@std@@PEAU?$_Tree_node@U?$pair@$$CBV?$basic_string@_WU?$char_traits@_W@std@@V?$allocator@_W@2@@std@@V?$shared_ptr@Uname_t@DispObjectImpl@@@2@@std@@PEAX@2@@?$_Tree@V?$_Tmap_traits@V?$basic_string@_WU?$char_traits@_W@std@@V?$allocator@_W@2@@std@@V?$shared_ptr@Uname_t@DispObjectImpl@@@2@U?$less@V?$basic_string@_WU?$char_traits@_W@std@@V?$allocator@_W@2@@std@@@2@V?$allocator@U?$pair@$$CBV?$basic_string@_WU?$char_traits@_W@std@@V?$allocator@_W@2@@std@@V?$shared_ptr@Uname_t@DispObjectImpl@@@2@@std@@@2@$0A@@std@@@std@@IEAA?AV?$_Tree_iterator@V?$_Tree_val@U?$_Tree_simple_types@U?$pair@$$CBV?$basic_string@_WU?$char_traits@_W@std@@V?$allocator@_W@2@@std@@V?$shared_ptr@Uname_t@DispObjectImpl@@@2@@std@@@std@@@std@@@1@_NPEAU?$_Tree_node@U?$pair@$$CBV?$basic_string@_WU?$char_traits@_W@std@@V?$allocator@_W@2@@std@@V?$shared_ptr@Uname_t@DispObjectImpl@@@2@@std@@PEAX@1@AEAU?$pair@$$CBV?$basic_string@_WU?$char_traits@_W@std@@V?$allocator@_W@2@@std@@V?$shared_ptr@Uname_t@DispObjectImpl@@@2@@1@1@Z 0000000180030564     utils.obj
 0004:00000570       $pdata$4$??$_Insert_at@AEAU?$pair@$$CBV?$basic_string@_WU?$char_traits@_W@std@@V?$allocator@_W@2@@std@@V?$shared_ptr@Uname_t@DispObjectImpl@@@2@@std@@PEAU?$_Tree_node@U?$pair@$$CBV?$basic_string@_WU?$char_traits@_W@std@@V?$allocator@_W@2@@std@@V?$shared_ptr@Uname_t@DispObjectImpl@@@2@@std@@PEAX@2@@?$_Tree@V?$_Tmap_traits@V?$basic_string@_WU?$char_traits@_W@std@@V?$allocator@_W@2@@std@@V?$shared_ptr@Uname_t@DispObjectImpl@@@2@U?$less@V?$basic_string@_WU?$char_traits@_W@std@@V?$allocator@_W@2@@std@@@2@V?$allocator@U?$pair@$$CBV?$basic_string@_WU?$char_traits@_W@std@@V?$allocator@_W@2@@std@@V?$shared_ptr@Uname_t@DispObjectImpl@@@2@@std@@@2@$0A@@std@@@std@@IEAA?AV?$_Tree_iterator@V?$_Tree_val@U?$_Tree_simple_types@U?$pair@$$CBV?$basic_string@_WU?$char_traits@_W@std@@V?$allocator@_W@2@@std@@V?$shared_ptr@Uname_t@DispObjectImpl@@@2@@std@@@std@@@std@@@1@_NPEAU?$_Tree_node@U?$pair@$$CBV?$basic_string@_WU?$char_traits@_W@std@@V?$allocator@_W@2@@std@@V?$shared_ptr@Uname_t@DispObjectImpl@@@2@@std@@PEAX@1@AEAU?$pair@$$CBV?$basic_string@_WU?$char_traits@_W@std@@V?$allocator@_W@2@@std@@V?$shared_ptr@Uname_t@DispObjectImpl@@@2@@1@1@Z 0000000180030570     utils.obj
 0004:0000057c       $pdata$5$??$_Insert_at@AEAU?$pair@$$CBV?$basic_string@_WU?$char_traits@_W@std@@V?$allocator@_W@2@@std@@V?$shared_ptr@Uname_t@DispObjectImpl@@@2@@std@@PEAU?$_Tree_node@U?$pair@$$CBV?$basic_string@_WU?$char_traits@_W@std@@V?$allocator@_W@2@@std@@V?$shared_ptr@Uname_t@DispObjectImpl@@@2@@std@@PEAX@2@@?$_Tree@V?$_Tmap_traits@V?$basic_string@_WU?$char_traits@_W@std@@V?$allocator@_W@2@@std@@V?$shared_ptr@Uname_t@DispObjectImpl@@@2@U?$less@V?$basic_string@_WU?$char_traits@_W@std@@V?$allocator@_W@2@@std@@@2@V?$allocator@U?$pair@$$CBV?$basic_string@_WU?$char_traits@_W@std@@V?$allocator@_W@2@@std@@V?$shared_ptr@Uname_t@DispObjectImpl@@@2@@std@@@2@$0A@@std@@@std@@IEAA?AV?$_Tree_iterator@V?$_Tree_val@U?$_Tree_simple_types@U?$pair@$$CBV?$basic_string@_WU?$char_traits@_W@std@@V?$allocator@_W@2@@std@@V?$shared_ptr@Uname_t@DispObjectImpl@@@2@@std@@@std@@@std@@@1@_NPEAU?$_Tree_node@U?$pair@$$CBV?$basic_string@_WU?$char_traits@_W@std@@V?$allocator@_W@2@@std@@V?$shared_ptr@Uname_t@DispObjectImpl@@@2@@std@@PEAX@1@AEAU?$pair@$$CBV?$basic_string@_WU?$char_traits@_W@std@@V?$allocator@_W@2@@std@@V?$shared_ptr@Uname_t@DispObjectImpl@@@2@@1@1@Z 000000018003057c     utils.obj
 0004:00000588       $pdata$??$_Insert_nohint@AEAU?$pair@$$CBV?$basic_string@_WU?$char_traits@_W@std@@V?$allocator@_W@2@@std@@V?$shared_ptr@Uname_t@DispObjectImpl@@@2@@std@@PEAU?$_Tree_node@U?$pair@$$CBV?$basic_string@_WU?$char_traits@_W@std@@V?$allocator@_W@2@@std@@V?$shared_ptr@Uname_t@DispObjectImpl@@@2@@std@@PEAX@2@@?$_Tree@V?$_Tmap_traits@V?$basic_string@_WU?$char_traits@_W@std@@V?$allocator@_W@2@@std@@V?$shared_ptr@Uname_t@DispObjectImpl@@@2@U?$less@V?$basic_string@_WU?$char_traits@_W@std@@V?$allocator@_W@2@@std@@@2@V?$allocator@U?$pair@$$CBV?$basic_string@_WU?$char_traits@_W@std@@V?$allocator@_W@2@@std@@V?$shared_ptr@Uname_t@DispObjectImpl@@@2@@std@@@2@$0A@@std@@@std@@IEAA?AU?$pair@V?$_Tree_iterator@V?$_Tree_val@U?$_Tree_simple_types@U?$pair@$$CBV?$basic_string@_WU?$char_traits@_W@std@@V?$allocator@_W@2@@std@@V?$shared_ptr@Uname_t@DispObjectImpl@@@2@@std@@@std@@@std@@@std@@_N@1@_NAEAU?$pair@$$CBV?$basic_string@_WU?$char_traits@_W@std@@V?$allocator@_W@2@@std@@V?$shared_ptr@Uname_t@DispObjectImpl@@@2@@1@PEAU?$_Tree_node@U?$pair@$$CBV?$basic_string@_WU?$char_traits@_W@std@@V?$allocator@_W@2@@std@@V?$shared_ptr@Uname_t@DispObjectImpl@@@2@@std@@PEAX@1@@Z 0000000180030588     utils.obj
 0004:00000594       $pdata$0$??$_Insert_nohint@AEAU?$pair@$$CBV?$basic_string@_WU?$char_traits@_W@std@@V?$allocator@_W@2@@std@@V?$shared_ptr@Uname_t@DispObjectImpl@@@2@@std@@PEAU?$_Tree_node@U?$pair@$$CBV?$basic_string@_WU?$char_traits@_W@std@@V?$allocator@_W@2@@std@@V?$shared_ptr@Uname_t@DispObjectImpl@@@2@@std@@PEAX@2@@?$_Tree@V?$_Tmap_traits@V?$basic_string@_WU?$char_traits@_W@std@@V?$allocator@_W@2@@std@@V?$shared_ptr@Uname_t@DispObjectImpl@@@2@U?$less@V?$basic_string@_WU?$char_traits@_W@std@@V?$allocator@_W@2@@std@@@2@V?$allocator@U?$pair@$$CBV?$basic_string@_WU?$char_traits@_W@std@@V?$allocator@_W@2@@std@@V?$shared_ptr@Uname_t@DispObjectImpl@@@2@@std@@@2@$0A@@std@@@std@@IEAA?AU?$pair@V?$_Tree_iterator@V?$_Tree_val@U?$_Tree_simple_types@U?$pair@$$CBV?$basic_string@_WU?$char_traits@_W@std@@V?$allocator@_W@2@@std@@V?$shared_ptr@Uname_t@DispObjectImpl@@@2@@std@@@std@@@std@@@std@@_N@1@_NAEAU?$pair@$$CBV?$basic_string@_WU?$char_traits@_W@std@@V?$allocator@_W@2@@std@@V?$shared_ptr@Uname_t@DispObjectImpl@@@2@@1@PEAU?$_Tree_node@U?$pair@$$CBV?$basic_string@_WU?$char_traits@_W@std@@V?$allocator@_W@2@@std@@V?$shared_ptr@Uname_t@DispObjectImpl@@@2@@std@@PEAX@1@@Z 0000000180030594     utils.obj
 0004:000005a0       $pdata$1$??$_Insert_nohint@AEAU?$pair@$$CBV?$basic_string@_WU?$char_traits@_W@std@@V?$allocator@_W@2@@std@@V?$shared_ptr@Uname_t@DispObjectImpl@@@2@@std@@PEAU?$_Tree_node@U?$pair@$$CBV?$basic_string@_WU?$char_traits@_W@std@@V?$allocator@_W@2@@std@@V?$shared_ptr@Uname_t@DispObjectImpl@@@2@@std@@PEAX@2@@?$_Tree@V?$_Tmap_traits@V?$basic_string@_WU?$char_traits@_W@std@@V?$allocator@_W@2@@std@@V?$shared_ptr@Uname_t@DispObjectImpl@@@2@U?$less@V?$basic_string@_WU?$char_traits@_W@std@@V?$allocator@_W@2@@std@@@2@V?$allocator@U?$pair@$$CBV?$basic_string@_WU?$char_traits@_W@std@@V?$allocator@_W@2@@std@@V?$shared_ptr@Uname_t@DispObjectImpl@@@2@@std@@@2@$0A@@std@@@std@@IEAA?AU?$pair@V?$_Tree_iterator@V?$_Tree_val@U?$_Tree_simple_types@U?$pair@$$CBV?$basic_string@_WU?$char_traits@_W@std@@V?$allocator@_W@2@@std@@V?$shared_ptr@Uname_t@DispObjectImpl@@@2@@std@@@std@@@std@@@std@@_N@1@_NAEAU?$pair@$$CBV?$basic_string@_WU?$char_traits@_W@std@@V?$allocator@_W@2@@std@@V?$shared_ptr@Uname_t@DispObjectImpl@@@2@@1@PEAU?$_Tree_node@U?$pair@$$CBV?$basic_string@_WU?$char_traits@_W@std@@V?$allocator@_W@2@@std@@V?$shared_ptr@Uname_t@DispObjectImpl@@@2@@std@@PEAX@1@@Z 00000001800305a0     utils.obj
 0004:000005ac       $pdata$?Wrap@ObjectWrap@node@@IEAAXV?$Local@VObject@v8@@@v8@@@Z 00000001800305ac     disp.obj
 0004:000005b8       $pdata$?Ref@ObjectWrap@node@@MEAAXXZ 00000001800305b8     disp.obj
 0004:000005c4       $pdata$?Unref@ObjectWrap@node@@MEAAXXZ 00000001800305c4     disp.obj
 0004:000005d0       $pdata$?WeakCallback@ObjectWrap@node@@CAXAEBV?$WeakCallbackInfo@VObjectWrap@node@@@v8@@@Z 00000001800305d0     disp.obj
 0004:000005dc       $pdata$??_GObjectWrap@node@@UEAAPEAXI@Z 00000001800305dc     disp.obj
 0004:000005e8       $pdata$?DispError@@YA?AV?$Local@VValue@v8@@@v8@@PEAVIsolate@2@JPEB_W1@Z 00000001800305e8     disp.obj
 0004:000005f4       $pdata$?DispInvoke@@YAJPEAUIDispatch@@JIPEAUtagVARIANT@@1G@Z 00000001800305f4     disp.obj
 0004:00000600       $pdata$?v8val2bool@@YA_NAEBV?$Local@VValue@v8@@@v8@@_N@Z 0000000180030600     disp.obj
 0004:0000060c       $pdata$?GetProperty@DispInfo@@QEAAJJJPEAUtagVARIANT@@@Z 000000018003060c     disp.obj
 0004:00000618       $pdata$??_GDispObject@@UEAAPEAXI@Z 0000000180030618     disp.obj
 0004:00000624       $pdata$??1DispObject@@UEAA@XZ 0000000180030624     disp.obj
 0004:00000630       $pdata$0$??1DispObject@@UEAA@XZ 0000000180030630     disp.obj
 0004:0000063c       $pdata$1$??1DispObject@@UEAA@XZ 000000018003063c     disp.obj
 0004:00000648       $pdata$2$??1DispObject@@UEAA@XZ 0000000180030648     disp.obj
 0004:00000654       $pdata$3$??1DispObject@@UEAA@XZ 0000000180030654     disp.obj
 0004:00000660       $pdata$?prepare@DispObject@@AEAAJXZ 0000000180030660     disp.obj
 0004:0000066c       $pdata$1$?prepare@DispObject@@AEAAJXZ 000000018003066c     disp.obj
 0004:00000678       $pdata$2$?prepare@DispObject@@AEAAJXZ 0000000180030678     disp.obj
 0004:00000684       $pdata$3$?prepare@DispObject@@AEAAJXZ 0000000180030684     disp.obj
 0004:00000690       $pdata$?get@DispObject@@IEAA_NPEA_WJAEBV?$PropertyCallbackInfo@VValue@v8@@@v8@@@Z 0000000180030690     disp.obj
 0004:0000069c       $pdata$1$?get@DispObject@@IEAA_NPEA_WJAEBV?$PropertyCallbackInfo@VValue@v8@@@v8@@@Z 000000018003069c     disp.obj
 0004:000006a8       $pdata$2$?get@DispObject@@IEAA_NPEA_WJAEBV?$PropertyCallbackInfo@VValue@v8@@@v8@@@Z 00000001800306a8     disp.obj
 0004:000006b4       $pdata$3$?get@DispObject@@IEAA_NPEA_WJAEBV?$PropertyCallbackInfo@VValue@v8@@@v8@@@Z 00000001800306b4     disp.obj
 0004:000006c0       $pdata$?set@DispObject@@IEAA_NPEA_WJAEBV?$Local@VValue@v8@@@v8@@AEBV?$PropertyCallbackInfo@VValue@v8@@@3@@Z 00000001800306c0     disp.obj
 0004:000006cc       $pdata$?call@DispObject@@IEAAXPEAVIsolate@v8@@AEBV?$FunctionCallbackInfo@VValue@v8@@@3@@Z 00000001800306cc     disp.obj
 0004:000006d8       $pdata$1$?call@DispObject@@IEAAXPEAVIsolate@v8@@AEBV?$FunctionCallbackInfo@VValue@v8@@@3@@Z 00000001800306d8     disp.obj
 0004:000006e4       $pdata$2$?call@DispObject@@IEAAXPEAVIsolate@v8@@AEBV?$FunctionCallbackInfo@VValue@v8@@@3@@Z 00000001800306e4     disp.obj
 0004:000006f0       $pdata$3$?call@DispObject@@IEAAXPEAVIsolate@v8@@AEBV?$FunctionCallbackInfo@VValue@v8@@@3@@Z 00000001800306f0     disp.obj
 0004:000006fc       $pdata$?valueOf@DispObject@@IEAAJPEAVIsolate@v8@@AEAUtagVARIANT@@@Z 00000001800306fc     disp.obj
 0004:00000708       $pdata$?valueOf@DispObject@@IEAAJPEAVIsolate@v8@@AEBV?$Local@VObject@v8@@@3@AEAV?$Local@VValue@v8@@@3@@Z 0000000180030708     disp.obj
 0004:00000714       $pdata$0$?valueOf@DispObject@@IEAAJPEAVIsolate@v8@@AEBV?$Local@VObject@v8@@@3@AEAV?$Local@VValue@v8@@@3@@Z 0000000180030714     disp.obj
 0004:00000720       $pdata$1$?valueOf@DispObject@@IEAAJPEAVIsolate@v8@@AEBV?$Local@VObject@v8@@@3@AEAV?$Local@VValue@v8@@@3@@Z 0000000180030720     disp.obj
 0004:0000072c       $pdata$2$?valueOf@DispObject@@IEAAJPEAVIsolate@v8@@AEBV?$Local@VObject@v8@@@3@AEAV?$Local@VValue@v8@@@3@@Z 000000018003072c     disp.obj
 0004:00000738       $pdata$3$?valueOf@DispObject@@IEAAJPEAVIsolate@v8@@AEBV?$Local@VObject@v8@@@3@AEAV?$Local@VValue@v8@@@3@@Z 0000000180030738     disp.obj
 0004:00000744       $pdata$?toString@DispObject@@IEAAXAEBV?$FunctionCallbackInfo@VValue@v8@@@v8@@@Z 0000000180030744     disp.obj
 0004:00000750       $pdata$3$?toString@DispObject@@IEAAXAEBV?$FunctionCallbackInfo@VValue@v8@@@v8@@@Z 0000000180030750     disp.obj
 0004:0000075c       $pdata$4$?toString@DispObject@@IEAAXAEBV?$FunctionCallbackInfo@VValue@v8@@@v8@@@Z 000000018003075c     disp.obj
 0004:00000768       $pdata$5$?toString@DispObject@@IEAAXAEBV?$FunctionCallbackInfo@VValue@v8@@@v8@@@Z 0000000180030768     disp.obj
 0004:00000774       $pdata$?getIdentity@DispObject@@IEAA?AV?$Local@VValue@v8@@@v8@@PEAVIsolate@3@@Z 0000000180030774     disp.obj
 0004:00000780       $pdata$??R<lambda_898e84f45c2b961b8b7afcc5a4be41f0>@@QEBAXPEAUITypeInfo@@PEAUtagFUNCDESC@@@Z 0000000180030780     disp.obj
 0004:0000078c       $pdata$?NodeInit@DispObject@@SAXAEBV?$Local@VObject@v8@@@v8@@@Z 000000018003078c     disp.obj
 0004:00000798       $pdata$?NodeCreate@DispObject@@CAXAEBV?$FunctionCallbackInfo@VValue@v8@@@v8@@@Z 0000000180030798     disp.obj
 0004:000007a4       $pdata$1$?NodeCreate@DispObject@@CAXAEBV?$FunctionCallbackInfo@VValue@v8@@@v8@@@Z 00000001800307a4     disp.obj
 0004:000007b0       $pdata$2$?NodeCreate@DispObject@@CAXAEBV?$FunctionCallbackInfo@VValue@v8@@@v8@@@Z 00000001800307b0     disp.obj
 0004:000007bc       $pdata$3$?NodeCreate@DispObject@@CAXAEBV?$FunctionCallbackInfo@VValue@v8@@@v8@@@Z 00000001800307bc     disp.obj
 0004:000007c8       $pdata$4$?NodeCreate@DispObject@@CAXAEBV?$FunctionCallbackInfo@VValue@v8@@@v8@@@Z 00000001800307c8     disp.obj
 0004:000007d4       $pdata$5$?NodeCreate@DispObject@@CAXAEBV?$FunctionCallbackInfo@VValue@v8@@@v8@@@Z 00000001800307d4     disp.obj
 0004:000007e0       $pdata$6$?NodeCreate@DispObject@@CAXAEBV?$FunctionCallbackInfo@VValue@v8@@@v8@@@Z 00000001800307e0     disp.obj
 0004:000007ec       $pdata$7$?NodeCreate@DispObject@@CAXAEBV?$FunctionCallbackInfo@VValue@v8@@@v8@@@Z 00000001800307ec     disp.obj
 0004:000007f8       $pdata$8$?NodeCreate@DispObject@@CAXAEBV?$FunctionCallbackInfo@VValue@v8@@@v8@@@Z 00000001800307f8     disp.obj
 0004:00000804       $pdata$9$?NodeCreate@DispObject@@CAXAEBV?$FunctionCallbackInfo@VValue@v8@@@v8@@@Z 0000000180030804     disp.obj
 0004:00000810       $pdata$?NodeGet@DispObject@@CAXV?$Local@VString@v8@@@v8@@AEBV?$PropertyCallbackInfo@VValue@v8@@@3@@Z 0000000180030810     disp.obj
 0004:0000081c       $pdata$?NodeGetByIndex@DispObject@@CAXIAEBV?$PropertyCallbackInfo@VValue@v8@@@v8@@@Z 000000018003081c     disp.obj
 0004:00000828       $pdata$?NodeSet@DispObject@@CAXV?$Local@VString@v8@@@v8@@V?$Local@VValue@v8@@@3@AEBV?$PropertyCallbackInfo@VValue@v8@@@3@@Z 0000000180030828     disp.obj
 0004:00000834       $pdata$?NodeSetByIndex@DispObject@@CAXIV?$Local@VValue@v8@@@v8@@AEBV?$PropertyCallbackInfo@VValue@v8@@@3@@Z 0000000180030834     disp.obj
 0004:00000840       $pdata$?NodeCall@DispObject@@CAXAEBV?$FunctionCallbackInfo@VValue@v8@@@v8@@@Z 0000000180030840     disp.obj
 0004:0000084c       $pdata$?NodeValueOf@DispObject@@CAXAEBV?$FunctionCallbackInfo@VValue@v8@@@v8@@@Z 000000018003084c     disp.obj
 0004:00000858       $pdata$?NodeToString@DispObject@@CAXAEBV?$FunctionCallbackInfo@VValue@v8@@@v8@@@Z 0000000180030858     disp.obj
 0004:00000864       $pdata$?NodeRelease@DispObject@@CAXAEBV?$FunctionCallbackInfo@VValue@v8@@@v8@@@Z 0000000180030864     disp.obj
 0004:00000870       $pdata$4$?NodeRelease@DispObject@@CAXAEBV?$FunctionCallbackInfo@VValue@v8@@@v8@@@Z 0000000180030870     disp.obj
 0004:0000087c       $pdata$5$?NodeRelease@DispObject@@CAXAEBV?$FunctionCallbackInfo@VValue@v8@@@v8@@@Z 000000018003087c     disp.obj
 0004:00000888       $pdata$?resize@?$vector@VCComVariant@@V?$allocator@VCComVariant@@@std@@@std@@QEAAX_K@Z 0000000180030888     disp.obj
 0004:00000894       $pdata$?reserve@?$basic_string@_WU?$char_traits@_W@std@@V?$allocator@_W@2@@std@@QEAAX_K@Z 0000000180030894     disp.obj
 0004:000008a0       $pdata$0$?reserve@?$basic_string@_WU?$char_traits@_W@std@@V?$allocator@_W@2@@std@@QEAAX_K@Z 00000001800308a0     disp.obj
 0004:000008ac       $pdata$1$?reserve@?$basic_string@_WU?$char_traits@_W@std@@V?$allocator@_W@2@@std@@QEAAX_K@Z 00000001800308ac     disp.obj
 0004:000008b8       $pdata$2$?reserve@?$basic_string@_WU?$char_traits@_W@std@@V?$allocator@_W@2@@std@@QEAAX_K@Z 00000001800308b8     disp.obj
 0004:000008c4       $pdata$4$?reserve@?$basic_string@_WU?$char_traits@_W@std@@V?$allocator@_W@2@@std@@QEAAX_K@Z 00000001800308c4     disp.obj
 0004:000008d0       $pdata$?_Tidy@?$vector@VCComVariant@@V?$allocator@VCComVariant@@@std@@@std@@IEAAXXZ 00000001800308d0     disp.obj
 0004:000008dc       $pdata$0$?_Tidy@?$vector@VCComVariant@@V?$allocator@VCComVariant@@@std@@@std@@IEAAXXZ 00000001800308dc     disp.obj
 0004:000008e8       $pdata$1$?_Tidy@?$vector@VCComVariant@@V?$allocator@VCComVariant@@@std@@@std@@IEAAXXZ 00000001800308e8     disp.obj
 0004:000008f4       $pdata$?_Reserve@?$vector@VCComVariant@@V?$allocator@VCComVariant@@@std@@@std@@IEAAX_K@Z 00000001800308f4     disp.obj
 0004:00000900       $pdata$?insert@?$basic_string@_WU?$char_traits@_W@std@@V?$allocator@_W@2@@std@@QEAAAEAV12@_KPEB_W0@Z 0000000180030900     disp.obj
 0004:0000090c       $pdata$0$?insert@?$basic_string@_WU?$char_traits@_W@std@@V?$allocator@_W@2@@std@@QEAAAEAV12@_KPEB_W0@Z 000000018003090c     disp.obj
 0004:00000918       $pdata$1$?insert@?$basic_string@_WU?$char_traits@_W@std@@V?$allocator@_W@2@@std@@QEAAAEAV12@_KPEB_W0@Z 0000000180030918     disp.obj
 0004:00000924       $pdata$2$?insert@?$basic_string@_WU?$char_traits@_W@std@@V?$allocator@_W@2@@std@@QEAAAEAV12@_KPEB_W0@Z 0000000180030924     disp.obj
 0004:00000930       $pdata$?insert@?$basic_string@_WU?$char_traits@_W@std@@V?$allocator@_W@2@@std@@QEAAAEAV12@_KAEBV12@00@Z 0000000180030930     disp.obj
 0004:0000093c       $pdata$0$?insert@?$basic_string@_WU?$char_traits@_W@std@@V?$allocator@_W@2@@std@@QEAAAEAV12@_KAEBV12@00@Z 000000018003093c     disp.obj
 0004:00000948       $pdata$1$?insert@?$basic_string@_WU?$char_traits@_W@std@@V?$allocator@_W@2@@std@@QEAAAEAV12@_KAEBV12@00@Z 0000000180030948     disp.obj
 0004:00000954       $pdata$3$?insert@?$basic_string@_WU?$char_traits@_W@std@@V?$allocator@_W@2@@std@@QEAAAEAV12@_KAEBV12@00@Z 0000000180030954     disp.obj
 0004:00000960       $pdata$4$?insert@?$basic_string@_WU?$char_traits@_W@std@@V?$allocator@_W@2@@std@@QEAAAEAV12@_KAEBV12@00@Z 0000000180030960     disp.obj
 0004:0000096c       $pdata$5$?insert@?$basic_string@_WU?$char_traits@_W@std@@V?$allocator@_W@2@@std@@QEAAAEAV12@_KAEBV12@00@Z 000000018003096c     disp.obj
 0004:00000978       $pdata$?_Reallocate@?$vector@VCComVariant@@V?$allocator@VCComVariant@@@std@@@std@@IEAAX_K@Z 0000000180030978     disp.obj
 0004:00000984       $pdata$3$?_Reallocate@?$vector@VCComVariant@@V?$allocator@VCComVariant@@@std@@@std@@IEAAX_K@Z 0000000180030984     disp.obj
 0004:00000990       $pdata$4$?_Reallocate@?$vector@VCComVariant@@V?$allocator@VCComVariant@@@std@@@std@@IEAAX_K@Z 0000000180030990     disp.obj
 0004:0000099c       $pdata$5$?_Reallocate@?$vector@VCComVariant@@V?$allocator@VCComVariant@@@std@@@std@@IEAAX_K@Z 000000018003099c     disp.obj
 0004:000009a8       $pdata$?append@?$basic_string@_WU?$char_traits@_W@std@@V?$allocator@_W@2@@std@@QEAAAEAV12@PEB_W_K@Z 00000001800309a8     disp.obj
 0004:000009b4       $pdata$0$?append@?$basic_string@_WU?$char_traits@_W@std@@V?$allocator@_W@2@@std@@QEAAAEAV12@PEB_W_K@Z 00000001800309b4     disp.obj
 0004:000009c0       $pdata$1$?append@?$basic_string@_WU?$char_traits@_W@std@@V?$allocator@_W@2@@std@@QEAAAEAV12@PEB_W_K@Z 00000001800309c0     disp.obj
 0004:000009cc       $pdata$2$?append@?$basic_string@_WU?$char_traits@_W@std@@V?$allocator@_W@2@@std@@QEAAAEAV12@PEB_W_K@Z 00000001800309cc     disp.obj
 0004:000009d8       $pdata$?append@?$basic_string@_WU?$char_traits@_W@std@@V?$allocator@_W@2@@std@@QEAAAEAV12@AEBV12@_K1@Z 00000001800309d8     disp.obj
 0004:000009e4       $pdata$0$?append@?$basic_string@_WU?$char_traits@_W@std@@V?$allocator@_W@2@@std@@QEAAAEAV12@AEBV12@_K1@Z 00000001800309e4     disp.obj
 0004:000009f0       $pdata$1$?append@?$basic_string@_WU?$char_traits@_W@std@@V?$allocator@_W@2@@std@@QEAAAEAV12@AEBV12@_K1@Z 00000001800309f0     disp.obj
 0004:000009fc       $pdata$2$?append@?$basic_string@_WU?$char_traits@_W@std@@V?$allocator@_W@2@@std@@QEAAAEAV12@AEBV12@_K1@Z 00000001800309fc     disp.obj
 0004:00000a08       $pdata$??$reset@VDispInfo@@@?$shared_ptr@VDispInfo@@@std@@QEAAXPEAVDispInfo@@@Z 0000000180030a08     disp.obj
 0004:00000a14       $pdata$??$Enumerate@V<lambda_898e84f45c2b961b8b7afcc5a4be41f0>@@@DispInfo@@QEAA_NV<lambda_898e84f45c2b961b8b7afcc5a4be41f0>@@@Z 0000000180030a14     disp.obj
 0004:00000a20       $pdata$1$??$Enumerate@V<lambda_898e84f45c2b961b8b7afcc5a4be41f0>@@@DispInfo@@QEAA_NV<lambda_898e84f45c2b961b8b7afcc5a4be41f0>@@@Z 0000000180030a20     disp.obj
 0004:00000a2c       $pdata$2$??$Enumerate@V<lambda_898e84f45c2b961b8b7afcc5a4be41f0>@@@DispInfo@@QEAA_NV<lambda_898e84f45c2b961b8b7afcc5a4be41f0>@@@Z 0000000180030a2c     disp.obj
 0004:00000a38       $pdata$?load_exe_hook@@YAP6A_JXZIPEAUDelayLoadInfo@@@Z 0000000180030a38     win_delay_load_hook.obj
 0004:00000a50       $pdata$??0bad_alloc@std@@QEAA@AEBV01@@Z 0000000180030a50     libcpmt:xthrow.obj
 0004:00000a5c       $pdata$??0exception@std@@QEAA@AEBV01@@Z 0000000180030a5c     libcpmt:xthrow.obj
 0004:00000a68       $pdata$??0length_error@std@@QEAA@AEBV01@@Z 0000000180030a68     libcpmt:xthrow.obj
 0004:00000a74       $pdata$??0length_error@std@@QEAA@PEBD@Z 0000000180030a74     libcpmt:xthrow.obj
 0004:00000a80       $pdata$??0logic_error@std@@QEAA@AEBV01@@Z 0000000180030a80     libcpmt:xthrow.obj
 0004:00000a8c       $pdata$??0out_of_range@std@@QEAA@AEBV01@@Z 0000000180030a8c     libcpmt:xthrow.obj
 0004:00000a98       $pdata$??0out_of_range@std@@QEAA@PEBD@Z 0000000180030a98     libcpmt:xthrow.obj
 0004:00000aa4       $pdata$??_Glength_error@std@@UEAAPEAXI@Z 0000000180030aa4     libcpmt:xthrow.obj
 0004:00000aa4       $pdata$??_Gbad_alloc@std@@UEAAPEAXI@Z 0000000180030aa4     libcpmt:xthrow.obj
 0004:00000aa4       $pdata$??_Gexception@std@@UEAAPEAXI@Z 0000000180030aa4     libcpmt:xthrow.obj
 0004:00000aa4       $pdata$??_Glogic_error@std@@UEAAPEAXI@Z 0000000180030aa4     libcpmt:xthrow.obj
 0004:00000aa4       $pdata$??_Gout_of_range@std@@UEAAPEAXI@Z 0000000180030aa4     libcpmt:xthrow.obj
 0004:00000aa4       $pdata$??_Gbad_array_new_length@std@@UEAAPEAXI@Z 0000000180030aa4     LIBCMT:throw_bad_alloc.obj
 0004:00000ab0       $pdata$?_Xbad_alloc@std@@YAXXZ 0000000180030ab0     libcpmt:xthrow.obj
 0004:00000ab0       $pdata$?__scrt_throw_std_bad_alloc@@YAXXZ 0000000180030ab0     LIBCMT:throw_bad_alloc.obj
 0004:00000abc       $pdata$?_Xlength_error@std@@YAXPEBD@Z 0000000180030abc     libcpmt:xthrow.obj
 0004:00000ac8       $pdata$?_Xout_of_range@std@@YAXPEBD@Z 0000000180030ac8     libcpmt:xthrow.obj
 0004:00000ae0       $pdata$??2@YAPEAX_K@Z      0000000180030ae0     LIBCMT:new_scalar.obj
 0004:00000aec       $pdata$__scrt_acquire_startup_lock 0000000180030aec     LIBCMT:utility.obj
 0004:00000af8       $pdata$__scrt_dllmain_after_initialize_c 0000000180030af8     LIBCMT:utility.obj
 0004:00000b04       $pdata$__scrt_dllmain_before_initialize_c 0000000180030b04     LIBCMT:utility.obj
 0004:00000b10       $pdata$__scrt_dllmain_crt_thread_attach 0000000180030b10     LIBCMT:utility.obj
 0004:00000b1c       $pdata$__scrt_dllmain_crt_thread_detach 0000000180030b1c     LIBCMT:utility.obj
 0004:00000b28       $pdata$__scrt_dllmain_exception_filter 0000000180030b28     LIBCMT:utility.obj
 0004:00000b34       $pdata$__scrt_dllmain_uninitialize_c 0000000180030b34     LIBCMT:utility.obj
 0004:00000b40       $pdata$__scrt_dllmain_uninitialize_critical 0000000180030b40     LIBCMT:utility.obj
 0004:00000b4c       $pdata$__scrt_initialize_crt 0000000180030b4c     LIBCMT:utility.obj
 0004:00000b58       $pdata$__scrt_initialize_onexit_tables 0000000180030b58     LIBCMT:utility.obj
 0004:00000b64       $pdata$__scrt_is_nonwritable_in_current_image 0000000180030b64     LIBCMT:utility.obj
 0004:00000b70       $pdata$__scrt_release_startup_lock 0000000180030b70     LIBCMT:utility.obj
 0004:00000b7c       $pdata$__scrt_uninitialize_crt 0000000180030b7c     LIBCMT:utility.obj
 0004:00000b88       $pdata$_onexit             0000000180030b88     LIBCMT:utility.obj
 0004:00000b94       $pdata$atexit              0000000180030b94     LIBCMT:utility.obj
 0004:00000ba0       $pdata$?dllmain_crt_dispatch@@YAHQEAUHINSTANCE__@@KQEAX@Z 0000000180030ba0     LIBCMT:dll_dllmain.obj
 0004:00000bac       $pdata$?dllmain_crt_process_attach@@YAHQEAUHINSTANCE__@@QEAX@Z 0000000180030bac     LIBCMT:dll_dllmain.obj
 0004:00000bb8       $pdata$?dllmain_crt_process_detach@@YAH_N@Z 0000000180030bb8     LIBCMT:dll_dllmain.obj
 0004:00000bc4       $pdata$?dllmain_dispatch@@YAHQEAUHINSTANCE__@@KQEAX@Z 0000000180030bc4     LIBCMT:dll_dllmain.obj
 0004:00000bd0       $pdata$?dllmain_raw@@YAHQEAUHINSTANCE__@@KQEAX@Z 0000000180030bd0     LIBCMT:dll_dllmain.obj
 0004:00000bdc       $pdata$_DllMainCRTStartup  0000000180030bdc     LIBCMT:dll_dllmain.obj
 0004:00000be8       $pdata$??_Gtype_info@@UEAAPEAXI@Z 0000000180030be8     LIBCMT:std_type_info_static.obj
 0004:00000bf4       $pdata$__raise_securityfailure 0000000180030bf4     LIBCMT:gs_report.obj
 0004:00000c00       $pdata$__report_gsfailure  0000000180030c00     LIBCMT:gs_report.obj
 0004:00000c0c       $pdata$__report_rangecheckfailure 0000000180030c0c     LIBCMT:gs_report.obj
 0004:00000c18       $pdata$__report_securityfailure 0000000180030c18     LIBCMT:gs_report.obj
 0004:00000c24       $pdata$capture_current_context 0000000180030c24     LIBCMT:gs_report.obj
 0004:00000c30       $pdata$capture_previous_context 0000000180030c30     LIBCMT:gs_report.obj
 0004:00000c3c       $pdata$??0bad_array_new_length@std@@QEAA@AEBV01@@Z 0000000180030c3c     LIBCMT:throw_bad_alloc.obj
 0004:00000c48       $pdata$?__scrt_throw_std_bad_array_new_length@@YAXXZ 0000000180030c48     LIBCMT:throw_bad_alloc.obj
 0004:00000c54       $pdata$__isa_available_init 0000000180030c54     LIBCMT:_cpu_disp_.obj
 0004:00000c60       $pdata$__scrt_fastfail     0000000180030c60     LIBCMT:utility_desktop.obj
 0004:00000c6c       $pdata$__security_init_cookie 0000000180030c6c     LIBCMT:gs_support.obj
 0004:00000c78       $pdata$__scrt_initialize_default_local_stdio_options 0000000180030c78     LIBCMT:default_local_stdio_options.obj
 0004:00000c84       $pdata$_RTC_Initialize     0000000180030c84     LIBCMT:_initsect_.obj
 0004:00000c90       $pdata$_RTC_Terminate      0000000180030c90     LIBCMT:_initsect_.obj
 0004:00000ca8       $pdata$_purecall           0000000180030ca8     libvcruntime:purevirt.obj
 0004:00000cb4       $pdata$__std_exception_copy 0000000180030cb4     libvcruntime:std_exception.obj
 0004:00000cc0       $pdata$__std_exception_destroy 0000000180030cc0     libvcruntime:std_exception.obj
 0004:00000ccc       $pdata$_CxxThrowException  0000000180030ccc     libvcruntime:throw.obj
 0004:00000cd8       $pdata$__vcrt_initialize   0000000180030cd8     libvcruntime:initialization.obj
 0004:00000ce4       $pdata$__vcrt_thread_attach 0000000180030ce4     libvcruntime:initialization.obj
 0004:00000cf0       $pdata$__vcrt_thread_detach 0000000180030cf0     libvcruntime:initialization.obj
 0004:00000cfc       $pdata$__vcrt_uninitialize 0000000180030cfc     libvcruntime:initialization.obj
 0004:00000d08       $pdata$__vcrt_uninitialize_critical 0000000180030d08     libvcruntime:initialization.obj
 0004:00000d14       $pdata$__C_specific_handler 0000000180030d14     libvcruntime:_chandler_.obj
 0004:00000d2c       $pdata$__std_type_info_destroy_list 0000000180030d2c     libvcruntime:std_type_info.obj
 0004:00000d38       $pdata$__vcrt_freefls      0000000180030d38     libvcruntime:per_thread_data.obj
 0004:00000d44       $pdata$__vcrt_freeptd      0000000180030d44     libvcruntime:per_thread_data.obj
 0004:00000d50       $pdata$__vcrt_getptd_noexit 0000000180030d50     libvcruntime:per_thread_data.obj
 0004:00000d5c       $pdata$__vcrt_initialize_ptd 0000000180030d5c     libvcruntime:per_thread_data.obj
 0004:00000d68       $pdata$__vcrt_uninitialize_ptd 0000000180030d68     libvcruntime:per_thread_data.obj
 0004:00000d74       $pdata$__vcrt_initialize_locks 0000000180030d74     libvcruntime:locks.obj
 0004:00000d80       $pdata$__vcrt_uninitialize_locks 0000000180030d80     libvcruntime:locks.obj
 0004:00000d8c       $pdata$?try_get_function@@YAPEAXW4function_id@?A0x679b24ab@@QEBDQEBW4module_id@2@2@Z 0000000180030d8c     libvcruntime:winapi_downlevel.obj
 0004:00000d98       $pdata$__vcrt_FlsAlloc     0000000180030d98     libvcruntime:winapi_downlevel.obj
 0004:00000da4       $pdata$__vcrt_FlsFree      0000000180030da4     libvcruntime:winapi_downlevel.obj
 0004:00000db0       $pdata$__vcrt_FlsGetValue  0000000180030db0     libvcruntime:winapi_downlevel.obj
 0004:00000dbc       $pdata$__vcrt_FlsSetValue  0000000180030dbc     libvcruntime:winapi_downlevel.obj
 0004:00000dc8       $pdata$__vcrt_InitializeCriticalSectionEx 0000000180030dc8     libvcruntime:winapi_downlevel.obj
 0004:00000dd4       $pdata$__vcrt_uninitialize_winapi_thunks 0000000180030dd4     libvcruntime:winapi_downlevel.obj
 0004:00000e10       $pdata$??$?RV<lambda_7b91131dde12e1c3dfc74ff76b3f2eac>@@AEAV<lambda_dd75445284c072d0bd3768540cc698fa>@@V<lambda_16bc4ecb55b4718497c16bceaea2ceaf>@@@?$__crt_seh_guarded_call@H@@QEAAH$$QEAV<lambda_7b91131dde12e1c3dfc74ff76b3f2eac>@@AEAV<lambda_dd75445284c072d0bd3768540cc698fa>@@$$QEAV<lambda_16bc4ecb55b4718497c16bceaea2ceaf>@@@Z 0000000180030e10     libucrt:output.obj
 0004:00000e1c       $pdata$??$common_vsprintf@Vformat_validation_base@__crt_stdio_output@@D@@YAH_KQEAD0QEBDQEAU__crt_locale_pointers@@1@Z 0000000180030e1c     libucrt:output.obj
 0004:00000e28       $pdata$??$common_vsprintf@Vformat_validation_base@__crt_stdio_output@@_W@@YAH_KQEA_W0QEB_WQEAU__crt_locale_pointers@@QEAD@Z 0000000180030e28     libucrt:output.obj
 0004:00000e34       $pdata$??$ensure_buffer_is_big_enough@D@formatting_buffer@__crt_stdio_output@@QEAA_N_K@Z 0000000180030e34     libucrt:output.obj
 0004:00000e40       $pdata$??$type_case_integer_parse_into_buffer@I@?$output_processor@DV?$string_output_adapter@D@__crt_stdio_output@@V?$format_validation_base@DV?$string_output_adapter@D@__crt_stdio_output@@@2@@__crt_stdio_output@@AEAAXII_N@Z 0000000180030e40     libucrt:output.obj
 0004:00000e40       $pdata$??$type_case_integer_parse_into_buffer@I@?$output_processor@_WV?$string_output_adapter@_W@__crt_stdio_output@@V?$standard_base@_WV?$string_output_adapter@_W@__crt_stdio_output@@@2@@__crt_stdio_output@@AEAAXII_N@Z 0000000180030e40     libucrt:output.obj
 0004:00000e40       $pdata$??$type_case_integer_parse_into_buffer@I@?$output_processor@_WV?$string_output_adapter@_W@__crt_stdio_output@@V?$format_validation_base@_WV?$string_output_adapter@_W@__crt_stdio_output@@@2@@__crt_stdio_output@@AEAAXII_N@Z 0000000180030e40     libucrt:output.obj
 0004:00000e40       $pdata$??$type_case_integer_parse_into_buffer@I@?$output_processor@_WV?$stream_output_adapter@_W@__crt_stdio_output@@V?$standard_base@_WV?$stream_output_adapter@_W@__crt_stdio_output@@@2@@__crt_stdio_output@@AEAAXII_N@Z 0000000180030e40     libucrt:output.obj
 0004:00000e4c       $pdata$??$type_case_integer_parse_into_buffer@_K@?$output_processor@_WV?$stream_output_adapter@_W@__crt_stdio_output@@V?$standard_base@_WV?$stream_output_adapter@_W@__crt_stdio_output@@@2@@__crt_stdio_output@@AEAAX_KI_N@Z 0000000180030e4c     libucrt:output.obj
 0004:00000e4c       $pdata$??$type_case_integer_parse_into_buffer@_K@?$output_processor@_WV?$string_output_adapter@_W@__crt_stdio_output@@V?$standard_base@_WV?$string_output_adapter@_W@__crt_stdio_output@@@2@@__crt_stdio_output@@AEAAX_KI_N@Z 0000000180030e4c     libucrt:output.obj
 0004:00000e4c       $pdata$??$type_case_integer_parse_into_buffer@_K@?$output_processor@_WV?$string_output_adapter@_W@__crt_stdio_output@@V?$format_validation_base@_WV?$string_output_adapter@_W@__crt_stdio_output@@@2@@__crt_stdio_output@@AEAAX_KI_N@Z 0000000180030e4c     libucrt:output.obj
 0004:00000e4c       $pdata$??$type_case_integer_parse_into_buffer@_K@?$output_processor@DV?$string_output_adapter@D@__crt_stdio_output@@V?$format_validation_base@DV?$string_output_adapter@D@__crt_stdio_output@@@2@@__crt_stdio_output@@AEAAX_KI_N@Z 0000000180030e4c     libucrt:output.obj
 0004:00000e58       $pdata$??$write_multiple_characters@V?$stream_output_adapter@_W@__crt_stdio_output@@D@__crt_stdio_output@@YAXAEBV?$stream_output_adapter@_W@0@DHQEAH@Z 0000000180030e58     libucrt:output.obj
 0004:00000e64       $pdata$??$write_multiple_characters@V?$string_output_adapter@D@__crt_stdio_output@@D@__crt_stdio_output@@YAXAEBV?$string_output_adapter@D@0@DHQEAH@Z 0000000180030e64     libucrt:output.obj
 0004:00000e70       $pdata$??$write_multiple_characters@V?$string_output_adapter@_W@__crt_stdio_output@@D@__crt_stdio_output@@YAXAEBV?$string_output_adapter@_W@0@DHQEAH@Z 0000000180030e70     libucrt:output.obj
 0004:00000e7c       $pdata$??0?$output_processor@DV?$string_output_adapter@D@__crt_stdio_output@@V?$format_validation_base@DV?$string_output_adapter@D@__crt_stdio_output@@@2@@__crt_stdio_output@@QEAA@AEBV?$string_output_adapter@D@1@_KQEBDQEAU__crt_locale_pointers@@QEAD@Z 0000000180030e7c     libucrt:output.obj
 0004:00000e88       $pdata$??0?$output_processor@_WV?$string_output_adapter@_W@__crt_stdio_output@@V?$standard_base@_WV?$string_output_adapter@_W@__crt_stdio_output@@@2@@__crt_stdio_output@@QEAA@AEBV?$string_output_adapter@_W@1@_KQEB_WQEAU__crt_locale_pointers@@QEAD@Z 0000000180030e88     libucrt:output.obj
 0004:00000e88       $pdata$??0?$output_processor@_WV?$stream_output_adapter@_W@__crt_stdio_output@@V?$standard_base@_WV?$stream_output_adapter@_W@__crt_stdio_output@@@2@@__crt_stdio_output@@QEAA@AEBV?$stream_output_adapter@_W@1@_KQEB_WQEAU__crt_locale_pointers@@QEAD@Z 0000000180030e88     libucrt:output.obj
 0004:00000e88       $pdata$??0?$output_processor@_WV?$string_output_adapter@_W@__crt_stdio_output@@V?$format_validation_base@_WV?$string_output_adapter@_W@__crt_stdio_output@@@2@@__crt_stdio_output@@QEAA@AEBV?$string_output_adapter@_W@1@_KQEB_WQEAU__crt_locale_pointers@@QEAD@Z 0000000180030e88     libucrt:output.obj
 0004:00000e94       $pdata$??0_LocaleUpdate@@QEAA@QEAU__crt_locale_pointers@@@Z 0000000180030e94     libucrt:output.obj
 0004:00000ea0       $pdata$??R<lambda_dd75445284c072d0bd3768540cc698fa>@@QEBAHXZ 0000000180030ea0     libucrt:output.obj
 0004:00000eac       $pdata$?force_decimal_point@__crt_stdio_output@@YAXPEADQEAU__crt_locale_pointers@@@Z 0000000180030eac     libucrt:output.obj
 0004:00000eb8       $pdata$?parse_int_from_format_string@?$output_processor@DV?$string_output_adapter@D@__crt_stdio_output@@V?$format_validation_base@DV?$string_output_adapter@D@__crt_stdio_output@@@2@@__crt_stdio_output@@AEAA_NQEAH@Z 0000000180030eb8     libucrt:output.obj
 0004:00000ec4       $pdata$?parse_int_from_format_string@?$output_processor@_WV?$stream_output_adapter@_W@__crt_stdio_output@@V?$standard_base@_WV?$stream_output_adapter@_W@__crt_stdio_output@@@2@@__crt_stdio_output@@AEAA_NQEAH@Z 0000000180030ec4     libucrt:output.obj
 0004:00000ec4       $pdata$?parse_int_from_format_string@?$output_processor@_WV?$string_output_adapter@_W@__crt_stdio_output@@V?$format_validation_base@_WV?$string_output_adapter@_W@__crt_stdio_output@@@2@@__crt_stdio_output@@AEAA_NQEAH@Z 0000000180030ec4     libucrt:output.obj
 0004:00000ec4       $pdata$?parse_int_from_format_string@?$output_processor@_WV?$string_output_adapter@_W@__crt_stdio_output@@V?$standard_base@_WV?$string_output_adapter@_W@__crt_stdio_output@@@2@@__crt_stdio_output@@AEAA_NQEAH@Z 0000000180030ec4     libucrt:output.obj
 0004:00000ed0       $pdata$?process@?$output_processor@DV?$string_output_adapter@D@__crt_stdio_output@@V?$format_validation_base@DV?$string_output_adapter@D@__crt_stdio_output@@@2@@__crt_stdio_output@@QEAAHXZ 0000000180030ed0     libucrt:output.obj
 0004:00000edc       $pdata$?process@?$output_processor@_WV?$stream_output_adapter@_W@__crt_stdio_output@@V?$standard_base@_WV?$stream_output_adapter@_W@__crt_stdio_output@@@2@@__crt_stdio_output@@QEAAHXZ 0000000180030edc     libucrt:output.obj
 0004:00000ee8       $pdata$?process@?$output_processor@_WV?$string_output_adapter@_W@__crt_stdio_output@@V?$format_validation_base@_WV?$string_output_adapter@_W@__crt_stdio_output@@@2@@__crt_stdio_output@@QEAAHXZ 0000000180030ee8     libucrt:output.obj
 0004:00000ef4       $pdata$?process@?$output_processor@_WV?$string_output_adapter@_W@__crt_stdio_output@@V?$standard_base@_WV?$string_output_adapter@_W@__crt_stdio_output@@@2@@__crt_stdio_output@@QEAAHXZ 0000000180030ef4     libucrt:output.obj
 0004:00000f00       $pdata$?state_case_normal@?$output_processor@DV?$string_output_adapter@D@__crt_stdio_output@@V?$format_validation_base@DV?$string_output_adapter@D@__crt_stdio_output@@@2@@__crt_stdio_output@@AEAA_NXZ 0000000180030f00     libucrt:output.obj
 0004:00000f0c       $pdata$?state_case_normal_tchar@?$output_processor@DV?$string_output_adapter@D@__crt_stdio_output@@V?$format_validation_base@DV?$string_output_adapter@D@__crt_stdio_output@@@2@@__crt_stdio_output@@AEAA_ND@Z 0000000180030f0c     libucrt:output.obj
 0004:00000f18       $pdata$?state_case_size@?$output_processor@DV?$string_output_adapter@D@__crt_stdio_output@@V?$format_validation_base@DV?$string_output_adapter@D@__crt_stdio_output@@@2@@__crt_stdio_output@@AEAA_NXZ 0000000180030f18     libucrt:output.obj
 0004:00000f24       $pdata$?state_case_size@?$output_processor@_WV?$stream_output_adapter@_W@__crt_stdio_output@@V?$standard_base@_WV?$stream_output_adapter@_W@__crt_stdio_output@@@2@@__crt_stdio_output@@AEAA_NXZ 0000000180030f24     libucrt:output.obj
 0004:00000f30       $pdata$?state_case_size@?$output_processor@_WV?$string_output_adapter@_W@__crt_stdio_output@@V?$standard_base@_WV?$string_output_adapter@_W@__crt_stdio_output@@@2@@__crt_stdio_output@@AEAA_NXZ 0000000180030f30     libucrt:output.obj
 0004:00000f30       $pdata$?state_case_size@?$output_processor@_WV?$string_output_adapter@_W@__crt_stdio_output@@V?$format_validation_base@_WV?$string_output_adapter@_W@__crt_stdio_output@@@2@@__crt_stdio_output@@AEAA_NXZ 0000000180030f30     libucrt:output.obj
 0004:00000f3c       $pdata$?state_case_type@?$output_processor@DV?$string_output_adapter@D@__crt_stdio_output@@V?$format_validation_base@DV?$string_output_adapter@D@__crt_stdio_output@@@2@@__crt_stdio_output@@AEAA_NXZ 0000000180030f3c     libucrt:output.obj
 0004:00000f48       $pdata$?state_case_type@?$output_processor@_WV?$stream_output_adapter@_W@__crt_stdio_output@@V?$standard_base@_WV?$stream_output_adapter@_W@__crt_stdio_output@@@2@@__crt_stdio_output@@AEAA_NXZ 0000000180030f48     libucrt:output.obj
 0004:00000f54       $pdata$?state_case_type@?$output_processor@_WV?$string_output_adapter@_W@__crt_stdio_output@@V?$standard_base@_WV?$string_output_adapter@_W@__crt_stdio_output@@@2@@__crt_stdio_output@@AEAA_NXZ 0000000180030f54     libucrt:output.obj
 0004:00000f54       $pdata$?state_case_type@?$output_processor@_WV?$string_output_adapter@_W@__crt_stdio_output@@V?$format_validation_base@_WV?$string_output_adapter@_W@__crt_stdio_output@@@2@@__crt_stdio_output@@AEAA_NXZ 0000000180030f54     libucrt:output.obj
 0004:00000f60       $pdata$?type_case_Z@?$output_processor@DV?$string_output_adapter@D@__crt_stdio_output@@V?$format_validation_base@DV?$string_output_adapter@D@__crt_stdio_output@@@2@@__crt_stdio_output@@AEAA_NXZ 0000000180030f60     libucrt:output.obj
 0004:00000f6c       $pdata$?type_case_Z@?$output_processor@_WV?$string_output_adapter@_W@__crt_stdio_output@@V?$standard_base@_WV?$string_output_adapter@_W@__crt_stdio_output@@@2@@__crt_stdio_output@@AEAA_NXZ 0000000180030f6c     libucrt:output.obj
 0004:00000f6c       $pdata$?type_case_Z@?$output_processor@_WV?$stream_output_adapter@_W@__crt_stdio_output@@V?$standard_base@_WV?$stream_output_adapter@_W@__crt_stdio_output@@@2@@__crt_stdio_output@@AEAA_NXZ 0000000180030f6c     libucrt:output.obj
 0004:00000f6c       $pdata$?type_case_Z@?$output_processor@_WV?$string_output_adapter@_W@__crt_stdio_output@@V?$format_validation_base@_WV?$string_output_adapter@_W@__crt_stdio_output@@@2@@__crt_stdio_output@@AEAA_NXZ 0000000180030f6c     libucrt:output.obj
 0004:00000f78       $pdata$?type_case_a@?$output_processor@DV?$string_output_adapter@D@__crt_stdio_output@@V?$format_validation_base@DV?$string_output_adapter@D@__crt_stdio_output@@@2@@__crt_stdio_output@@AEAA_NXZ 0000000180030f78     libucrt:output.obj
 0004:00000f84       $pdata$?type_case_a@?$output_processor@_WV?$string_output_adapter@_W@__crt_stdio_output@@V?$standard_base@_WV?$string_output_adapter@_W@__crt_stdio_output@@@2@@__crt_stdio_output@@AEAA_NXZ 0000000180030f84     libucrt:output.obj
 0004:00000f84       $pdata$?type_case_a@?$output_processor@_WV?$string_output_adapter@_W@__crt_stdio_output@@V?$format_validation_base@_WV?$string_output_adapter@_W@__crt_stdio_output@@@2@@__crt_stdio_output@@AEAA_NXZ 0000000180030f84     libucrt:output.obj
 0004:00000f84       $pdata$?type_case_a@?$output_processor@_WV?$stream_output_adapter@_W@__crt_stdio_output@@V?$standard_base@_WV?$stream_output_adapter@_W@__crt_stdio_output@@@2@@__crt_stdio_output@@AEAA_NXZ 0000000180030f84     libucrt:output.obj
 0004:00000f90       $pdata$?type_case_c_tchar@?$output_processor@DV?$string_output_adapter@D@__crt_stdio_output@@V?$format_validation_base@DV?$string_output_adapter@D@__crt_stdio_output@@@2@@__crt_stdio_output@@AEAA_ND@Z 0000000180030f90     libucrt:output.obj
 0004:00000f9c       $pdata$?type_case_c_tchar@?$output_processor@_WV?$string_output_adapter@_W@__crt_stdio_output@@V?$standard_base@_WV?$string_output_adapter@_W@__crt_stdio_output@@@2@@__crt_stdio_output@@AEAA_N_W@Z 0000000180030f9c     libucrt:output.obj
 0004:00000f9c       $pdata$?type_case_c_tchar@?$output_processor@_WV?$string_output_adapter@_W@__crt_stdio_output@@V?$format_validation_base@_WV?$string_output_adapter@_W@__crt_stdio_output@@@2@@__crt_stdio_output@@AEAA_N_W@Z 0000000180030f9c     libucrt:output.obj
 0004:00000f9c       $pdata$?type_case_c_tchar@?$output_processor@_WV?$stream_output_adapter@_W@__crt_stdio_output@@V?$standard_base@_WV?$stream_output_adapter@_W@__crt_stdio_output@@@2@@__crt_stdio_output@@AEAA_N_W@Z 0000000180030f9c     libucrt:output.obj
 0004:00000fa8       $pdata$?type_case_integer@?$output_processor@_WV?$string_output_adapter@_W@__crt_stdio_output@@V?$format_validation_base@_WV?$string_output_adapter@_W@__crt_stdio_output@@@2@@__crt_stdio_output@@AEAA_NI_N@Z 0000000180030fa8     libucrt:output.obj
 0004:00000fa8       $pdata$?type_case_integer@?$output_processor@_WV?$stream_output_adapter@_W@__crt_stdio_output@@V?$standard_base@_WV?$stream_output_adapter@_W@__crt_stdio_output@@@2@@__crt_stdio_output@@AEAA_NI_N@Z 0000000180030fa8     libucrt:output.obj
 0004:00000fa8       $pdata$?type_case_integer@?$output_processor@_WV?$string_output_adapter@_W@__crt_stdio_output@@V?$standard_base@_WV?$string_output_adapter@_W@__crt_stdio_output@@@2@@__crt_stdio_output@@AEAA_NI_N@Z 0000000180030fa8     libucrt:output.obj
 0004:00000fa8       $pdata$?type_case_integer@?$output_processor@DV?$string_output_adapter@D@__crt_stdio_output@@V?$format_validation_base@DV?$string_output_adapter@D@__crt_stdio_output@@@2@@__crt_stdio_output@@AEAA_NI_N@Z 0000000180030fa8     libucrt:output.obj
 0004:00000fb4       $pdata$?type_case_n@?$output_processor@_WV?$stream_output_adapter@_W@__crt_stdio_output@@V?$standard_base@_WV?$stream_output_adapter@_W@__crt_stdio_output@@@2@@__crt_stdio_output@@AEAA_NXZ 0000000180030fb4     libucrt:output.obj
 0004:00000fb4       $pdata$?type_case_n@?$output_processor@DV?$string_output_adapter@D@__crt_stdio_output@@V?$format_validation_base@DV?$string_output_adapter@D@__crt_stdio_output@@@2@@__crt_stdio_output@@AEAA_NXZ 0000000180030fb4     libucrt:output.obj
 0004:00000fb4       $pdata$?type_case_n@?$output_processor@_WV?$string_output_adapter@_W@__crt_stdio_output@@V?$format_validation_base@_WV?$string_output_adapter@_W@__crt_stdio_output@@@2@@__crt_stdio_output@@AEAA_NXZ 0000000180030fb4     libucrt:output.obj
 0004:00000fb4       $pdata$?type_case_n@?$output_processor@_WV?$string_output_adapter@_W@__crt_stdio_output@@V?$standard_base@_WV?$string_output_adapter@_W@__crt_stdio_output@@@2@@__crt_stdio_output@@AEAA_NXZ 0000000180030fb4     libucrt:output.obj
 0004:00000fc0       $pdata$?type_case_s@?$output_processor@DV?$string_output_adapter@D@__crt_stdio_output@@V?$format_validation_base@DV?$string_output_adapter@D@__crt_stdio_output@@@2@@__crt_stdio_output@@AEAA_NXZ 0000000180030fc0     libucrt:output.obj
 0004:00000fcc       $pdata$?type_case_s@?$output_processor@_WV?$string_output_adapter@_W@__crt_stdio_output@@V?$standard_base@_WV?$string_output_adapter@_W@__crt_stdio_output@@@2@@__crt_stdio_output@@AEAA_NXZ 0000000180030fcc     libucrt:output.obj
 0004:00000fcc       $pdata$?type_case_s@?$output_processor@_WV?$string_output_adapter@_W@__crt_stdio_output@@V?$format_validation_base@_WV?$string_output_adapter@_W@__crt_stdio_output@@@2@@__crt_stdio_output@@AEAA_NXZ 0000000180030fcc     libucrt:output.obj
 0004:00000fcc       $pdata$?type_case_s@?$output_processor@_WV?$stream_output_adapter@_W@__crt_stdio_output@@V?$standard_base@_WV?$stream_output_adapter@_W@__crt_stdio_output@@@2@@__crt_stdio_output@@AEAA_NXZ 0000000180030fcc     libucrt:output.obj
 0004:00000fd8       $pdata$?write_stored_string_tchar@?$output_processor@DV?$string_output_adapter@D@__crt_stdio_output@@V?$format_validation_base@DV?$string_output_adapter@D@__crt_stdio_output@@@2@@__crt_stdio_output@@AEAA_ND@Z 0000000180030fd8     libucrt:output.obj
 0004:00000fe4       $pdata$?write_stored_string_tchar@?$output_processor@_WV?$stream_output_adapter@_W@__crt_stdio_output@@V?$standard_base@_WV?$stream_output_adapter@_W@__crt_stdio_output@@@2@@__crt_stdio_output@@AEAA_N_W@Z 0000000180030fe4     libucrt:output.obj
 0004:00000ff0       $pdata$?write_stored_string_tchar@?$output_processor@_WV?$string_output_adapter@_W@__crt_stdio_output@@V?$format_validation_base@_WV?$string_output_adapter@_W@__crt_stdio_output@@@2@@__crt_stdio_output@@AEAA_N_W@Z 0000000180030ff0     libucrt:output.obj
 0004:00000ff0       $pdata$?write_stored_string_tchar@?$output_processor@_WV?$string_output_adapter@_W@__crt_stdio_output@@V?$standard_base@_WV?$string_output_adapter@_W@__crt_stdio_output@@@2@@__crt_stdio_output@@AEAA_N_W@Z 0000000180030ff0     libucrt:output.obj
 0004:00000ffc       $pdata$?write_string@?$stream_output_adapter@_W@__crt_stdio_output@@QEBAXQEB_WHQEAH1@Z 0000000180030ffc     libucrt:output.obj
 0004:00001008       $pdata$?write_string@?$string_output_adapter@D@__crt_stdio_output@@QEBAXQEBDHQEAH1@Z 0000000180031008     libucrt:output.obj
 0004:00001014       $pdata$?write_string@?$string_output_adapter@_W@__crt_stdio_output@@QEBAXQEB_WHQEAH1@Z 0000000180031014     libucrt:output.obj
 0004:00001020       $pdata$__stdio_common_vfwprintf 0000000180031020     libucrt:output.obj
 0004:0000102c       $pdata$__stdio_common_vsprintf_s 000000018003102c     libucrt:output.obj
 0004:00001038       $pdata$__stdio_common_vswprintf 0000000180031038     libucrt:output.obj
 0004:00001044       $pdata$__stdio_common_vswprintf_s 0000000180031044     libucrt:output.obj
 0004:00001050       $pdata$??$common_assert_to_message_box@_W@@YAXQEB_W0IQEAX@Z 0000000180031050     libucrt:assert.obj
 0004:0000105c       $pdata$??$common_assert_to_message_box_build_string@_W@@YAXQEA_W_KQEB_W2IQEAX@Z 000000018003105c     libucrt:assert.obj
 0004:00001068       $pdata$??$common_assert_to_stderr@_W@@YAXQEB_W0I@Z 0000000180031068     libucrt:assert.obj
 0004:00001074       $pdata$_wassert            0000000180031074     libucrt:assert.obj
 0004:00001080       $pdata$fwprintf            0000000180031080     libucrt:assert.obj
 0004:0000108c       $pdata$swprintf            000000018003108c     libucrt:assert.obj
 0004:00001098       $pdata$__acrt_call_reportfault 0000000180031098     libucrt:invalid_parameter.obj
 0004:000010a4       $pdata$_invalid_parameter  00000001800310a4     libucrt:invalid_parameter.obj
 0004:000010b0       $pdata$_invalid_parameter_noinfo 00000001800310b0     libucrt:invalid_parameter.obj
 0004:000010bc       $pdata$_invalid_parameter_noinfo_noreturn 00000001800310bc     libucrt:invalid_parameter.obj
 0004:000010c8       $pdata$_invoke_watson      00000001800310c8     libucrt:invalid_parameter.obj
 0004:000010d4       $pdata$_wcsicmp            00000001800310d4     libucrt:wcsicmp.obj
 0004:000010e0       $pdata$_wcsicmp_l          00000001800310e0     libucrt:wcsicmp.obj
 0004:000010ec       $pdata$_stricmp            00000001800310ec     libucrt:stricmp.obj
 0004:000010f8       $pdata$_stricmp_l          00000001800310f8     libucrt:stricmp.obj
 0004:00001104       $pdata$_callnewh           0000000180031104     libucrt:new_handler.obj
 0004:00001110       $pdata$_query_new_handler  0000000180031110     libucrt:new_handler.obj
 0004:0000111c       $pdata$_seh_filter_exe     000000018003111c     libucrt:exception_filter.obj
 0004:00001128       $pdata$?common_exit@@YAXHW4_crt_exit_cleanup_mode@@W4_crt_exit_return_mode@@@Z 0000000180031128     libucrt:exit.obj
 0004:00001134       $pdata$?exit_or_terminate_process@@YAXI@Z 0000000180031134     libucrt:exit.obj
 0004:00001140       $pdata$?try_cor_exit_process@@YAXI@Z 0000000180031140     libucrt:exit.obj
 0004:0000114c       $pdata$??$parse_command_line@D@@YAXPEADPEAPEAD0PEA_K2@Z 000000018003114c     libucrt:argv_parsing.obj
 0004:00001158       $pdata$__acrt_allocate_buffer_for_argv 0000000180031158     libucrt:argv_parsing.obj
 0004:00001164       $pdata$_configure_narrow_argv 0000000180031164     libucrt:argv_parsing.obj
 0004:00001170       $pdata$??$common_initialize_environment_nolock@D@@YAHXZ 0000000180031170     libucrt:environment_initialization.obj
 0004:0000117c       $pdata$??$create_environment@D@@YAQEAPEADQEAD@Z 000000018003117c     libucrt:environment_initialization.obj
 0004:00001188       $pdata$??$free_environment@_W@@YAXQEAPEA_W@Z 0000000180031188     libucrt:environment_initialization.obj
 0004:00001188       $pdata$??$free_environment@D@@YAXQEAPEAD@Z 0000000180031188     libucrt:environment_initialization.obj
 0004:00001194       $pdata$??$uninitialize_environment_internal@D@@YAXAEAPEAPEAD@Z 0000000180031194     libucrt:environment_initialization.obj
 0004:000011a0       $pdata$??$uninitialize_environment_internal@_W@@YAXAEAPEAPEA_W@Z 00000001800311a0     libucrt:environment_initialization.obj
 0004:000011ac       $pdata$__dcrt_uninitialize_environments_nolock 00000001800311ac     libucrt:environment_initialization.obj
 0004:000011b8       $pdata$??$?RV<lambda_b8c45f8f788dd370798f47cfe8ac3a86>@@AEAV<lambda_4e60a939b0d047cfe11ddc22648dfba9>@@V<lambda_332c3edc96d0294ec56c57d38c1cdfd5>@@@?$__crt_seh_guarded_call@H@@QEAAH$$QEAV<lambda_b8c45f8f788dd370798f47cfe8ac3a86>@@AEAV<lambda_4e60a939b0d047cfe11ddc22648dfba9>@@$$QEAV<lambda_332c3edc96d0294ec56c57d38c1cdfd5>@@@Z 00000001800311b8     libucrt:onexit.obj
 0004:000011c4       $pdata$??$?RV<lambda_e24bbb7b643b32fcea6fa61b31d4c984>@@AEAV<lambda_275893d493268fdec8709772e3fcec0e>@@V<lambda_9d71df4d7cf3f480f8d633942495c3b0>@@@?$__crt_seh_guarded_call@H@@QEAAH$$QEAV<lambda_e24bbb7b643b32fcea6fa61b31d4c984>@@AEAV<lambda_275893d493268fdec8709772e3fcec0e>@@$$QEAV<lambda_9d71df4d7cf3f480f8d633942495c3b0>@@@Z 00000001800311c4     libucrt:onexit.obj
 0004:000011d0       $pdata$??R<lambda_4e60a939b0d047cfe11ddc22648dfba9>@@QEBAHXZ 00000001800311d0     libucrt:onexit.obj
 0004:000011dc       $pdata$_execute_onexit_table 00000001800311dc     libucrt:onexit.obj
 0004:000011e8       $pdata$_register_onexit_function 00000001800311e8     libucrt:onexit.obj
 0004:000011f4       $pdata$initialize_c        00000001800311f4     libucrt:initialization.obj
 0004:00001200       $pdata$uninitialize_environment 0000000180031200     libucrt:initialization.obj
 0004:0000120c       $pdata$initialize_pointers 000000018003120c     libucrt:initialization.obj
 0004:00001218       $pdata$uninitialize_allocated_memory 0000000180031218     libucrt:initialization.obj
 0004:00001224       $pdata$__acrt_thread_attach 0000000180031224     libucrt:initialization.obj
 0004:00001230       $pdata$__acrt_thread_detach 0000000180031230     libucrt:initialization.obj
 0004:0000123c       $pdata$__acrt_uninitialize_critical 000000018003123c     libucrt:initialization.obj
 0004:00001248       $pdata$_initterm           0000000180031248     libucrt:initterm.obj
 0004:00001254       $pdata$_initterm_e         0000000180031254     libucrt:initterm.obj
 0004:00001260       $pdata$terminate           0000000180031260     libucrt:terminate.obj
 0004:0000126c       $pdata$abort               000000018003126c     libucrt:abort.obj
 0004:00001278       $pdata$strcpy_s            0000000180031278     libucrt:strcpy_s.obj
 0004:00001284       $pdata$_free_base          0000000180031284     libucrt:free_base.obj
 0004:00001290       $pdata$_malloc_base        0000000180031290     libucrt:malloc_base.obj
 0004:0000129c       $pdata$_calloc_base        000000018003129c     libucrt:calloc_base.obj
 0004:000012a8       $pdata$??$parse_integer@KV?$c_string_character_source@D@__crt_strtox@@@__crt_strtox@@YAKQEAU__crt_locale_pointers@@V?$c_string_character_source@D@0@H_N@Z 00000001800312a8     libucrt:atox.obj
 0004:000012b4       $pdata$??$parse_integer@KV?$c_string_character_source@_W@__crt_strtox@@@__crt_strtox@@YAKQEAU__crt_locale_pointers@@V?$c_string_character_source@_W@0@H_N@Z 00000001800312b4     libucrt:atox.obj
 0004:000012c0       $pdata$isdigit             00000001800312c0     libucrt:_ctype.obj
 0004:000012cc       $pdata$?internal_isupper_l@@YA_NHQEAU__crt_locale_pointers@@@Z 00000001800312cc     libucrt:tolower_toupper.obj
 0004:000012d8       $pdata$_tolower_l          00000001800312d8     libucrt:tolower_toupper.obj
 0004:000012e4       $pdata$tolower             00000001800312e4     libucrt:tolower_toupper.obj
 0004:000012f0       $pdata$__acrt_errno_map_os_error 00000001800312f0     libucrt:errno.obj
 0004:000012fc       $pdata$__doserrno          00000001800312fc     libucrt:errno.obj
 0004:00001308       $pdata$_errno              0000000180031308     libucrt:errno.obj
 0004:00001314       $pdata$strtol              0000000180031314     libucrt:strtox.obj
 0004:00001320       $pdata$wcstol              0000000180031320     libucrt:strtox.obj
 0004:0000132c       $pdata$_mbtowc_l           000000018003132c     libucrt:mbtowc.obj
 0004:00001338       $pdata$_wctomb_s_l         0000000180031338     libucrt:wctomb.obj
 0004:00001344       $pdata$wctomb_s            0000000180031344     libucrt:wctomb.obj
 0004:00001350       $pdata$strnlen             0000000180031350     libucrt:strnlen.obj
 0004:0000135c       $pdata$wcsnlen             000000018003135c     libucrt:strnlen.obj
 0004:00001368       $pdata$??$?RV<lambda_46352004c1216016012b18bd6f87e700>@@AEAV<lambda_3bd07e1a1191394380780325891bf33f>@@V<lambda_334532d3f185bcaa59b5be82d7d22bff>@@@?$__crt_seh_guarded_call@X@@QEAAX$$QEAV<lambda_46352004c1216016012b18bd6f87e700>@@AEAV<lambda_3bd07e1a1191394380780325891bf33f>@@$$QEAV<lambda_334532d3f185bcaa59b5be82d7d22bff>@@@Z 0000000180031368     libucrt:per_thread_data.obj
 0004:00001374       $pdata$??$?RV<lambda_5e887d1dcbef67a5eb4283622ba103bf>@@AEAV<lambda_4466841279450cc726390878d4a41900>@@V<lambda_341c25c0346d94847f1f3c463c57e077>@@@?$__crt_seh_guarded_call@X@@QEAAX$$QEAV<lambda_5e887d1dcbef67a5eb4283622ba103bf>@@AEAV<lambda_4466841279450cc726390878d4a41900>@@$$QEAV<lambda_341c25c0346d94847f1f3c463c57e077>@@@Z 0000000180031374     libucrt:per_thread_data.obj
 0004:00001380       $pdata$??$?RV<lambda_72d1df2b273a38828b1ce30cbf4cdab5>@@AEAV<lambda_876a65b173b8412d3a47c70a915b0cf4>@@V<lambda_41932305e351933ebe8f8be3ed8bb5dc>@@@?$__crt_seh_guarded_call@X@@QEAAX$$QEAV<lambda_72d1df2b273a38828b1ce30cbf4cdab5>@@AEAV<lambda_876a65b173b8412d3a47c70a915b0cf4>@@$$QEAV<lambda_41932305e351933ebe8f8be3ed8bb5dc>@@@Z 0000000180031380     libucrt:per_thread_data.obj
 0004:0000138c       $pdata$??$?RV<lambda_fb3a7dec4e47f37f22dae91bb15c9095>@@AEAV<lambda_698284760c8add0bfb0756c19673e34b>@@V<lambda_dfb8eca1e75fef3034a8fb18dd509707>@@@?$__crt_seh_guarded_call@X@@QEAAX$$QEAV<lambda_fb3a7dec4e47f37f22dae91bb15c9095>@@AEAV<lambda_698284760c8add0bfb0756c19673e34b>@@$$QEAV<lambda_dfb8eca1e75fef3034a8fb18dd509707>@@@Z 000000018003138c     libucrt:per_thread_data.obj
 0004:00001398       $pdata$?construct_ptd_array@@YAXQEAU__acrt_ptd@@@Z 0000000180031398     libucrt:per_thread_data.obj
 0004:000013a4       $pdata$?destroy_fls@@YAXPEAX@Z 00000001800313a4     libucrt:per_thread_data.obj
 0004:000013b0       $pdata$?destroy_ptd_array@@YAXQEAU__acrt_ptd@@@Z 00000001800313b0     libucrt:per_thread_data.obj
 0004:000013bc       $pdata$?replace_current_thread_locale_nolock@@YAXQEAU__acrt_ptd@@QEAU__crt_locale_data@@@Z 00000001800313bc     libucrt:per_thread_data.obj
 0004:000013c8       $pdata$__acrt_freeptd      00000001800313c8     libucrt:per_thread_data.obj
 0004:000013d4       $pdata$__acrt_getptd       00000001800313d4     libucrt:per_thread_data.obj
 0004:000013e0       $pdata$__acrt_getptd_noexit 00000001800313e0     libucrt:per_thread_data.obj
 0004:000013ec       $pdata$__acrt_initialize_ptd 00000001800313ec     libucrt:per_thread_data.obj
 0004:000013f8       $pdata$__acrt_uninitialize_ptd 00000001800313f8     libucrt:per_thread_data.obj
 0004:00001404       $pdata$__acrt_update_locale_info 0000000180031404     libucrt:locale_update.obj
 0004:00001410       $pdata$__acrt_update_multibyte_info 0000000180031410     libucrt:locale_update.obj
 0004:0000141c       $pdata$?fp_format_a@@YAHQEBNPEAD_KQEAD2H_NIQEAU__crt_locale_pointers@@@Z 000000018003141c     libucrt:cvt.obj
 0004:00001428       $pdata$?fp_format_e@@YAHQEBNQEAD_K12H_NIQEAU__crt_locale_pointers@@@Z 0000000180031428     libucrt:cvt.obj
 0004:00001434       $pdata$?fp_format_e_internal@@YAHQEAD_KH_NIQEAU_strflt@@2QEAU__crt_locale_pointers@@@Z 0000000180031434     libucrt:cvt.obj
 0004:00001440       $pdata$?fp_format_f_internal@@YAHQEAD_KHQEAU_strflt@@_NQEAU__crt_locale_pointers@@@Z 0000000180031440     libucrt:cvt.obj
 0004:0000144c       $pdata$?fp_format_g@@YAHQEBNQEAD_K12H_NIQEAU__crt_locale_pointers@@@Z 000000018003144c     libucrt:cvt.obj
 0004:00001458       $pdata$?fp_format_nan_or_infinity@@YAHW4__acrt_fp_class@@_NPEAD_K1@Z 0000000180031458     libucrt:cvt.obj
 0004:00001464       $pdata$__acrt_fp_format    0000000180031464     libucrt:cvt.obj
 0004:00001470       $pdata$_fputwc_nolock      0000000180031470     libucrt:fputwc.obj
 0004:0000147c       $pdata$_fileno             000000018003147c     libucrt:fileno.obj
 0004:00001488       $pdata$__acrt_initialize_stdio 0000000180031488     libucrt:_file.obj
 0004:00001494       $pdata$__acrt_uninitialize_stdio 0000000180031494     libucrt:_file.obj
 0004:000014a0       $pdata$__acrt_stdio_begin_temporary_buffering_nolock 00000001800314a0     libucrt:_sftbuf.obj
 0004:000014ac       $pdata$__acrt_stdio_end_temporary_buffering_nolock 00000001800314ac     libucrt:_sftbuf.obj
 0004:000014b8       $pdata$__acrt_uninitialize_locale 00000001800314b8     libucrt:wsetlocale.obj
 0004:000014c4       $pdata$?initialize_inherited_file_handles_nolock@@YAXXZ 00000001800314c4     libucrt:ioinit.obj
 0004:000014d0       $pdata$?initialize_stdio_handles_nolock@@YAXXZ 00000001800314d0     libucrt:ioinit.obj
 0004:000014dc       $pdata$__acrt_initialize_lowio 00000001800314dc     libucrt:ioinit.obj
 0004:000014e8       $pdata$__acrt_uninitialize_lowio 00000001800314e8     libucrt:ioinit.obj
 0004:000014f4       $pdata$??$common_xtox@K_W@@YAHKQEA_W_KI_N@Z 00000001800314f4     libucrt:xtoa.obj
 0004:00001500       $pdata$??$common_xtox_s@K_W@@YAHKQEA_W_KI_N@Z 0000000180031500     libucrt:xtoa.obj
 0004:0000150c       $pdata$_itow_s             000000018003150c     libucrt:xtoa.obj
 0004:00001518       $pdata$_set_error_mode     0000000180031518     libucrt:set_error_mode.obj
 0004:00001524       $pdata$wcscat_s            0000000180031524     libucrt:wcscat_s.obj
 0004:00001530       $pdata$wcscpy_s            0000000180031530     libucrt:wcscpy_s.obj
 0004:0000153c       $pdata$wcsncat_s           000000018003153c     libucrt:wcsncat_s.obj
 0004:00001548       $pdata$??$message_box_wait_thread@_W@@YAKQEAX@Z 0000000180031548     libucrt:crtmbox.obj
 0004:00001554       $pdata$__acrt_show_wide_message_box 0000000180031554     libucrt:crtmbox.obj
 0004:00001560       $pdata$__acrt_stdio_flush_nolock 0000000180031560     libucrt:fflush.obj
 0004:0000156c       $pdata$_fflush_nolock      000000018003156c     libucrt:fflush.obj
 0004:00001578       $pdata$common_flush_all    0000000180031578     libucrt:fflush.obj
 0004:00001584       $pdata$fflush              0000000180031584     libucrt:fflush.obj
 0004:00001590       $pdata$??$?RV<lambda_7a5ef57ff966f610505f1d28a3d40618>@@AEAV<lambda_b721fa326cdb32351d23dfa67958c160>@@V<lambda_5e0fb27672408a07956fe59e48ccb2aa>@@@?$__crt_seh_guarded_call@H@@QEAAH$$QEAV<lambda_7a5ef57ff966f610505f1d28a3d40618>@@AEAV<lambda_b721fa326cdb32351d23dfa67958c160>@@$$QEAV<lambda_5e0fb27672408a07956fe59e48ccb2aa>@@@Z 0000000180031590     libucrt:setvbuf.obj
 0004:0000159c       $pdata$??R<lambda_b721fa326cdb32351d23dfa67958c160>@@QEBAHXZ 000000018003159c     libucrt:setvbuf.obj
 0004:000015a8       $pdata$setvbuf             00000001800315a8     libucrt:setvbuf.obj
 0004:000015b4       $pdata$??$?RV<lambda_c36588078e9f5dfd39652860aa6b3aaf>@@AEAV<lambda_ec61778202f4f5fc7e7711acc23c3bca>@@V<lambda_dc9d2797ccde5d239b4a0efae8ebd7db>@@@?$__crt_seh_guarded_call@P6AXH@Z@@QEAAP6AXH@Z$$QEAV<lambda_c36588078e9f5dfd39652860aa6b3aaf>@@AEAV<lambda_ec61778202f4f5fc7e7711acc23c3bca>@@$$QEAV<lambda_dc9d2797ccde5d239b4a0efae8ebd7db>@@@Z 00000001800315b4     libucrt:signal.obj
 0004:000015c0       $pdata$__acrt_get_sigabrt_handler 00000001800315c0     libucrt:signal.obj
 0004:000015cc       $pdata$raise               00000001800315cc     libucrt:signal.obj
 0004:000015d8       $pdata$_towlower_l         00000001800315d8     libucrt:towlower.obj
 0004:000015e4       $pdata$__acrt_initialize_locks 00000001800315e4     libucrt:locks.obj
 0004:000015f0       $pdata$__acrt_uninitialize_locks 00000001800315f0     libucrt:locks.obj
 0004:000015fc       $pdata$?try_get_function@@YAPEAXW4function_id@?A0x63058377@@QEBDQEBW4module_id@2@2@Z 00000001800315fc     libucrt:winapi_thunks.obj
 0004:00001608       $pdata$__acrt_FlsAlloc     0000000180031608     libucrt:winapi_thunks.obj
 0004:00001614       $pdata$__acrt_FlsFree      0000000180031614     libucrt:winapi_thunks.obj
 0004:00001620       $pdata$__acrt_FlsGetValue  0000000180031620     libucrt:winapi_thunks.obj
 0004:0000162c       $pdata$__acrt_FlsSetValue  000000018003162c     libucrt:winapi_thunks.obj
 0004:00001638       $pdata$__acrt_InitializeCriticalSectionEx 0000000180031638     libucrt:winapi_thunks.obj
 0004:00001644       $pdata$__acrt_LCMapStringEx 0000000180031644     libucrt:winapi_thunks.obj
 0004:00001650       $pdata$__acrt_LocaleNameToLCID 0000000180031650     libucrt:winapi_thunks.obj
 0004:0000165c       $pdata$__acrt_MessageBoxW  000000018003165c     libucrt:winapi_thunks.obj
 0004:00001668       $pdata$__acrt_can_show_message_box 0000000180031668     libucrt:winapi_thunks.obj
 0004:00001674       $pdata$__acrt_get_parent_window 0000000180031674     libucrt:winapi_thunks.obj
 0004:00001680       $pdata$__acrt_initialize_winapi_thunks 0000000180031680     libucrt:winapi_thunks.obj
 0004:0000168c       $pdata$__acrt_is_interactive 000000018003168c     libucrt:winapi_thunks.obj
 0004:00001698       $pdata$__acrt_is_packaged_app 0000000180031698     libucrt:winapi_thunks.obj
 0004:000016a4       $pdata$__acrt_uninitialize_winapi_thunks 00000001800316a4     libucrt:winapi_thunks.obj
 0004:000016b0       $pdata$??$common_expand_argv_wildcards@D@@YAHQEAPEADQEAPEAPEAD@Z 00000001800316b0     libucrt:argv_wildcards.obj
 0004:000016bc       $pdata$??$copy_and_add_argument_to_buffer@D@@YAHQEBD0_KAEAV?$argument_list@D@?A0xca0879c4@@@Z 00000001800316bc     libucrt:argv_wildcards.obj
 0004:000016c8       $pdata$??$expand_argument_wildcards@D@@YAHQEAD0AEAV?$argument_list@D@?A0xca0879c4@@@Z 00000001800316c8     libucrt:argv_wildcards.obj
 0004:000016d4       $pdata$?expand_if_necessary@?$argument_list@D@?A0xca0879c4@@AEAAHXZ 00000001800316d4     libucrt:argv_wildcards.obj
 0004:000016e0       $pdata$??$?RV<lambda_99476a1ad63dd22509b5d3e65b0ffc95>@@AEAV<lambda_ad1ced32f4ac17aa236e5ef05d6b3b7c>@@V<lambda_f7424dd8d45958661754dc4f2697e9c3>@@@?$__crt_seh_guarded_call@X@@QEAAX$$QEAV<lambda_99476a1ad63dd22509b5d3e65b0ffc95>@@AEAV<lambda_ad1ced32f4ac17aa236e5ef05d6b3b7c>@@$$QEAV<lambda_f7424dd8d45958661754dc4f2697e9c3>@@@Z 00000001800316e0     libucrt:mbctype.obj
 0004:000016ec       $pdata$??R<lambda_ad1ced32f4ac17aa236e5ef05d6b3b7c>@@QEBAXXZ 00000001800316ec     libucrt:mbctype.obj
 0004:000016f8       $pdata$?getSystemCP@@YAHH@Z 00000001800316f8     libucrt:mbctype.obj
 0004:00001704       $pdata$?setSBCS@@YAXPEAU__crt_multibyte_data@@@Z 0000000180031704     libucrt:mbctype.obj
 0004:00001710       $pdata$?setSBUpLow@@YAXPEAU__crt_multibyte_data@@@Z 0000000180031710     libucrt:mbctype.obj
 0004:0000171c       $pdata$?setmbcp_internal@@YAHH_N@Z 000000018003171c     libucrt:mbctype.obj
 0004:00001728       $pdata$__acrt_initialize_multibyte 0000000180031728     libucrt:mbctype.obj
 0004:00001734       $pdata$__acrt_update_thread_multibyte_data 0000000180031734     libucrt:mbctype.obj
 0004:00001740       $pdata$_setmbcp_nolock     0000000180031740     libucrt:mbctype.obj
 0004:0000174c       $pdata$?x_ismbbtype_l@@YAHPEAU__crt_locale_pointers@@IHH@Z 000000018003174c     libucrt:ismbbyte.obj
 0004:00001758       $pdata$__acrt_initialize_command_line 0000000180031758     libucrt:argv_data.obj
 0004:00001764       $pdata$__dcrt_get_narrow_environment_from_os 0000000180031764     libucrt:get_environment_from_os.obj
 0004:00001770       $pdata$_recalloc_base      0000000180031770     libucrt:recalloc.obj
 0004:0000177c       $pdata$__acrt_initialize_heap 000000018003177c     libucrt:heap_handle.obj
 0004:00001788       $pdata$__acrt_execute_initializers 0000000180031788     libucrt:shared_initialization.obj
 0004:00001794       $pdata$__acrt_execute_uninitializers 0000000180031794     libucrt:shared_initialization.obj
 0004:000017a0       $pdata$__acrt_invoke_user_matherr 00000001800317a0     libucrt:matherr.obj
 0004:000017ac       $pdata$__pctype_func       00000001800317ac     libucrt:ctype.obj
 0004:000017b8       $pdata$iswctype            00000001800317b8     libucrt:iswctype.obj
 0004:000017c4       $pdata$_isctype_l          00000001800317c4     libucrt:isctype.obj
 0004:000017d0       $pdata$_isleadbyte_l       00000001800317d0     libucrt:_wctype.obj
 0004:000017dc       $pdata$?__acrt_LCMapStringA_stat@@YAHPEAU__crt_locale_pointers@@PEB_WKPEBDHPEADHHH@Z 00000001800317dc     libucrt:lcmapstringa.obj
 0004:000017e8       $pdata$__acrt_LCMapStringA 00000001800317e8     libucrt:lcmapstringa.obj
 0004:000017f4       $pdata$__acrt_free_locale  00000001800317f4     libucrt:locale_refcounting.obj
 0004:00001800       $pdata$__acrt_locale_free_lc_time_if_unreferenced 0000000180031800     libucrt:locale_refcounting.obj
 0004:0000180c       $pdata$__acrt_release_locale_ref 000000018003180c     libucrt:locale_refcounting.obj
 0004:00001818       $pdata$__acrt_update_thread_locale_data 0000000180031818     libucrt:locale_refcounting.obj
 0004:00001824       $pdata$_updatetlocinfoEx_nolock 0000000180031824     libucrt:locale_refcounting.obj
 0004:00001830       $pdata$__acrt_fp_strflt_to_string 0000000180031830     libucrt:_fptostr.obj
 0004:0000183c       $pdata$?divide@__crt_strtox@@YA_KAEAUbig_integer@1@AEBU21@@Z 000000018003183c     libucrt:cfout.obj
 0004:00001848       $pdata$5$?divide@__crt_strtox@@YA_KAEAUbig_integer@1@AEBU21@@Z 0000000180031848     libucrt:cfout.obj
 0004:00001854       $pdata$6$?divide@__crt_strtox@@YA_KAEAUbig_integer@1@AEBU21@@Z 0000000180031854     libucrt:cfout.obj
 0004:00001860       $pdata$__acrt_fltout       0000000180031860     libucrt:cfout.obj
 0004:0000186c       $pdata$memcpy_s            000000018003186c     libucrt:cfout.obj
 0004:00001878       $pdata$??$write_buffer_nolock@D@@YA_NDV__crt_stdio_stream@@@Z 0000000180031878     libucrt:_flsbuf.obj
 0004:00001884       $pdata$??$write_buffer_nolock@_W@@YA_N_WV__crt_stdio_stream@@@Z 0000000180031884     libucrt:_flsbuf.obj
 0004:00001890       $pdata$__acrt_stdio_flush_and_write_narrow_nolock 0000000180031890     libucrt:_flsbuf.obj
 0004:0000189c       $pdata$__acrt_stdio_flush_and_write_wide_nolock 000000018003189c     libucrt:_flsbuf.obj
 0004:000018a8       $pdata$_fcloseall          00000001800318a8     libucrt:closeall.obj
 0004:000018b4       $pdata$__acrt_stdio_free_buffer_nolock 00000001800318b4     libucrt:_freebuf.obj
 0004:000018c0       $pdata$_isatty             00000001800318c0     libucrt:isatty.obj
 0004:000018cc       $pdata$__acrt_locale_free_monetary 00000001800318cc     libucrt:initmon.obj
 0004:000018d8       $pdata$__acrt_locale_free_numeric 00000001800318d8     libucrt:initnum.obj
 0004:000018e4       $pdata$?free_crt_array_internal@@YAXQEAPEBX_K@Z 00000001800318e4     libucrt:inittime.obj
 0004:000018f0       $pdata$__acrt_locale_free_time 00000001800318f0     libucrt:inittime.obj
 0004:000018fc       $pdata$__acrt_GetStringTypeA 00000001800318fc     libucrt:getstringtypea.obj
 0004:00001908       $pdata$__acrt_lowio_create_handle_array 0000000180031908     libucrt:osfinfo.obj
 0004:00001914       $pdata$__acrt_lowio_destroy_handle_array 0000000180031914     libucrt:osfinfo.obj
 0004:00001920       $pdata$__acrt_lowio_ensure_fh_exists 0000000180031920     libucrt:osfinfo.obj
 0004:0000192c       $pdata$_free_osfhnd        000000018003192c     libucrt:osfinfo.obj
 0004:00001938       $pdata$_get_osfhandle      0000000180031938     libucrt:osfinfo.obj
 0004:00001944       $pdata$??$?RV<lambda_b521505b218e5242e90febf6bfebc422>@@AEAV<lambda_6978c1fb23f02e42e1d9e99668cc68aa>@@V<lambda_314360699dd331753a4119843814e9a7>@@@?$__crt_seh_guarded_call@H@@QEAAH$$QEAV<lambda_b521505b218e5242e90febf6bfebc422>@@AEAV<lambda_6978c1fb23f02e42e1d9e99668cc68aa>@@$$QEAV<lambda_314360699dd331753a4119843814e9a7>@@@Z 0000000180031944     libucrt:commit.obj
 0004:00001950       $pdata$_commit             0000000180031950     libucrt:commit.obj
 0004:0000195c       $pdata$?write_double_translated_ansi_nolock@@YA?AUwrite_result@?A0x9c548279@@HQEBDI@Z 000000018003195c     libucrt:write.obj
 0004:00001968       $pdata$?write_text_ansi_nolock@@YA?AUwrite_result@?A0x9c548279@@HQEBDI@Z 0000000180031968     libucrt:write.obj
 0004:00001974       $pdata$?write_text_utf16le_nolock@@YA?AUwrite_result@?A0x9c548279@@HQEBDI@Z 0000000180031974     libucrt:write.obj
 0004:00001980       $pdata$?write_text_utf8_nolock@@YA?AUwrite_result@?A0x9c548279@@HQEBDI@Z 0000000180031980     libucrt:write.obj
 0004:0000198c       $pdata$_write              000000018003198c     libucrt:write.obj
 0004:00001998       $pdata$_write_nolock       0000000180031998     libucrt:write.obj
 0004:000019a4       $pdata$__acrt_LCMapStringW 00000001800319a4     libucrt:lcmapstringw.obj
 0004:000019b0       $pdata$?GetTableIndexFromLocaleName@@YAHPEB_W@Z 00000001800319b0     libucrt:lcidtoname_downlevel.obj
 0004:000019bc       $pdata$__acrt_DownlevelLocaleNameToLCID 00000001800319bc     libucrt:lcidtoname_downlevel.obj
 0004:000019c8       $pdata$?shortsort@@YAXPEAD0_KP6AHPEBX2@Z@Z 00000001800319c8     libucrt:qsort.obj
 0004:000019d4       $pdata$2$?shortsort@@YAXPEAD0_KP6AHPEBX2@Z@Z 00000001800319d4     libucrt:qsort.obj
 0004:000019e0       $pdata$3$?shortsort@@YAXPEAD0_KP6AHPEBX2@Z@Z 00000001800319e0     libucrt:qsort.obj
 0004:000019ec       $pdata$qsort               00000001800319ec     libucrt:qsort.obj
 0004:000019f8       $pdata$4$qsort             00000001800319f8     libucrt:qsort.obj
 0004:00001a04       $pdata$5$qsort             0000000180031a04     libucrt:qsort.obj
 0004:00001a10       $pdata$strncpy_s           0000000180031a10     libucrt:strncpy_s.obj
 0004:00001a1c       $pdata$strpbrk             0000000180031a1c     libucrt:strpbrk.obj
 0004:00001a28       $pdata$_mbsdec_l           0000000180031a28     libucrt:mbsdec.obj
 0004:00001a34       $pdata$?initialize_multibyte@@YAHXZ 0000000180031a34     libucrt:multibyte_initializer.obj
 0004:00001a40       $pdata$_msize              0000000180031a40     libucrt:msize.obj
 0004:00001a4c       $pdata$_realloc_base       0000000180031a4c     libucrt:realloc_base.obj
 0004:00001a58       $pdata$fegetenv            0000000180031a58     libucrt:fegetenv.obj
 0004:00001a64       $pdata$fesetenv            0000000180031a64     libucrt:fesetenv.obj
 0004:00001a70       $pdata$feholdexcept        0000000180031a70     libucrt:feholdexcept.obj
 0004:00001a88       $pdata$??$common_lseek@_J@@YA_JH_JH@Z 0000000180031a88     libucrt:lseek.obj
 0004:00001a94       $pdata$??$common_lseek_nolock@_J@@YA_JH_JH@Z 0000000180031a94     libucrt:lseek.obj
 0004:00001aa0       $pdata$__acrt_stdio_allocate_buffer_nolock 0000000180031aa0     libucrt:_getbuf.obj
 0004:00001aac       $pdata$_fclose_nolock      0000000180031aac     libucrt:fclose.obj
 0004:00001ab8       $pdata$fclose              0000000180031ab8     libucrt:fclose.obj
 0004:00001ac4       $pdata$_putwch_nolock      0000000180031ac4     libucrt:putwch.obj
 0004:00001ad0       $pdata$_getfpcontrolword   0000000180031ad0     libucrt:_fenvutils.obj
 0004:00001adc       $pdata$_getfpstatusword    0000000180031adc     libucrt:_fenvutils.obj
 0004:00001ae8       $pdata$_setfpstatusword    0000000180031ae8     libucrt:_fenvutils.obj
 0004:00001af4       $pdata$_clearfp            0000000180031af4     libucrt:ieee.obj
 0004:00001b00       $pdata$common_control87    0000000180031b00     libucrt:ieee.obj
 0004:00001b0c       $pdata$_call_matherr       0000000180031b0c     libucrt:libm_error.obj
 0004:00001b18       $pdata$_exception_enabled  0000000180031b18     libucrt:libm_error.obj
 0004:00001b24       $pdata$_handle_error       0000000180031b24     libucrt:libm_error.obj
 0004:00001b30       $pdata$__acrt_initialize_fma3 0000000180031b30     libucrt:fma3_available.obj
 0004:00001b3c       $pdata$_log10_special      0000000180031b3c     libucrt:log_special.obj
 0004:00001b48       $pdata$_log_special_common 0000000180031b48     libucrt:log_special.obj
 0004:00001b54       $pdata$??$?RV<lambda_bfedae4ebbf01fab1bb6dcc6a9e276e0>@@AEAV<lambda_2fe9b910cf3cbf4a0ab98a02ba45b3ec>@@V<lambda_237c231691f317818eb88cc1d5d642d6>@@@?$__crt_seh_guarded_call@H@@QEAAH$$QEAV<lambda_bfedae4ebbf01fab1bb6dcc6a9e276e0>@@AEAV<lambda_2fe9b910cf3cbf4a0ab98a02ba45b3ec>@@$$QEAV<lambda_237c231691f317818eb88cc1d5d642d6>@@@Z 0000000180031b54     libucrt:close.obj
 0004:00001b60       $pdata$_close              0000000180031b60     libucrt:close.obj
 0004:00001b6c       $pdata$_close_nolock       0000000180031b6c     libucrt:close.obj
 0004:00001b78       $pdata$__dcrt_lowio_initialize_console_output 0000000180031b78     libucrt:initcon.obj
 0004:00001b84       $pdata$__dcrt_terminate_console_output 0000000180031b84     libucrt:initcon.obj
 0004:00001b9c       $pdata$_raise_exc          0000000180031b9c     libucrt:fpexcept.obj
 0004:00001ba8       $pdata$_raise_exc_ex       0000000180031ba8     libucrt:fpexcept.obj
 0004:00001bb4       $pdata$_set_errno_from_matherr 0000000180031bb4     libucrt:fpexcept.obj
 0004:00001bc0       $pdata$_clrfp              0000000180031bc0     libucrt:fpctrl.obj
 0004:00001bcc       $pdata$_ctrlfp             0000000180031bcc     libucrt:fpctrl.obj
 0004:00001bd8       $pdata$_set_statfp         0000000180031bd8     libucrt:fpctrl.obj
 0004:00001be4       $pdata$_statfp             0000000180031be4     libucrt:fpctrl.obj
 0004:00001bf0       $pdata$?DloadAcquireSectionWriteAccess@@YAXXZ 0000000180031bf0     DelayImp:delayhlp.obj
 0004:00001bfc       $pdata$?DloadGetSRWLockFunctionPointers@@YAEXZ 0000000180031bfc     DelayImp:delayhlp.obj
 0004:00001c08       $pdata$?DloadMakePermanentImageCommit@@YAXPEAX_K@Z 0000000180031c08     DelayImp:delayhlp.obj
 0004:00001c14       $pdata$?DloadObtainSection@@YAPEAXPEAK0@Z 0000000180031c14     DelayImp:delayhlp.obj
 0004:00001c20       $pdata$?DloadProtectSection@@YAXKPEAK@Z 0000000180031c20     DelayImp:delayhlp.obj
 0004:00001c2c       $pdata$?DloadReleaseSectionWriteAccess@@YAXXZ 0000000180031c2c     DelayImp:delayhlp.obj
 0004:00001c38       $pdata$__delayLoadHelper2  0000000180031c38     DelayImp:delayhlp.obj
 0004:00001c44       $pdata$_IsNonwritableInCurrentImage 0000000180031c44     LIBCMT:pesect.obj
 0004:00001c50       $pdata$__GSHandlerCheck    0000000180031c50     LIBCMT:_gshandler_.obj
 0004:00001c5c       $pdata$__GSHandlerCheckCommon 0000000180031c5c     LIBCMT:_gshandler_.obj
 0004:00001c74       $pdata$strrchr             0000000180031c74     libvcruntime:strrchr.obj
 0004:00001c98       $pdata$__scrt_is_nonwritable_in_current_image$filt$0 0000000180031c98     LIBCMT:utility.obj
 0004:00001ca4       $pdata$?fin$0@?0??dllmain_crt_process_attach@@YAHQEAUHINSTANCE__@@QEAX@Z@4HA 0000000180031ca4     LIBCMT:dll_dllmain.obj
 0004:00001cb0       $pdata$?fin$0@?0??dllmain_crt_process_detach@@YAH_N@Z@4HA 0000000180031cb0     LIBCMT:dll_dllmain.obj
 0004:00001cbc       $pdata$?filt$0@?0??dllmain_dispatch@@YAHQEAUHINSTANCE__@@KQEAX@Z@4HA 0000000180031cbc     LIBCMT:dll_dllmain.obj
 0004:00001cc8       $pdata$?fin$0@?0???$?RV<lambda_7a5ef57ff966f610505f1d28a3d40618>@@AEAV<lambda_b721fa326cdb32351d23dfa67958c160>@@V<lambda_5e0fb27672408a07956fe59e48ccb2aa>@@@?$__crt_seh_guarded_call@H@@QEAAH$$QEAV<lambda_7a5ef57ff966f610505f1d28a3d40618>@@AEAV<lambda_b721fa326cdb32351d23dfa67958c160>@@$$QEAV<lambda_5e0fb27672408a07956fe59e48ccb2aa>@@@Z@4HA 0000000180031cc8     libucrt:setvbuf.obj
 0004:00001cc8       $pdata$?fin$0@?0???$?RV<lambda_7b91131dde12e1c3dfc74ff76b3f2eac>@@AEAV<lambda_dd75445284c072d0bd3768540cc698fa>@@V<lambda_16bc4ecb55b4718497c16bceaea2ceaf>@@@?$__crt_seh_guarded_call@H@@QEAAH$$QEAV<lambda_7b91131dde12e1c3dfc74ff76b3f2eac>@@AEAV<lambda_dd75445284c072d0bd3768540cc698fa>@@$$QEAV<lambda_16bc4ecb55b4718497c16bceaea2ceaf>@@@Z@4HA 0000000180031cc8     libucrt:output.obj
 0004:00001cd4       $pdata$_query_new_handler$fin$0 0000000180031cd4     libucrt:new_handler.obj
 0004:00001ce0       $pdata$?filt$0@?0??common_exit@@YAXHW4_crt_exit_cleanup_mode@@W4_crt_exit_return_mode@@@Z@4HA 0000000180031ce0     libucrt:exit.obj
 0004:00001cec       $pdata$?fin$1@?0??common_exit@@YAXHW4_crt_exit_cleanup_mode@@W4_crt_exit_return_mode@@@Z@4HA 0000000180031cec     libucrt:exit.obj
 0004:00001cf8       $pdata$?fin$0@?0???$?RV<lambda_e24bbb7b643b32fcea6fa61b31d4c984>@@AEAV<lambda_275893d493268fdec8709772e3fcec0e>@@V<lambda_9d71df4d7cf3f480f8d633942495c3b0>@@@?$__crt_seh_guarded_call@H@@QEAAH$$QEAV<lambda_e24bbb7b643b32fcea6fa61b31d4c984>@@AEAV<lambda_275893d493268fdec8709772e3fcec0e>@@$$QEAV<lambda_9d71df4d7cf3f480f8d633942495c3b0>@@@Z@4HA 0000000180031cf8     libucrt:onexit.obj
 0004:00001d04       $pdata$__acrt_update_thread_locale_data$fin$0 0000000180031d04     libucrt:locale_refcounting.obj
 0004:00001d04       $pdata$__acrt_uninitialize_locale$fin$0 0000000180031d04     libucrt:wsetlocale.obj
 0004:00001d10       $pdata$__acrt_lowio_ensure_fh_exists$fin$0 0000000180031d10     libucrt:osfinfo.obj
 0004:00001d10       $pdata$__acrt_initialize_lowio$fin$0 0000000180031d10     libucrt:ioinit.obj
 0004:00001d1c       $pdata$common_flush_all$fin$0 0000000180031d1c     libucrt:fflush.obj
 0004:00001d28       $pdata$common_flush_all$fin$1 0000000180031d28     libucrt:fflush.obj
 0004:00001d34       $pdata$fflush$fin$0        0000000180031d34     libucrt:fflush.obj
 0004:00001d34       $pdata$fclose$fin$0        0000000180031d34     libucrt:fclose.obj
 0004:00001d40       $pdata$?fin$0@?0???$?RV<lambda_72d1df2b273a38828b1ce30cbf4cdab5>@@AEAV<lambda_876a65b173b8412d3a47c70a915b0cf4>@@V<lambda_41932305e351933ebe8f8be3ed8bb5dc>@@@?$__crt_seh_guarded_call@X@@QEAAX$$QEAV<lambda_72d1df2b273a38828b1ce30cbf4cdab5>@@AEAV<lambda_876a65b173b8412d3a47c70a915b0cf4>@@$$QEAV<lambda_41932305e351933ebe8f8be3ed8bb5dc>@@@Z@4HA 0000000180031d40     libucrt:per_thread_data.obj
 0004:00001d40       $pdata$?fin$0@?0???$?RV<lambda_fb3a7dec4e47f37f22dae91bb15c9095>@@AEAV<lambda_698284760c8add0bfb0756c19673e34b>@@V<lambda_dfb8eca1e75fef3034a8fb18dd509707>@@@?$__crt_seh_guarded_call@X@@QEAAX$$QEAV<lambda_fb3a7dec4e47f37f22dae91bb15c9095>@@AEAV<lambda_698284760c8add0bfb0756c19673e34b>@@$$QEAV<lambda_dfb8eca1e75fef3034a8fb18dd509707>@@@Z@4HA 0000000180031d40     libucrt:per_thread_data.obj
 0004:00001d40       $pdata$?fin$0@?0???$?RV<lambda_46352004c1216016012b18bd6f87e700>@@AEAV<lambda_3bd07e1a1191394380780325891bf33f>@@V<lambda_334532d3f185bcaa59b5be82d7d22bff>@@@?$__crt_seh_guarded_call@X@@QEAAX$$QEAV<lambda_46352004c1216016012b18bd6f87e700>@@AEAV<lambda_3bd07e1a1191394380780325891bf33f>@@$$QEAV<lambda_334532d3f185bcaa59b5be82d7d22bff>@@@Z@4HA 0000000180031d40     libucrt:per_thread_data.obj
 0004:00001d40       $pdata$?fin$0@?0???$?RV<lambda_c36588078e9f5dfd39652860aa6b3aaf>@@AEAV<lambda_ec61778202f4f5fc7e7711acc23c3bca>@@V<lambda_dc9d2797ccde5d239b4a0efae8ebd7db>@@@?$__crt_seh_guarded_call@P6AXH@Z@@QEAAP6AXH@Z$$QEAV<lambda_c36588078e9f5dfd39652860aa6b3aaf>@@AEAV<lambda_ec61778202f4f5fc7e7711acc23c3bca>@@$$QEAV<lambda_dc9d2797ccde5d239b4a0efae8ebd7db>@@@Z@4HA 0000000180031d40     libucrt:signal.obj
 0004:00001d40       $pdata$?fin$0@?0???$?RV<lambda_5e887d1dcbef67a5eb4283622ba103bf>@@AEAV<lambda_4466841279450cc726390878d4a41900>@@V<lambda_341c25c0346d94847f1f3c463c57e077>@@@?$__crt_seh_guarded_call@X@@QEAAX$$QEAV<lambda_5e887d1dcbef67a5eb4283622ba103bf>@@AEAV<lambda_4466841279450cc726390878d4a41900>@@$$QEAV<lambda_341c25c0346d94847f1f3c463c57e077>@@@Z@4HA 0000000180031d40     libucrt:per_thread_data.obj
 0004:00001d40       $pdata$?fin$0@?0???$?RV<lambda_99476a1ad63dd22509b5d3e65b0ffc95>@@AEAV<lambda_ad1ced32f4ac17aa236e5ef05d6b3b7c>@@V<lambda_f7424dd8d45958661754dc4f2697e9c3>@@@?$__crt_seh_guarded_call@X@@QEAAX$$QEAV<lambda_99476a1ad63dd22509b5d3e65b0ffc95>@@AEAV<lambda_ad1ced32f4ac17aa236e5ef05d6b3b7c>@@$$QEAV<lambda_f7424dd8d45958661754dc4f2697e9c3>@@@Z@4HA 0000000180031d40     libucrt:mbctype.obj
 0004:00001d40       $pdata$?fin$0@?0???$?RV<lambda_b8c45f8f788dd370798f47cfe8ac3a86>@@AEAV<lambda_4e60a939b0d047cfe11ddc22648dfba9>@@V<lambda_332c3edc96d0294ec56c57d38c1cdfd5>@@@?$__crt_seh_guarded_call@H@@QEAAH$$QEAV<lambda_b8c45f8f788dd370798f47cfe8ac3a86>@@AEAV<lambda_4e60a939b0d047cfe11ddc22648dfba9>@@$$QEAV<lambda_332c3edc96d0294ec56c57d38c1cdfd5>@@@Z@4HA 0000000180031d40     libucrt:onexit.obj
 0004:00001d4c       $pdata$raise$fin$0         0000000180031d4c     libucrt:signal.obj
 0004:00001d58       $pdata$__acrt_update_thread_multibyte_data$fin$0 0000000180031d58     libucrt:mbctype.obj
 0004:00001d64       $pdata$_fcloseall$fin$0    0000000180031d64     libucrt:closeall.obj
 0004:00001d70       $pdata$?fin$0@?0???$?RV<lambda_b521505b218e5242e90febf6bfebc422>@@AEAV<lambda_6978c1fb23f02e42e1d9e99668cc68aa>@@V<lambda_314360699dd331753a4119843814e9a7>@@@?$__crt_seh_guarded_call@H@@QEAAH$$QEAV<lambda_b521505b218e5242e90febf6bfebc422>@@AEAV<lambda_6978c1fb23f02e42e1d9e99668cc68aa>@@$$QEAV<lambda_314360699dd331753a4119843814e9a7>@@@Z@4HA 0000000180031d70     libucrt:commit.obj
 0004:00001d70       $pdata$?fin$0@?0???$?RV<lambda_bfedae4ebbf01fab1bb6dcc6a9e276e0>@@AEAV<lambda_2fe9b910cf3cbf4a0ab98a02ba45b3ec>@@V<lambda_237c231691f317818eb88cc1d5d642d6>@@@?$__crt_seh_guarded_call@H@@QEAAH$$QEAV<lambda_bfedae4ebbf01fab1bb6dcc6a9e276e0>@@AEAV<lambda_2fe9b910cf3cbf4a0ab98a02ba45b3ec>@@$$QEAV<lambda_237c231691f317818eb88cc1d5d642d6>@@@Z@4HA 0000000180031d70     libucrt:close.obj
 0004:00001d7c       $pdata$?fin$0@?0???$common_lseek@_J@@YA_JH_JH@Z@4HA 0000000180031d7c     libucrt:lseek.obj
 0004:00001d7c       $pdata$_write$fin$0        0000000180031d7c     libucrt:write.obj
 0004:00001d88       $pdata$_ctrlfp$filt$0      0000000180031d88     libucrt:fpctrl.obj
 0004:00001d88       $pdata$common_control87$filt$0 0000000180031d88     libucrt:ieee.obj
 0004:00001d94       $pdata$_IsNonwritableInCurrentImage$filt$0 0000000180031d94     LIBCMT:pesect.obj
 0005:00000000       __guard_fids__             0000000180032000     libucrt:initialization.obj
 0005:00000060       __guard_fids___acrt_initialize_ptd 0000000180032060     libucrt:per_thread_data.obj
 0005:00000064       __guard_fids___acrt_show_wide_message_box 0000000180032064     libucrt:crtmbox.obj
 0005:00000068       __guard_fids_??$expand_argument_wildcards@D@@YAHQEAD0AEAV?$argument_list@D@?A0xca0879c4@@@Z 0000000180032068     libucrt:argv_wildcards.obj
 0005:0000006c       __guard_fids__             000000018003206c     libucrt:stdio_initializer.obj
 0005:00000070       __guard_fids__             0000000180032070     libucrt:stdio_initializer.obj
 0005:00000074       __guard_fids__             0000000180032074     libucrt:locale_initializer.obj
 0005:00000078       __guard_fids__             0000000180032078     libucrt:multibyte_initializer.obj
 0005:0000007c       __guard_fids__             000000018003207c     libucrt:fma3_initializer.obj
 0005:00000080       __guard_fids__             0000000180032080     libucrt:console_output_initializer.obj
 0005:00000084       __guard_fids__             0000000180032084     libcpmt:xthrow.obj
 0005:0000008c       __guard_fids__             000000018003208c     libcpmt:xthrow.obj
 0005:00000094       __guard_fids__             0000000180032094     libcpmt:xthrow.obj
 0005:0000009c       __guard_fids__             000000018003209c     libcpmt:xthrow.obj
 0005:000000a4       __guard_fids__             00000001800320a4     libcpmt:xthrow.obj
 0005:000000ac       __guard_fids_?dllmain_crt_process_attach@@YAHQEAUHINSTANCE__@@QEAX@Z 00000001800320ac     LIBCMT:dll_dllmain.obj
 0005:000000b4       __guard_fids_?dllmain_dispatch@@YAHQEAUHINSTANCE__@@KQEAX@Z 00000001800320b4     LIBCMT:dll_dllmain.obj
 0005:000000b8       __guard_fids__             00000001800320b8     LIBCMT:std_type_info_static.obj
 0005:000000bc       __guard_fids__             00000001800320bc     LIBCMT:throw_bad_alloc.obj
 0005:000000c4       __guard_fids__             00000001800320c4     LIBCMT:guard_support.obj
 0005:000000c8       __guard_fids___vcrt_initialize_ptd 00000001800320c8     libvcruntime:per_thread_data.obj
 0006:00000060       $R000000                   0000000180033060     * linker generated manifest res *

 Exports

  ordinal    name

        1    _register_node_activex_
